SF:/mnt/f/Node/hivellm/synap/synap-cli/src/main.rs
FN:78,_RNCNCNvMCs25MzMkWFEF4_9synap_cliNtB6_11SynapClient7cmd_set00B6_
FN:247,_RNCNCNvMCs25MzMkWFEF4_9synap_cliNtB6_11SynapClient8cmd_decr00B6_
FN:213,_RNCNCNvMCs25MzMkWFEF4_9synap_cliNtB6_11SynapClient8cmd_incr00B6_
FN:368,_RNCNCNvMCs25MzMkWFEF4_9synap_cliNtB6_11SynapClient8cmd_keys00B6_
FN:392,_RNCNCNvMCs25MzMkWFEF4_9synap_cliNtB6_11SynapClient8cmd_keys0s_0B6_
FN:557,_RNCNCNvMCs25MzMkWFEF4_9synap_cliNtB6_11SynapClient8cmd_mget00B6_
FN:650,_RNCNvCs25MzMkWFEF4_9synap_cli15run_interactive0B3_
FN:624,_RNCNvCs25MzMkWFEF4_9synap_cli4main0B3_
FN:408,_RNCNvMCs25MzMkWFEF4_9synap_cliNtB4_11SynapClient10cmd_dbsize0B4_
FN:177,_RNCNvMCs25MzMkWFEF4_9synap_cliNtB4_11SynapClient10cmd_exists0B4_
FN:276,_RNCNvMCs25MzMkWFEF4_9synap_cliNtB4_11SynapClient10cmd_expire0B4_
FN:421,_RNCNvMCs25MzMkWFEF4_9synap_cliNtB4_11SynapClient11cmd_flushdb0B4_
FN:336,_RNCNvMCs25MzMkWFEF4_9synap_cliNtB4_11SynapClient11cmd_persist0B4_
FN:445,_RNCNvMCs25MzMkWFEF4_9synap_cliNtB4_11SynapClient12cmd_flushall0B4_
FN:39,_RNCNvMCs25MzMkWFEF4_9synap_cliNtB4_11SynapClient15execute_command0B4_
FN:146,_RNCNvMCs25MzMkWFEF4_9synap_cliNtB4_11SynapClient7cmd_del0B4_
FN:107,_RNCNvMCs25MzMkWFEF4_9synap_cliNtB4_11SynapClient7cmd_get0B4_
FN:73,_RNCNvMCs25MzMkWFEF4_9synap_cliNtB4_11SynapClient7cmd_set0B4_
FN:312,_RNCNvMCs25MzMkWFEF4_9synap_cliNtB4_11SynapClient7cmd_ttl0B4_
FN:242,_RNCNvMCs25MzMkWFEF4_9synap_cliNtB4_11SynapClient8cmd_decr0B4_
FN:208,_RNCNvMCs25MzMkWFEF4_9synap_cliNtB4_11SynapClient8cmd_incr0B4_
FN:367,_RNCNvMCs25MzMkWFEF4_9synap_cliNtB4_11SynapClient8cmd_keys0B4_
FN:531,_RNCNvMCs25MzMkWFEF4_9synap_cliNtB4_11SynapClient8cmd_mget0B4_
FN:493,_RNCNvMCs25MzMkWFEF4_9synap_cliNtB4_11SynapClient8cmd_mset0B4_
FN:477,_RNCNvMCs25MzMkWFEF4_9synap_cliNtB4_11SynapClient8cmd_ping0B4_
FN:404,_RNCNvMCs25MzMkWFEF4_9synap_cliNtB4_11SynapClient8cmd_scan0B4_
FN:449,_RNCNvMCs25MzMkWFEF4_9synap_cliNtB4_11SynapClient9cmd_stats0B4_
FN:650,_RNvCs25MzMkWFEF4_9synap_cli15run_interactive
FN:624,_RNvCs25MzMkWFEF4_9synap_cli4main
FN:408,_RNvMCs25MzMkWFEF4_9synap_cliNtB2_11SynapClient10cmd_dbsize
FN:177,_RNvMCs25MzMkWFEF4_9synap_cliNtB2_11SynapClient10cmd_exists
FN:276,_RNvMCs25MzMkWFEF4_9synap_cliNtB2_11SynapClient10cmd_expire
FN:421,_RNvMCs25MzMkWFEF4_9synap_cliNtB2_11SynapClient11cmd_flushdb
FN:336,_RNvMCs25MzMkWFEF4_9synap_cliNtB2_11SynapClient11cmd_persist
FN:445,_RNvMCs25MzMkWFEF4_9synap_cliNtB2_11SynapClient12cmd_flushall
FN:39,_RNvMCs25MzMkWFEF4_9synap_cliNtB2_11SynapClient15execute_command
FN:32,_RNvMCs25MzMkWFEF4_9synap_cliNtB2_11SynapClient3new
FN:146,_RNvMCs25MzMkWFEF4_9synap_cliNtB2_11SynapClient7cmd_del
FN:107,_RNvMCs25MzMkWFEF4_9synap_cliNtB2_11SynapClient7cmd_get
FN:73,_RNvMCs25MzMkWFEF4_9synap_cliNtB2_11SynapClient7cmd_set
FN:312,_RNvMCs25MzMkWFEF4_9synap_cliNtB2_11SynapClient7cmd_ttl
FN:242,_RNvMCs25MzMkWFEF4_9synap_cliNtB2_11SynapClient8cmd_decr
FN:208,_RNvMCs25MzMkWFEF4_9synap_cliNtB2_11SynapClient8cmd_incr
FN:367,_RNvMCs25MzMkWFEF4_9synap_cliNtB2_11SynapClient8cmd_keys
FN:531,_RNvMCs25MzMkWFEF4_9synap_cliNtB2_11SynapClient8cmd_mget
FN:493,_RNvMCs25MzMkWFEF4_9synap_cliNtB2_11SynapClient8cmd_mset
FN:477,_RNvMCs25MzMkWFEF4_9synap_cliNtB2_11SynapClient8cmd_ping
FN:404,_RNvMCs25MzMkWFEF4_9synap_cliNtB2_11SynapClient8cmd_scan
FN:449,_RNvMCs25MzMkWFEF4_9synap_cliNtB2_11SynapClient9cmd_stats
FN:575,_RNvMCs25MzMkWFEF4_9synap_cliNtB2_11SynapClient9help_text
FNDA:0,_RNCNCNvMCs25MzMkWFEF4_9synap_cliNtB6_11SynapClient7cmd_set00B6_
FNDA:0,_RNCNCNvMCs25MzMkWFEF4_9synap_cliNtB6_11SynapClient8cmd_decr00B6_
FNDA:0,_RNCNCNvMCs25MzMkWFEF4_9synap_cliNtB6_11SynapClient8cmd_incr00B6_
FNDA:0,_RNCNCNvMCs25MzMkWFEF4_9synap_cliNtB6_11SynapClient8cmd_keys00B6_
FNDA:0,_RNCNCNvMCs25MzMkWFEF4_9synap_cliNtB6_11SynapClient8cmd_keys0s_0B6_
FNDA:0,_RNCNCNvMCs25MzMkWFEF4_9synap_cliNtB6_11SynapClient8cmd_mget00B6_
FNDA:0,_RNCNvCs25MzMkWFEF4_9synap_cli15run_interactive0B3_
FNDA:0,_RNCNvCs25MzMkWFEF4_9synap_cli4main0B3_
FNDA:0,_RNCNvMCs25MzMkWFEF4_9synap_cliNtB4_11SynapClient10cmd_dbsize0B4_
FNDA:0,_RNCNvMCs25MzMkWFEF4_9synap_cliNtB4_11SynapClient10cmd_exists0B4_
FNDA:0,_RNCNvMCs25MzMkWFEF4_9synap_cliNtB4_11SynapClient10cmd_expire0B4_
FNDA:0,_RNCNvMCs25MzMkWFEF4_9synap_cliNtB4_11SynapClient11cmd_flushdb0B4_
FNDA:0,_RNCNvMCs25MzMkWFEF4_9synap_cliNtB4_11SynapClient11cmd_persist0B4_
FNDA:0,_RNCNvMCs25MzMkWFEF4_9synap_cliNtB4_11SynapClient12cmd_flushall0B4_
FNDA:0,_RNCNvMCs25MzMkWFEF4_9synap_cliNtB4_11SynapClient15execute_command0B4_
FNDA:0,_RNCNvMCs25MzMkWFEF4_9synap_cliNtB4_11SynapClient7cmd_del0B4_
FNDA:0,_RNCNvMCs25MzMkWFEF4_9synap_cliNtB4_11SynapClient7cmd_get0B4_
FNDA:0,_RNCNvMCs25MzMkWFEF4_9synap_cliNtB4_11SynapClient7cmd_set0B4_
FNDA:0,_RNCNvMCs25MzMkWFEF4_9synap_cliNtB4_11SynapClient7cmd_ttl0B4_
FNDA:0,_RNCNvMCs25MzMkWFEF4_9synap_cliNtB4_11SynapClient8cmd_decr0B4_
FNDA:0,_RNCNvMCs25MzMkWFEF4_9synap_cliNtB4_11SynapClient8cmd_incr0B4_
FNDA:0,_RNCNvMCs25MzMkWFEF4_9synap_cliNtB4_11SynapClient8cmd_keys0B4_
FNDA:0,_RNCNvMCs25MzMkWFEF4_9synap_cliNtB4_11SynapClient8cmd_mget0B4_
FNDA:0,_RNCNvMCs25MzMkWFEF4_9synap_cliNtB4_11SynapClient8cmd_mset0B4_
FNDA:0,_RNCNvMCs25MzMkWFEF4_9synap_cliNtB4_11SynapClient8cmd_ping0B4_
FNDA:0,_RNCNvMCs25MzMkWFEF4_9synap_cliNtB4_11SynapClient8cmd_scan0B4_
FNDA:0,_RNCNvMCs25MzMkWFEF4_9synap_cliNtB4_11SynapClient9cmd_stats0B4_
FNDA:0,_RNvCs25MzMkWFEF4_9synap_cli15run_interactive
FNDA:0,_RNvCs25MzMkWFEF4_9synap_cli4main
FNDA:0,_RNvMCs25MzMkWFEF4_9synap_cliNtB2_11SynapClient10cmd_dbsize
FNDA:0,_RNvMCs25MzMkWFEF4_9synap_cliNtB2_11SynapClient10cmd_exists
FNDA:0,_RNvMCs25MzMkWFEF4_9synap_cliNtB2_11SynapClient10cmd_expire
FNDA:0,_RNvMCs25MzMkWFEF4_9synap_cliNtB2_11SynapClient11cmd_flushdb
FNDA:0,_RNvMCs25MzMkWFEF4_9synap_cliNtB2_11SynapClient11cmd_persist
FNDA:0,_RNvMCs25MzMkWFEF4_9synap_cliNtB2_11SynapClient12cmd_flushall
FNDA:0,_RNvMCs25MzMkWFEF4_9synap_cliNtB2_11SynapClient15execute_command
FNDA:0,_RNvMCs25MzMkWFEF4_9synap_cliNtB2_11SynapClient3new
FNDA:0,_RNvMCs25MzMkWFEF4_9synap_cliNtB2_11SynapClient7cmd_del
FNDA:0,_RNvMCs25MzMkWFEF4_9synap_cliNtB2_11SynapClient7cmd_get
FNDA:0,_RNvMCs25MzMkWFEF4_9synap_cliNtB2_11SynapClient7cmd_set
FNDA:0,_RNvMCs25MzMkWFEF4_9synap_cliNtB2_11SynapClient7cmd_ttl
FNDA:0,_RNvMCs25MzMkWFEF4_9synap_cliNtB2_11SynapClient8cmd_decr
FNDA:0,_RNvMCs25MzMkWFEF4_9synap_cliNtB2_11SynapClient8cmd_incr
FNDA:0,_RNvMCs25MzMkWFEF4_9synap_cliNtB2_11SynapClient8cmd_keys
FNDA:0,_RNvMCs25MzMkWFEF4_9synap_cliNtB2_11SynapClient8cmd_mget
FNDA:0,_RNvMCs25MzMkWFEF4_9synap_cliNtB2_11SynapClient8cmd_mset
FNDA:0,_RNvMCs25MzMkWFEF4_9synap_cliNtB2_11SynapClient8cmd_ping
FNDA:0,_RNvMCs25MzMkWFEF4_9synap_cliNtB2_11SynapClient8cmd_scan
FNDA:0,_RNvMCs25MzMkWFEF4_9synap_cliNtB2_11SynapClient9cmd_stats
FNDA:0,_RNvMCs25MzMkWFEF4_9synap_cliNtB2_11SynapClient9help_text
FNF:50
FNH:0
DA:32,0
DA:33,0
DA:34,0
DA:35,0
DA:36,0
DA:37,0
DA:39,0
DA:40,0
DA:42,0
DA:43,0
DA:44,0
DA:45,0
DA:46,0
DA:47,0
DA:48,0
DA:49,0
DA:50,0
DA:51,0
DA:52,0
DA:53,0
DA:54,0
DA:55,0
DA:56,0
DA:57,0
DA:58,0
DA:59,0
DA:60,0
DA:61,0
DA:62,0
DA:65,0
DA:66,0
DA:67,0
DA:68,0
DA:69,0
DA:70,0
DA:71,0
DA:73,0
DA:74,0
DA:75,0
DA:76,0
DA:78,0
DA:80,0
DA:81,0
DA:82,0
DA:83,0
DA:84,0
DA:85,0
DA:86,0
DA:87,0
DA:88,0
DA:89,0
DA:90,0
DA:91,0
DA:92,0
DA:93,0
DA:94,0
DA:95,0
DA:97,0
DA:98,0
DA:100,0
DA:101,0
DA:102,0
DA:103,0
DA:105,0
DA:107,0
DA:108,0
DA:109,0
DA:110,0
DA:112,0
DA:113,0
DA:114,0
DA:115,0
DA:116,0
DA:117,0
DA:118,0
DA:119,0
DA:120,0
DA:121,0
DA:122,0
DA:123,0
DA:124,0
DA:125,0
DA:127,0
DA:128,0
DA:129,0
DA:130,0
DA:131,0
DA:132,0
DA:133,0
DA:134,0
DA:136,0
DA:139,0
DA:140,0
DA:141,0
DA:142,0
DA:144,0
DA:146,0
DA:147,0
DA:148,0
DA:149,0
DA:151,0
DA:152,0
DA:153,0
DA:154,0
DA:155,0
DA:156,0
DA:157,0
DA:158,0
DA:159,0
DA:160,0
DA:161,0
DA:162,0
DA:163,0
DA:164,0
DA:166,0
DA:167,0
DA:168,0
DA:170,0
DA:171,0
DA:172,0
DA:173,0
DA:175,0
DA:177,0
DA:178,0
DA:179,0
DA:180,0
DA:182,0
DA:183,0
DA:184,0
DA:185,0
DA:186,0
DA:187,0
DA:188,0
DA:189,0
DA:190,0
DA:191,0
DA:192,0
DA:193,0
DA:194,0
DA:195,0
DA:197,0
DA:198,0
DA:199,0
DA:201,0
DA:202,0
DA:203,0
DA:204,0
DA:206,0
DA:208,0
DA:209,0
DA:210,0
DA:211,0
DA:213,0
DA:215,0
DA:216,0
DA:217,0
DA:218,0
DA:219,0
DA:220,0
DA:221,0
DA:222,0
DA:223,0
DA:224,0
DA:225,0
DA:226,0
DA:227,0
DA:228,0
DA:229,0
DA:231,0
DA:232,0
DA:233,0
DA:235,0
DA:236,0
DA:237,0
DA:238,0
DA:240,0
DA:242,0
DA:243,0
DA:244,0
DA:245,0
DA:247,0
DA:249,0
DA:250,0
DA:251,0
DA:252,0
DA:253,0
DA:254,0
DA:255,0
DA:256,0
DA:257,0
DA:258,0
DA:259,0
DA:260,0
DA:261,0
DA:262,0
DA:263,0
DA:265,0
DA:266,0
DA:267,0
DA:269,0
DA:270,0
DA:271,0
DA:272,0
DA:274,0
DA:276,0
DA:277,0
DA:278,0
DA:279,0
DA:281,0
DA:282,0
DA:283,0
DA:285,0
DA:286,0
DA:287,0
DA:288,0
DA:289,0
DA:290,0
DA:291,0
DA:292,0
DA:293,0
DA:294,0
DA:295,0
DA:296,0
DA:297,0
DA:298,0
DA:299,0
DA:301,0
DA:302,0
DA:303,0
DA:305,0
DA:306,0
DA:307,0
DA:308,0
DA:310,0
DA:312,0
DA:313,0
DA:314,0
DA:315,0
DA:317,0
DA:318,0
DA:319,0
DA:320,0
DA:321,0
DA:322,0
DA:323,0
DA:325,0
DA:326,0
DA:327,0
DA:329,0
DA:332,0
DA:334,0
DA:336,0
DA:337,0
DA:338,0
DA:339,0
DA:341,0
DA:342,0
DA:343,0
DA:344,0
DA:345,0
DA:346,0
DA:347,0
DA:348,0
DA:349,0
DA:350,0
DA:351,0
DA:352,0
DA:353,0
DA:354,0
DA:356,0
DA:357,0
DA:358,0
DA:360,0
DA:361,0
DA:362,0
DA:363,0
DA:365,0
DA:367,0
DA:368,0
DA:370,0
DA:371,0
DA:372,0
DA:373,0
DA:374,0
DA:375,0
DA:376,0
DA:377,0
DA:378,0
DA:379,0
DA:380,0
DA:381,0
DA:382,0
DA:383,0
DA:384,0
DA:386,0
DA:387,0
DA:388,0
DA:389,0
DA:390,0
DA:391,0
DA:392,0
DA:393,0
DA:394,0
DA:395,0
DA:397,0
DA:398,0
DA:399,0
DA:400,0
DA:402,0
DA:404,0
DA:405,0
DA:406,0
DA:408,0
DA:409,0
DA:410,0
DA:411,0
DA:412,0
DA:413,0
DA:414,0
DA:415,0
DA:417,0
DA:418,0
DA:419,0
DA:421,0
DA:422,0
DA:423,0
DA:424,0
DA:425,0
DA:426,0
DA:427,0
DA:428,0
DA:429,0
DA:430,0
DA:431,0
DA:432,0
DA:433,0
DA:435,0
DA:436,0
DA:438,0
DA:439,0
DA:440,0
DA:441,0
DA:443,0
DA:445,0
DA:446,0
DA:447,0
DA:449,0
DA:450,0
DA:451,0
DA:452,0
DA:453,0
DA:454,0
DA:455,0
DA:456,0
DA:458,0
DA:459,0
DA:460,0
DA:461,0
DA:462,0
DA:463,0
DA:464,0
DA:465,0
DA:466,0
DA:467,0
DA:468,0
DA:469,0
DA:470,0
DA:471,0
DA:474,0
DA:475,0
DA:477,0
DA:478,0
DA:479,0
DA:480,0
DA:481,0
DA:482,0
DA:483,0
DA:484,0
DA:486,0
DA:487,0
DA:489,0
DA:491,0
DA:493,0
DA:494,0
DA:495,0
DA:496,0
DA:498,0
DA:499,0
DA:500,0
DA:501,0
DA:502,0
DA:503,0
DA:504,0
DA:506,0
DA:507,0
DA:508,0
DA:509,0
DA:510,0
DA:511,0
DA:512,0
DA:513,0
DA:514,0
DA:515,0
DA:516,0
DA:517,0
DA:518,0
DA:519,0
DA:521,0
DA:522,0
DA:524,0
DA:525,0
DA:526,0
DA:527,0
DA:529,0
DA:531,0
DA:532,0
DA:533,0
DA:534,0
DA:536,0
DA:537,0
DA:538,0
DA:539,0
DA:540,0
DA:541,0
DA:542,0
DA:543,0
DA:544,0
DA:545,0
DA:546,0
DA:547,0
DA:548,0
DA:549,0
DA:551,0
DA:552,0
DA:553,0
DA:554,0
DA:555,0
DA:556,0
DA:557,0
DA:558,0
DA:559,0
DA:561,0
DA:563,0
DA:564,0
DA:565,0
DA:566,0
DA:568,0
DA:569,0
DA:570,0
DA:571,0
DA:573,0
DA:575,0
DA:576,0
DA:577,0
DA:578,0
DA:579,0
DA:580,0
DA:581,0
DA:582,0
DA:583,0
DA:584,0
DA:585,0
DA:586,0
DA:587,0
DA:588,0
DA:589,0
DA:590,0
DA:591,0
DA:592,0
DA:593,0
DA:594,0
DA:595,0
DA:596,0
DA:597,0
DA:598,0
DA:599,0
DA:600,0
DA:601,0
DA:602,0
DA:603,0
DA:604,0
DA:605,0
DA:606,0
DA:607,0
DA:608,0
DA:609,0
DA:610,0
DA:611,0
DA:612,0
DA:613,0
DA:614,0
DA:615,0
DA:616,0
DA:617,0
DA:618,0
DA:619,0
DA:620,0
DA:624,0
DA:625,0
DA:626,0
DA:629,0
DA:630,0
DA:631,0
DA:632,0
DA:633,0
DA:634,0
DA:635,0
DA:636,0
DA:637,0
DA:638,0
DA:639,0
DA:640,0
DA:641,0
DA:642,0
DA:643,0
DA:644,0
DA:645,0
DA:646,0
DA:647,0
DA:648,0
DA:650,0
DA:651,0
DA:652,0
DA:653,0
DA:654,0
DA:655,0
DA:657,0
DA:658,0
DA:660,0
DA:663,0
DA:664,0
DA:666,0
DA:667,0
DA:668,0
DA:669,0
DA:670,0
DA:672,0
DA:674,0
DA:675,0
DA:676,0
DA:677,0
DA:679,0
DA:680,0
DA:682,0
DA:683,0
DA:684,0
DA:685,0
DA:687,0
DA:688,0
DA:689,0
DA:693,0
DA:694,0
DA:697,0
DA:698,0
DA:700,0
DA:701,0
DA:702,0
DA:707,0
DA:708,0
BRF:0
BRH:0
LF:597
LH:0
end_of_record
SF:/mnt/f/Node/hivellm/synap/synap-server/src/auth/acl.rs
FN:51,_RINvMNtNtCsitBd8PkZ0O7_12synap_server4auth3aclNtB3_7AclRule13authenticatedpEB7_
FN:39,_RINvMNtNtCsitBd8PkZ0O7_12synap_server4auth3aclNtB3_7AclRule6publicpEB7_
FN:131,_RINvMs_NtNtCsitBd8PkZ0O7_12synap_server4auth3aclNtB5_3Acl8add_rulepEB9_
FN:67,_RNvMNtNtCsitBd8PkZ0O7_12synap_server4auth3aclNtB2_7AclRule12check_access
FN:195,_RNvMs_NtNtCsitBd8PkZ0O7_12synap_server4auth3aclNtB4_3Acl10list_rules
FN:138,_RNvMs_NtNtCsitBd8PkZ0O7_12synap_server4auth3aclNtB4_3Acl11remove_rule
FN:144,_RNvMs_NtNtCsitBd8PkZ0O7_12synap_server4auth3aclNtB4_3Acl12check_access
FN:124,_RNvMs_NtNtCsitBd8PkZ0O7_12synap_server4auth3aclNtB4_3Acl3new
FN:201,_RNvXs0_NtNtCsitBd8PkZ0O7_12synap_server4auth3aclNtB5_3AclNtNtCsluXpZPV6FGj_4core7default7Default7default
FN:51,_RINvMNtNtCsitBd8PkZ0O7_12synap_server4auth3aclNtB3_7AclRule13authenticatedReECsb5JgWIr98E1_19auth_security_tests
FN:39,_RINvMNtNtCsitBd8PkZ0O7_12synap_server4auth3aclNtB3_7AclRule6publicReECsb5JgWIr98E1_19auth_security_tests
FN:131,_RINvMs_NtNtCsitBd8PkZ0O7_12synap_server4auth3aclNtB5_3Acl8add_ruleReECsb5JgWIr98E1_19auth_security_tests
FN:51,_RINvMNtNtCsfrV5S290jXb_12synap_server4auth3aclNtB3_7AclRule13authenticatedReEB7_
FN:39,_RINvMNtNtCsfrV5S290jXb_12synap_server4auth3aclNtB3_7AclRule6publicReEB7_
FN:131,_RINvMs_NtNtCsfrV5S290jXb_12synap_server4auth3aclNtB5_3Acl8add_ruleReEB9_
FN:67,_RNvMNtNtCsfrV5S290jXb_12synap_server4auth3aclNtB2_7AclRule12check_access
FN:144,_RNvMs_NtNtCsfrV5S290jXb_12synap_server4auth3aclNtB4_3Acl12check_access
FN:124,_RNvMs_NtNtCsfrV5S290jXb_12synap_server4auth3aclNtB4_3Acl3new
FN:195,_RNvMs_NtNtCsfrV5S290jXb_12synap_server4auth3aclNtB4_3Acl10list_rules
FN:138,_RNvMs_NtNtCsfrV5S290jXb_12synap_server4auth3aclNtB4_3Acl11remove_rule
FN:201,_RNvXs0_NtNtCsfrV5S290jXb_12synap_server4auth3aclNtB5_3AclNtNtCsluXpZPV6FGj_4core7default7Default7default
FN:213,_RNvNtNtNtCsfrV5S290jXb_12synap_server4auth3acl5testss_16test_public_rule
FN:240,_RNvNtNtNtCsfrV5S290jXb_12synap_server4auth3acl5testss_21test_acl_check_access
FN:222,_RNvNtNtNtCsfrV5S290jXb_12synap_server4auth3acl5testss_23test_authenticated_rule
FNDA:0,_RINvMNtNtCsitBd8PkZ0O7_12synap_server4auth3aclNtB3_7AclRule13authenticatedpEB7_
FNDA:0,_RINvMNtNtCsitBd8PkZ0O7_12synap_server4auth3aclNtB3_7AclRule6publicpEB7_
FNDA:0,_RINvMs_NtNtCsitBd8PkZ0O7_12synap_server4auth3aclNtB5_3Acl8add_rulepEB9_
FNDA:11,_RNvMNtNtCsitBd8PkZ0O7_12synap_server4auth3aclNtB2_7AclRule12check_access
FNDA:0,_RNvMs_NtNtCsitBd8PkZ0O7_12synap_server4auth3aclNtB4_3Acl10list_rules
FNDA:0,_RNvMs_NtNtCsitBd8PkZ0O7_12synap_server4auth3aclNtB4_3Acl11remove_rule
FNDA:12,_RNvMs_NtNtCsitBd8PkZ0O7_12synap_server4auth3aclNtB4_3Acl12check_access
FNDA:6,_RNvMs_NtNtCsitBd8PkZ0O7_12synap_server4auth3aclNtB4_3Acl3new
FNDA:0,_RNvXs0_NtNtCsitBd8PkZ0O7_12synap_server4auth3aclNtB5_3AclNtNtCsluXpZPV6FGj_4core7default7Default7default
FNDA:5,_RINvMNtNtCsitBd8PkZ0O7_12synap_server4auth3aclNtB3_7AclRule13authenticatedReECsb5JgWIr98E1_19auth_security_tests
FNDA:1,_RINvMNtNtCsitBd8PkZ0O7_12synap_server4auth3aclNtB3_7AclRule6publicReECsb5JgWIr98E1_19auth_security_tests
FNDA:6,_RINvMs_NtNtCsitBd8PkZ0O7_12synap_server4auth3aclNtB5_3Acl8add_ruleReECsb5JgWIr98E1_19auth_security_tests
FNDA:4,_RINvMNtNtCsfrV5S290jXb_12synap_server4auth3aclNtB3_7AclRule13authenticatedReEB7_
FNDA:2,_RINvMNtNtCsfrV5S290jXb_12synap_server4auth3aclNtB3_7AclRule6publicReEB7_
FNDA:2,_RINvMs_NtNtCsfrV5S290jXb_12synap_server4auth3aclNtB5_3Acl8add_ruleReEB9_
FNDA:12,_RNvMNtNtCsfrV5S290jXb_12synap_server4auth3aclNtB2_7AclRule12check_access
FNDA:4,_RNvMs_NtNtCsfrV5S290jXb_12synap_server4auth3aclNtB4_3Acl12check_access
FNDA:2,_RNvMs_NtNtCsfrV5S290jXb_12synap_server4auth3aclNtB4_3Acl3new
FNDA:0,_RNvMs_NtNtCsfrV5S290jXb_12synap_server4auth3aclNtB4_3Acl10list_rules
FNDA:0,_RNvMs_NtNtCsfrV5S290jXb_12synap_server4auth3aclNtB4_3Acl11remove_rule
FNDA:0,_RNvXs0_NtNtCsfrV5S290jXb_12synap_server4auth3aclNtB5_3AclNtNtCsluXpZPV6FGj_4core7default7Default7default
FNDA:2,_RNvNtNtNtCsfrV5S290jXb_12synap_server4auth3acl5testss_16test_public_rule
FNDA:2,_RNvNtNtNtCsfrV5S290jXb_12synap_server4auth3acl5testss_21test_acl_check_access
FNDA:2,_RNvNtNtNtCsfrV5S290jXb_12synap_server4auth3acl5testss_23test_authenticated_rule
FNF:12
FNH:9
DA:39,3
DA:40,3
DA:41,3
DA:42,3
DA:43,3
DA:44,3
DA:45,3
DA:46,3
DA:47,3
DA:48,3
DA:51,9
DA:52,9
DA:53,9
DA:54,9
DA:55,9
DA:56,9
DA:57,9
DA:58,9
DA:59,9
DA:60,9
DA:61,9
DA:62,9
DA:63,9
DA:64,9
DA:67,23
DA:69,23
DA:70,6
DA:71,17
DA:74,17
DA:75,2
DA:76,15
DA:79,15
DA:80,0
DA:81,15
DA:84,15
DA:85,5
DA:86,10
DA:89,10
DA:90,0
DA:91,0
DA:92,0
DA:93,0
DA:95,0
DA:97,10
DA:100,10
DA:101,10
DA:102,10
DA:103,10
DA:104,0
DA:105,0
DA:106,0
DA:107,0
DA:112,10
DA:113,23
DA:124,8
DA:125,8
DA:126,8
DA:127,8
DA:128,8
DA:131,8
DA:132,8
DA:133,8
DA:134,8
DA:135,8
DA:138,0
DA:139,0
DA:140,0
DA:141,0
DA:144,16
DA:145,16
DA:146,16
DA:147,16
DA:148,16
DA:149,16
DA:150,16
DA:151,16
DA:152,16
DA:153,16
DA:154,16
DA:155,0
DA:156,0
DA:157,0
DA:158,0
DA:163,16
DA:166,16
DA:167,11
DA:168,8
DA:169,3
DA:170,5
DA:173,8
DA:174,8
DA:175,8
DA:176,8
DA:177,0
DA:178,0
DA:179,0
DA:180,0
DA:184,8
DA:185,4
DA:186,4
DA:187,0
DA:188,4
DA:191,4
DA:192,16
DA:195,0
DA:196,0
DA:197,0
DA:201,0
DA:202,0
DA:203,0
DA:213,2
DA:214,2
DA:215,2
DA:217,2
DA:218,2
DA:219,2
DA:222,2
DA:223,2
DA:224,2
DA:226,2
DA:229,2
DA:230,2
DA:232,2
DA:233,2
DA:234,2
DA:236,2
DA:237,2
DA:240,2
DA:241,2
DA:244,2
DA:246,2
DA:247,2
DA:249,2
DA:253,2
DA:254,2
DA:255,2
DA:257,2
DA:258,2
DA:259,2
DA:261,2
DA:262,2
DA:263,2
BRF:0
BRH:0
LF:142
LH:113
end_of_record
SF:/mnt/f/Node/hivellm/synap/synap-server/src/auth/api_key.rs
FN:44,_RINvMNtNtCsitBd8PkZ0O7_12synap_server4auth7api_keyNtB3_6ApiKey8generateReECs91niLOAIw5X_21auth_middleware_tests
FN:143,_RINvMs_NtNtCsitBd8PkZ0O7_12synap_server4auth7api_keyNtB5_13ApiKeyManager6createReECs91niLOAIw5X_21auth_middleware_tests
FN:54,_RNCINvMNtNtCsitBd8PkZ0O7_12synap_server4auth7api_keyNtB5_6ApiKey8generateReE0Cs91niLOAIw5X_21auth_middleware_tests
FN:44,_RINvMNtNtCsitBd8PkZ0O7_12synap_server4auth7api_keyNtB3_6ApiKey8generatepEB7_
FN:143,_RINvMs_NtNtCsitBd8PkZ0O7_12synap_server4auth7api_keyNtB5_13ApiKeyManager6createpEB9_
FN:54,_RNCINvMNtNtCsitBd8PkZ0O7_12synap_server4auth7api_keyNtB5_6ApiKey8generatepE0B9_
FN:79,_RNCNvMNtNtCsitBd8PkZ0O7_12synap_server4auth7api_keyNtB4_6ApiKey12generate_key0B8_
FN:120,_RNCNvMNtNtCsitBd8PkZ0O7_12synap_server4auth7api_keyNtB4_6ApiKey14has_permission0B8_
FN:234,_RNCNvMs_NtNtCsitBd8PkZ0O7_12synap_server4auth7api_keyNtB6_13ApiKeyManager11set_enabled0Ba_
FN:250,_RNCNvMs_NtNtCsitBd8PkZ0O7_12synap_server4auth7api_keyNtB6_13ApiKeyManager15cleanup_expired0Ba_
FN:257,_RNCNvMs_NtNtCsitBd8PkZ0O7_12synap_server4auth7api_keyNtB6_13ApiKeyManager15cleanup_expireds_0Ba_
FN:174,_RNCNvMs_NtNtCsitBd8PkZ0O7_12synap_server4auth7api_keyNtB6_13ApiKeyManager6verify0Ba_
FN:182,_RNCNvMs_NtNtCsitBd8PkZ0O7_12synap_server4auth7api_keyNtB6_13ApiKeyManager6verifys_0Ba_
FN:73,_RNvMNtNtCsitBd8PkZ0O7_12synap_server4auth7api_keyNtB2_6ApiKey12generate_key
FN:104,_RNvMNtNtCsitBd8PkZ0O7_12synap_server4auth7api_keyNtB2_6ApiKey13is_ip_allowed
FN:119,_RNvMNtNtCsitBd8PkZ0O7_12synap_server4auth7api_keyNtB2_6ApiKey14has_permission
FN:89,_RNvMNtNtCsitBd8PkZ0O7_12synap_server4auth7api_keyNtB2_6ApiKey8is_valid
FN:113,_RNvMNtNtCsitBd8PkZ0O7_12synap_server4auth7api_keyNtB2_6ApiKey9mark_used
FN:228,_RNvMs_NtNtCsitBd8PkZ0O7_12synap_server4auth7api_keyNtB4_13ApiKeyManager11set_enabled
FN:241,_RNvMs_NtNtCsitBd8PkZ0O7_12synap_server4auth7api_keyNtB4_13ApiKeyManager15cleanup_expired
FN:204,_RNvMs_NtNtCsitBd8PkZ0O7_12synap_server4auth7api_keyNtB4_13ApiKeyManager3get
FN:134,_RNvMs_NtNtCsitBd8PkZ0O7_12synap_server4auth7api_keyNtB4_13ApiKeyManager3new
FN:209,_RNvMs_NtNtCsitBd8PkZ0O7_12synap_server4auth7api_keyNtB4_13ApiKeyManager4list
FN:214,_RNvMs_NtNtCsitBd8PkZ0O7_12synap_server4auth7api_keyNtB4_13ApiKeyManager6revoke
FN:166,_RNvMs_NtNtCsitBd8PkZ0O7_12synap_server4auth7api_keyNtB4_13ApiKeyManager6verify
FN:276,_RNvXs0_NtNtCsitBd8PkZ0O7_12synap_server4auth7api_keyNtB5_13ApiKeyManagerNtNtCsluXpZPV6FGj_4core7default7Default7default
FN:44,_RINvMNtNtCsitBd8PkZ0O7_12synap_server4auth7api_keyNtB3_6ApiKey8generateNtNtCsjftXE05v0h2_5alloc6string6StringECsb5JgWIr98E1_19auth_security_tests
FN:44,_RINvMNtNtCsitBd8PkZ0O7_12synap_server4auth7api_keyNtB3_6ApiKey8generateReECsb5JgWIr98E1_19auth_security_tests
FN:143,_RINvMs_NtNtCsitBd8PkZ0O7_12synap_server4auth7api_keyNtB5_13ApiKeyManager6createNtNtCsjftXE05v0h2_5alloc6string6StringECsb5JgWIr98E1_19auth_security_tests
FN:143,_RINvMs_NtNtCsitBd8PkZ0O7_12synap_server4auth7api_keyNtB5_13ApiKeyManager6createReECsb5JgWIr98E1_19auth_security_tests
FN:54,_RNCINvMNtNtCsitBd8PkZ0O7_12synap_server4auth7api_keyNtB5_6ApiKey8generateNtNtCsjftXE05v0h2_5alloc6string6StringE0Csb5JgWIr98E1_19auth_security_tests
FN:54,_RNCINvMNtNtCsitBd8PkZ0O7_12synap_server4auth7api_keyNtB5_6ApiKey8generateReE0Csb5JgWIr98E1_19auth_security_tests
FN:120,_RNCNvMNtNtCsfrV5S290jXb_12synap_server4auth7api_keyNtB4_6ApiKey14has_permission0B8_
FN:234,_RNCNvMs_NtNtCsfrV5S290jXb_12synap_server4auth7api_keyNtB6_13ApiKeyManager11set_enabled0Ba_
FN:250,_RNCNvMs_NtNtCsfrV5S290jXb_12synap_server4auth7api_keyNtB6_13ApiKeyManager15cleanup_expired0Ba_
FN:257,_RNCNvMs_NtNtCsfrV5S290jXb_12synap_server4auth7api_keyNtB6_13ApiKeyManager15cleanup_expireds_0Ba_
FN:119,_RNvMNtNtCsfrV5S290jXb_12synap_server4auth7api_keyNtB2_6ApiKey14has_permission
FN:228,_RNvMs_NtNtCsfrV5S290jXb_12synap_server4auth7api_keyNtB4_13ApiKeyManager11set_enabled
FN:241,_RNvMs_NtNtCsfrV5S290jXb_12synap_server4auth7api_keyNtB4_13ApiKeyManager15cleanup_expired
FN:209,_RNvMs_NtNtCsfrV5S290jXb_12synap_server4auth7api_keyNtB4_13ApiKeyManager4list
FN:276,_RNvXs0_NtNtCsfrV5S290jXb_12synap_server4auth7api_keyNtB5_13ApiKeyManagerNtNtCsluXpZPV6FGj_4core7default7Default7default
FN:44,_RINvMNtNtCsfrV5S290jXb_12synap_server4auth7api_keyNtB3_6ApiKey8generateReEB7_
FN:143,_RINvMs_NtNtCsfrV5S290jXb_12synap_server4auth7api_keyNtB5_13ApiKeyManager6createReEB9_
FN:54,_RNCINvMNtNtCsfrV5S290jXb_12synap_server4auth7api_keyNtB5_6ApiKey8generateReE0B9_
FN:79,_RNCNvMNtNtCsfrV5S290jXb_12synap_server4auth7api_keyNtB4_6ApiKey12generate_key0B8_
FN:174,_RNCNvMs_NtNtCsfrV5S290jXb_12synap_server4auth7api_keyNtB6_13ApiKeyManager6verify0Ba_
FN:182,_RNCNvMs_NtNtCsfrV5S290jXb_12synap_server4auth7api_keyNtB6_13ApiKeyManager6verifys_0Ba_
FN:73,_RNvMNtNtCsfrV5S290jXb_12synap_server4auth7api_keyNtB2_6ApiKey12generate_key
FN:104,_RNvMNtNtCsfrV5S290jXb_12synap_server4auth7api_keyNtB2_6ApiKey13is_ip_allowed
FN:89,_RNvMNtNtCsfrV5S290jXb_12synap_server4auth7api_keyNtB2_6ApiKey8is_valid
FN:113,_RNvMNtNtCsfrV5S290jXb_12synap_server4auth7api_keyNtB2_6ApiKey9mark_used
FN:204,_RNvMs_NtNtCsfrV5S290jXb_12synap_server4auth7api_keyNtB4_13ApiKeyManager3get
FN:134,_RNvMs_NtNtCsfrV5S290jXb_12synap_server4auth7api_keyNtB4_13ApiKeyManager3new
FN:214,_RNvMs_NtNtCsfrV5S290jXb_12synap_server4auth7api_keyNtB4_13ApiKeyManager6revoke
FN:166,_RNvMs_NtNtCsfrV5S290jXb_12synap_server4auth7api_keyNtB4_13ApiKeyManager6verify
FN:287,_RNvNtNtNtCsfrV5S290jXb_12synap_server4auth7api_key5testss_21test_generate_api_key
FN:303,_RNvNtNtNtCsfrV5S290jXb_12synap_server4auth7api_key5testss_23test_api_key_expiration
FN:313,_RNvNtNtNtCsfrV5S290jXb_12synap_server4auth7api_key5testss_27test_api_key_ip_restriction
FN:324,_RNvNtNtNtCsfrV5S290jXb_12synap_server4auth7api_key5testss_27test_api_key_manager_create
FN:361,_RNvNtNtNtCsfrV5S290jXb_12synap_server4auth7api_key5testss_27test_api_key_manager_revoke
FN:345,_RNvNtNtNtCsfrV5S290jXb_12synap_server4auth7api_key5testss_27test_api_key_manager_verify
FN:376,_RNvNtNtNtCsfrV5S290jXb_12synap_server4auth7api_key5testss_27test_api_key_usage_tracking
FNDA:3,_RINvMNtNtCsitBd8PkZ0O7_12synap_server4auth7api_keyNtB3_6ApiKey8generateReECs91niLOAIw5X_21auth_middleware_tests
FNDA:3,_RINvMs_NtNtCsitBd8PkZ0O7_12synap_server4auth7api_keyNtB5_13ApiKeyManager6createReECs91niLOAIw5X_21auth_middleware_tests
FNDA:0,_RNCINvMNtNtCsitBd8PkZ0O7_12synap_server4auth7api_keyNtB5_6ApiKey8generateReE0Cs91niLOAIw5X_21auth_middleware_tests
FNDA:0,_RINvMNtNtCsitBd8PkZ0O7_12synap_server4auth7api_keyNtB3_6ApiKey8generatepEB7_
FNDA:0,_RINvMs_NtNtCsitBd8PkZ0O7_12synap_server4auth7api_keyNtB5_13ApiKeyManager6createpEB9_
FNDA:0,_RNCINvMNtNtCsitBd8PkZ0O7_12synap_server4auth7api_keyNtB5_6ApiKey8generatepE0B9_
FNDA:3712,_RNCNvMNtNtCsitBd8PkZ0O7_12synap_server4auth7api_keyNtB4_6ApiKey12generate_key0B8_
FNDA:12,_RNCNvMNtNtCsitBd8PkZ0O7_12synap_server4auth7api_keyNtB4_6ApiKey14has_permission0B8_
FNDA:0,_RNCNvMs_NtNtCsitBd8PkZ0O7_12synap_server4auth7api_keyNtB6_13ApiKeyManager11set_enabled0Ba_
FNDA:0,_RNCNvMs_NtNtCsitBd8PkZ0O7_12synap_server4auth7api_keyNtB6_13ApiKeyManager15cleanup_expired0Ba_
FNDA:0,_RNCNvMs_NtNtCsitBd8PkZ0O7_12synap_server4auth7api_keyNtB6_13ApiKeyManager15cleanup_expireds_0Ba_
FNDA:2,_RNCNvMs_NtNtCsitBd8PkZ0O7_12synap_server4auth7api_keyNtB6_13ApiKeyManager6verify0Ba_
FNDA:0,_RNCNvMs_NtNtCsitBd8PkZ0O7_12synap_server4auth7api_keyNtB6_13ApiKeyManager6verifys_0Ba_
FNDA:116,_RNvMNtNtCsitBd8PkZ0O7_12synap_server4auth7api_keyNtB2_6ApiKey12generate_key
FNDA:19,_RNvMNtNtCsitBd8PkZ0O7_12synap_server4auth7api_keyNtB2_6ApiKey13is_ip_allowed
FNDA:5,_RNvMNtNtCsitBd8PkZ0O7_12synap_server4auth7api_keyNtB2_6ApiKey14has_permission
FNDA:22,_RNvMNtNtCsitBd8PkZ0O7_12synap_server4auth7api_keyNtB2_6ApiKey8is_valid
FNDA:18,_RNvMNtNtCsitBd8PkZ0O7_12synap_server4auth7api_keyNtB2_6ApiKey9mark_used
FNDA:2,_RNvMs_NtNtCsitBd8PkZ0O7_12synap_server4auth7api_keyNtB4_13ApiKeyManager11set_enabled
FNDA:0,_RNvMs_NtNtCsitBd8PkZ0O7_12synap_server4auth7api_keyNtB4_13ApiKeyManager15cleanup_expired
FNDA:2,_RNvMs_NtNtCsitBd8PkZ0O7_12synap_server4auth7api_keyNtB4_13ApiKeyManager3get
FNDA:14,_RNvMs_NtNtCsitBd8PkZ0O7_12synap_server4auth7api_keyNtB4_13ApiKeyManager3new
FNDA:2,_RNvMs_NtNtCsitBd8PkZ0O7_12synap_server4auth7api_keyNtB4_13ApiKeyManager4list
FNDA:1,_RNvMs_NtNtCsitBd8PkZ0O7_12synap_server4auth7api_keyNtB4_13ApiKeyManager6revoke
FNDA:22,_RNvMs_NtNtCsitBd8PkZ0O7_12synap_server4auth7api_keyNtB4_13ApiKeyManager6verify
FNDA:0,_RNvXs0_NtNtCsitBd8PkZ0O7_12synap_server4auth7api_keyNtB5_13ApiKeyManagerNtNtCsluXpZPV6FGj_4core7default7Default7default
FNDA:100,_RINvMNtNtCsitBd8PkZ0O7_12synap_server4auth7api_keyNtB3_6ApiKey8generateNtNtCsjftXE05v0h2_5alloc6string6StringECsb5JgWIr98E1_19auth_security_tests
FNDA:13,_RINvMNtNtCsitBd8PkZ0O7_12synap_server4auth7api_keyNtB3_6ApiKey8generateReECsb5JgWIr98E1_19auth_security_tests
FNDA:100,_RINvMs_NtNtCsitBd8PkZ0O7_12synap_server4auth7api_keyNtB5_13ApiKeyManager6createNtNtCsjftXE05v0h2_5alloc6string6StringECsb5JgWIr98E1_19auth_security_tests
FNDA:13,_RINvMs_NtNtCsitBd8PkZ0O7_12synap_server4auth7api_keyNtB5_13ApiKeyManager6createReECsb5JgWIr98E1_19auth_security_tests
FNDA:0,_RNCINvMNtNtCsitBd8PkZ0O7_12synap_server4auth7api_keyNtB5_6ApiKey8generateNtNtCsjftXE05v0h2_5alloc6string6StringE0Csb5JgWIr98E1_19auth_security_tests
FNDA:1,_RNCINvMNtNtCsitBd8PkZ0O7_12synap_server4auth7api_keyNtB5_6ApiKey8generateReE0Csb5JgWIr98E1_19auth_security_tests
FNDA:0,_RNCNvMNtNtCsfrV5S290jXb_12synap_server4auth7api_keyNtB4_6ApiKey14has_permission0B8_
FNDA:0,_RNCNvMs_NtNtCsfrV5S290jXb_12synap_server4auth7api_keyNtB6_13ApiKeyManager11set_enabled0Ba_
FNDA:0,_RNCNvMs_NtNtCsfrV5S290jXb_12synap_server4auth7api_keyNtB6_13ApiKeyManager15cleanup_expired0Ba_
FNDA:0,_RNCNvMs_NtNtCsfrV5S290jXb_12synap_server4auth7api_keyNtB6_13ApiKeyManager15cleanup_expireds_0Ba_
FNDA:0,_RNvMNtNtCsfrV5S290jXb_12synap_server4auth7api_keyNtB2_6ApiKey14has_permission
FNDA:0,_RNvMs_NtNtCsfrV5S290jXb_12synap_server4auth7api_keyNtB4_13ApiKeyManager11set_enabled
FNDA:0,_RNvMs_NtNtCsfrV5S290jXb_12synap_server4auth7api_keyNtB4_13ApiKeyManager15cleanup_expired
FNDA:0,_RNvMs_NtNtCsfrV5S290jXb_12synap_server4auth7api_keyNtB4_13ApiKeyManager4list
FNDA:0,_RNvXs0_NtNtCsfrV5S290jXb_12synap_server4auth7api_keyNtB5_13ApiKeyManagerNtNtCsluXpZPV6FGj_4core7default7Default7default
FNDA:14,_RINvMNtNtCsfrV5S290jXb_12synap_server4auth7api_keyNtB3_6ApiKey8generateReEB7_
FNDA:8,_RINvMs_NtNtCsfrV5S290jXb_12synap_server4auth7api_keyNtB5_13ApiKeyManager6createReEB9_
FNDA:4,_RNCINvMNtNtCsfrV5S290jXb_12synap_server4auth7api_keyNtB5_6ApiKey8generateReE0B9_
FNDA:448,_RNCNvMNtNtCsfrV5S290jXb_12synap_server4auth7api_keyNtB4_6ApiKey12generate_key0B8_
FNDA:2,_RNCNvMs_NtNtCsfrV5S290jXb_12synap_server4auth7api_keyNtB6_13ApiKeyManager6verify0Ba_
FNDA:0,_RNCNvMs_NtNtCsfrV5S290jXb_12synap_server4auth7api_keyNtB6_13ApiKeyManager6verifys_0Ba_
FNDA:14,_RNvMNtNtCsfrV5S290jXb_12synap_server4auth7api_keyNtB2_6ApiKey12generate_key
FNDA:16,_RNvMNtNtCsfrV5S290jXb_12synap_server4auth7api_keyNtB2_6ApiKey13is_ip_allowed
FNDA:18,_RNvMNtNtCsfrV5S290jXb_12synap_server4auth7api_keyNtB2_6ApiKey8is_valid
FNDA:12,_RNvMNtNtCsfrV5S290jXb_12synap_server4auth7api_keyNtB2_6ApiKey9mark_used
FNDA:8,_RNvMs_NtNtCsfrV5S290jXb_12synap_server4auth7api_keyNtB4_13ApiKeyManager3get
FNDA:8,_RNvMs_NtNtCsfrV5S290jXb_12synap_server4auth7api_keyNtB4_13ApiKeyManager3new
FNDA:2,_RNvMs_NtNtCsfrV5S290jXb_12synap_server4auth7api_keyNtB4_13ApiKeyManager6revoke
FNDA:14,_RNvMs_NtNtCsfrV5S290jXb_12synap_server4auth7api_keyNtB4_13ApiKeyManager6verify
FNDA:2,_RNvNtNtNtCsfrV5S290jXb_12synap_server4auth7api_key5testss_21test_generate_api_key
FNDA:2,_RNvNtNtNtCsfrV5S290jXb_12synap_server4auth7api_key5testss_23test_api_key_expiration
FNDA:2,_RNvNtNtNtCsfrV5S290jXb_12synap_server4auth7api_key5testss_27test_api_key_ip_restriction
FNDA:2,_RNvNtNtNtCsfrV5S290jXb_12synap_server4auth7api_key5testss_27test_api_key_manager_create
FNDA:2,_RNvNtNtNtCsfrV5S290jXb_12synap_server4auth7api_key5testss_27test_api_key_manager_revoke
FNDA:2,_RNvNtNtNtCsfrV5S290jXb_12synap_server4auth7api_key5testss_27test_api_key_manager_verify
FNDA:2,_RNvNtNtNtCsfrV5S290jXb_12synap_server4auth7api_key5testss_27test_api_key_usage_tracking
FNF:30
FNH:24
DA:44,130
DA:45,130
DA:46,130
DA:47,130
DA:48,130
DA:49,130
DA:50,130
DA:51,130
DA:52,130
DA:54,130
DA:56,130
DA:57,130
DA:58,130
DA:59,130
DA:60,130
DA:61,130
DA:62,130
DA:63,130
DA:64,130
DA:65,130
DA:66,130
DA:67,130
DA:68,130
DA:69,130
DA:70,130
DA:73,130
DA:77,130
DA:78,130
DA:79,4160
DA:80,4160
DA:81,4160
DA:82,4160
DA:83,130
DA:85,130
DA:86,130
DA:89,40
DA:90,40
DA:91,1
DA:92,39
DA:94,39
DA:95,5
DA:96,2
DA:97,3
DA:98,34
DA:100,37
DA:101,40
DA:104,35
DA:105,35
DA:106,29
DA:107,6
DA:109,6
DA:110,35
DA:113,30
DA:114,30
DA:115,30
DA:116,30
DA:119,5
DA:120,12
DA:121,5
DA:134,22
DA:135,22
DA:136,22
DA:137,22
DA:138,22
DA:139,22
DA:140,22
DA:143,124
DA:144,124
DA:145,124
DA:146,124
DA:147,124
DA:148,124
DA:149,124
DA:150,124
DA:151,124
DA:153,124
DA:155,124
DA:156,124
DA:159,124
DA:160,124
DA:162,124
DA:163,124
DA:166,36
DA:167,36
DA:170,32
DA:171,36
DA:172,36
DA:173,36
DA:174,36
DA:175,32
DA:179,32
DA:180,32
DA:181,32
DA:182,32
DA:184,32
DA:185,1
DA:186,1
DA:187,1
DA:188,31
DA:190,31
DA:191,1
DA:192,1
DA:193,1
DA:194,1
DA:195,30
DA:198,30
DA:200,30
DA:201,36
DA:204,10
DA:205,10
DA:206,10
DA:209,2
DA:210,2
DA:211,2
DA:214,3
DA:215,3
DA:217,3
DA:218,3
DA:220,3
DA:221,3
DA:223,0
DA:225,3
DA:228,2
DA:229,2
DA:231,2
DA:232,2
DA:233,2
DA:234,2
DA:236,2
DA:237,2
DA:238,2
DA:241,0
DA:242,0
DA:244,0
DA:245,0
DA:247,0
DA:248,0
DA:249,0
DA:250,0
DA:251,0
DA:252,0
DA:254,0
DA:256,0
DA:257,0
DA:258,0
DA:260,0
DA:261,0
DA:262,0
DA:263,0
DA:264,0
DA:267,0
DA:268,0
DA:269,0
DA:271,0
DA:272,0
DA:276,0
DA:277,0
DA:278,0
DA:287,2
DA:288,2
DA:290,2
DA:291,2
DA:292,2
DA:293,2
DA:296,2
DA:297,2
DA:298,2
DA:299,2
DA:300,2
DA:303,2
DA:304,2
DA:305,2
DA:308,2
DA:309,2
DA:310,2
DA:313,2
DA:314,2
DA:315,2
DA:317,2
DA:319,2
DA:320,2
DA:321,2
DA:324,2
DA:325,2
DA:326,2
DA:327,2
DA:329,2
DA:330,2
DA:331,2
DA:332,2
DA:334,2
DA:336,2
DA:337,2
DA:340,2
DA:341,2
DA:342,2
DA:345,2
DA:346,2
DA:347,2
DA:349,2
DA:352,2
DA:353,2
DA:356,2
DA:357,2
DA:358,2
DA:361,2
DA:362,2
DA:363,2
DA:365,2
DA:368,2
DA:369,2
DA:372,2
DA:373,2
DA:376,2
DA:377,2
DA:378,2
DA:380,2
DA:383,12
DA:384,10
DA:385,10
DA:388,2
DA:389,2
DA:390,2
DA:391,2
BRF:0
BRH:0
LF:232
LH:199
end_of_record
SF:/mnt/f/Node/hivellm/synap/synap-server/src/auth/middleware.rs
FN:49,_RNCNvMNtNtCsitBd8PkZ0O7_12synap_server4auth10middlewareNtB4_14AuthMiddleware5layer0B8_
FN:86,_RNCNvMNtNtCsitBd8PkZ0O7_12synap_server4auth10middlewareNtB4_14AuthMiddleware20authenticate_api_key0B8_
FN:92,_RNCNvMNtNtCsitBd8PkZ0O7_12synap_server4auth10middlewareNtB4_14AuthMiddleware20authenticate_api_keys_0B8_
FN:34,_RNvMNtNtCsitBd8PkZ0O7_12synap_server4auth10middlewareNtB2_14AuthMiddleware13get_client_ip
FN:122,_RNvMNtNtCsitBd8PkZ0O7_12synap_server4auth10middlewareNtB2_14AuthMiddleware18authenticate_basic
FN:78,_RNvMNtNtCsitBd8PkZ0O7_12synap_server4auth10middlewareNtB2_14AuthMiddleware20authenticate_api_key
FN:21,_RNvMNtNtCsitBd8PkZ0O7_12synap_server4auth10middlewareNtB2_14AuthMiddleware3new
FN:45,_RNvMNtNtCsitBd8PkZ0O7_12synap_server4auth10middlewareNtB2_14AuthMiddleware5layer
FN:86,_RNCNvMNtNtCsfrV5S290jXb_12synap_server4auth10middlewareNtB4_14AuthMiddleware20authenticate_api_key0B8_
FN:92,_RNCNvMNtNtCsfrV5S290jXb_12synap_server4auth10middlewareNtB4_14AuthMiddleware20authenticate_api_keys_0B8_
FN:49,_RNCNvMNtNtCsfrV5S290jXb_12synap_server4auth10middlewareNtB4_14AuthMiddleware5layer0B8_
FN:34,_RNvMNtNtCsfrV5S290jXb_12synap_server4auth10middlewareNtB2_14AuthMiddleware13get_client_ip
FN:122,_RNvMNtNtCsfrV5S290jXb_12synap_server4auth10middlewareNtB2_14AuthMiddleware18authenticate_basic
FN:78,_RNvMNtNtCsfrV5S290jXb_12synap_server4auth10middlewareNtB2_14AuthMiddleware20authenticate_api_key
FN:21,_RNvMNtNtCsfrV5S290jXb_12synap_server4auth10middlewareNtB2_14AuthMiddleware3new
FN:45,_RNvMNtNtCsfrV5S290jXb_12synap_server4auth10middlewareNtB2_14AuthMiddleware5layer
FN:162,_RNvNtNtNtCsfrV5S290jXb_12synap_server4auth10middleware5testss_18test_get_client_ip
FN:170,_RNvNtNtNtCsfrV5S290jXb_12synap_server4auth10middleware5testss_35test_basic_auth_credentials_parsing
FNDA:0,_RNCNvMNtNtCsitBd8PkZ0O7_12synap_server4auth10middlewareNtB4_14AuthMiddleware5layer0B8_
FNDA:0,_RNCNvMNtNtCsitBd8PkZ0O7_12synap_server4auth10middlewareNtB4_14AuthMiddleware20authenticate_api_key0B8_
FNDA:0,_RNCNvMNtNtCsitBd8PkZ0O7_12synap_server4auth10middlewareNtB4_14AuthMiddleware20authenticate_api_keys_0B8_
FNDA:0,_RNvMNtNtCsitBd8PkZ0O7_12synap_server4auth10middlewareNtB2_14AuthMiddleware13get_client_ip
FNDA:0,_RNvMNtNtCsitBd8PkZ0O7_12synap_server4auth10middlewareNtB2_14AuthMiddleware18authenticate_basic
FNDA:0,_RNvMNtNtCsitBd8PkZ0O7_12synap_server4auth10middlewareNtB2_14AuthMiddleware20authenticate_api_key
FNDA:0,_RNvMNtNtCsitBd8PkZ0O7_12synap_server4auth10middlewareNtB2_14AuthMiddleware3new
FNDA:0,_RNvMNtNtCsitBd8PkZ0O7_12synap_server4auth10middlewareNtB2_14AuthMiddleware5layer
FNDA:0,_RNCNvMNtNtCsfrV5S290jXb_12synap_server4auth10middlewareNtB4_14AuthMiddleware20authenticate_api_key0B8_
FNDA:0,_RNCNvMNtNtCsfrV5S290jXb_12synap_server4auth10middlewareNtB4_14AuthMiddleware20authenticate_api_keys_0B8_
FNDA:0,_RNCNvMNtNtCsfrV5S290jXb_12synap_server4auth10middlewareNtB4_14AuthMiddleware5layer0B8_
FNDA:0,_RNvMNtNtCsfrV5S290jXb_12synap_server4auth10middlewareNtB2_14AuthMiddleware13get_client_ip
FNDA:0,_RNvMNtNtCsfrV5S290jXb_12synap_server4auth10middlewareNtB2_14AuthMiddleware18authenticate_basic
FNDA:0,_RNvMNtNtCsfrV5S290jXb_12synap_server4auth10middlewareNtB2_14AuthMiddleware20authenticate_api_key
FNDA:0,_RNvMNtNtCsfrV5S290jXb_12synap_server4auth10middlewareNtB2_14AuthMiddleware3new
FNDA:0,_RNvMNtNtCsfrV5S290jXb_12synap_server4auth10middlewareNtB2_14AuthMiddleware5layer
FNDA:2,_RNvNtNtNtCsfrV5S290jXb_12synap_server4auth10middleware5testss_18test_get_client_ip
FNDA:2,_RNvNtNtNtCsfrV5S290jXb_12synap_server4auth10middleware5testss_35test_basic_auth_credentials_parsing
FNF:10
FNH:2
DA:21,0
DA:22,0
DA:23,0
DA:24,0
DA:25,0
DA:26,0
DA:27,0
DA:28,0
DA:29,0
DA:30,0
DA:31,0
DA:34,0
DA:36,0
DA:37,0
DA:38,0
DA:41,0
DA:42,0
DA:45,0
DA:46,0
DA:47,0
DA:48,0
DA:49,0
DA:50,0
DA:51,0
DA:54,0
DA:55,0
DA:56,0
DA:57,0
DA:60,0
DA:61,0
DA:62,0
DA:63,0
DA:66,0
DA:67,0
DA:68,0
DA:69,0
DA:72,0
DA:73,0
DA:74,0
DA:75,0
DA:78,0
DA:79,0
DA:80,0
DA:81,0
DA:82,0
DA:84,0
DA:85,0
DA:86,0
DA:88,0
DA:92,0
DA:93,0
DA:94,0
DA:95,0
DA:96,0
DA:97,0
DA:98,0
DA:100,0
DA:101,0
DA:104,0
DA:105,0
DA:106,0
DA:108,0
DA:109,0
DA:110,0
DA:111,0
DA:112,0
DA:113,0
DA:114,0
DA:115,0
DA:116,0
DA:118,0
DA:119,0
DA:122,0
DA:123,0
DA:124,0
DA:125,0
DA:126,0
DA:127,0
DA:128,0
DA:129,0
DA:132,0
DA:133,0
DA:136,0
DA:139,0
DA:140,0
DA:142,0
DA:144,0
DA:145,0
DA:146,0
DA:147,0
DA:148,0
DA:149,0
DA:150,0
DA:151,0
DA:153,0
DA:154,0
DA:162,2
DA:165,2
DA:166,2
DA:167,2
DA:170,2
DA:172,2
DA:173,2
DA:174,2
DA:175,2
DA:177,2
DA:179,2
DA:180,2
DA:181,2
DA:182,2
BRF:0
BRH:0
LF:113
LH:14
end_of_record
SF:/mnt/f/Node/hivellm/synap/synap-server/src/auth/mod.rs
FN:54,_RNCNvMNtCsitBd8PkZ0O7_12synap_server4authNtB4_11AuthContext14has_permission0B6_
FN:47,_RNvMNtCsitBd8PkZ0O7_12synap_server4authNtB2_11AuthContext14has_permission
FN:58,_RNvMNtCsitBd8PkZ0O7_12synap_server4authNtB2_11AuthContext16is_authenticated
FN:36,_RNvMNtCsitBd8PkZ0O7_12synap_server4authNtB2_11AuthContext9anonymous
FN:54,_RNCNvMNtCsfrV5S290jXb_12synap_server4authNtB4_11AuthContext14has_permission0B6_
FN:47,_RNvMNtCsfrV5S290jXb_12synap_server4authNtB2_11AuthContext14has_permission
FN:58,_RNvMNtCsfrV5S290jXb_12synap_server4authNtB2_11AuthContext16is_authenticated
FN:36,_RNvMNtCsfrV5S290jXb_12synap_server4authNtB2_11AuthContext9anonymous
FNDA:15,_RNCNvMNtCsitBd8PkZ0O7_12synap_server4authNtB4_11AuthContext14has_permission0B6_
FNDA:13,_RNvMNtCsitBd8PkZ0O7_12synap_server4authNtB2_11AuthContext14has_permission
FNDA:7,_RNvMNtCsitBd8PkZ0O7_12synap_server4authNtB2_11AuthContext16is_authenticated
FNDA:5,_RNvMNtCsitBd8PkZ0O7_12synap_server4authNtB2_11AuthContext9anonymous
FNDA:4,_RNCNvMNtCsfrV5S290jXb_12synap_server4authNtB4_11AuthContext14has_permission0B6_
FNDA:4,_RNvMNtCsfrV5S290jXb_12synap_server4authNtB2_11AuthContext14has_permission
FNDA:8,_RNvMNtCsfrV5S290jXb_12synap_server4authNtB2_11AuthContext16is_authenticated
FNDA:6,_RNvMNtCsfrV5S290jXb_12synap_server4authNtB2_11AuthContext9anonymous
FNF:4
FNH:4
DA:36,11
DA:37,11
DA:38,11
DA:39,11
DA:40,11
DA:41,11
DA:42,11
DA:43,11
DA:44,11
DA:47,17
DA:49,17
DA:50,3
DA:51,14
DA:54,19
DA:55,17
DA:58,15
DA:59,15
DA:60,15
BRF:0
BRH:0
LF:19
LH:19
end_of_record
SF:/mnt/f/Node/hivellm/synap/synap-server/src/auth/permissions.rs
FN:55,_RINvMs_NtNtCsitBd8PkZ0O7_12synap_server4auth11permissionsNtB5_4Role6custompEB9_
FN:21,_RNvMNtNtCsitBd8PkZ0O7_12synap_server4auth11permissionsNtB2_6Action8includes
FN:95,_RNvMs0_NtNtCsitBd8PkZ0O7_12synap_server4auth11permissionsNtB5_10Permission15matches_pattern
FN:86,_RNvMs0_NtNtCsitBd8PkZ0O7_12synap_server4auth11permissionsNtB5_10Permission7matches
FN:39,_RNvMs_NtNtCsitBd8PkZ0O7_12synap_server4auth11permissionsNtB4_4Role5admin
FN:47,_RNvMs_NtNtCsitBd8PkZ0O7_12synap_server4auth11permissionsNtB4_4Role8readonly
FN:78,_RINvMs0_NtNtCsitBd8PkZ0O7_12synap_server4auth11permissionsNtB6_10Permission3newReEBa_
FN:55,_RINvMs_NtNtCsitBd8PkZ0O7_12synap_server4auth11permissionsNtB5_4Role6customReECsb5JgWIr98E1_19auth_security_tests
FN:55,_RINvMs_NtNtCsfrV5S290jXb_12synap_server4auth11permissionsNtB5_4Role6custompEB9_
FN:156,_RNvNtNtNtCsfrV5S290jXb_12synap_server4auth11permissions5testss_15test_role_admin
FN:121,_RNvNtNtNtCsfrV5S290jXb_12synap_server4auth11permissions5testss_20test_action_includes
FN:140,_RNvNtNtNtCsfrV5S290jXb_12synap_server4auth11permissions5testss_24test_permission_wildcard
FN:132,_RNvNtNtNtCsfrV5S290jXb_12synap_server4auth11permissions5testss_27test_permission_exact_match
FN:148,_RNvNtNtNtCsfrV5S290jXb_12synap_server4auth11permissions5testss_31test_permission_prefix_wildcard
FN:78,_RINvMs0_NtNtCsfrV5S290jXb_12synap_server4auth11permissionsNtB6_10Permission3newReEBa_
FN:21,_RNvMNtNtCsfrV5S290jXb_12synap_server4auth11permissionsNtB2_6Action8includes
FN:95,_RNvMs0_NtNtCsfrV5S290jXb_12synap_server4auth11permissionsNtB5_10Permission15matches_pattern
FN:86,_RNvMs0_NtNtCsfrV5S290jXb_12synap_server4auth11permissionsNtB5_10Permission7matches
FN:39,_RNvMs_NtNtCsfrV5S290jXb_12synap_server4auth11permissionsNtB4_4Role5admin
FN:47,_RNvMs_NtNtCsfrV5S290jXb_12synap_server4auth11permissionsNtB4_4Role8readonly
FNDA:0,_RINvMs_NtNtCsitBd8PkZ0O7_12synap_server4auth11permissionsNtB5_4Role6custompEB9_
FNDA:34,_RNvMNtNtCsitBd8PkZ0O7_12synap_server4auth11permissionsNtB2_6Action8includes
FNDA:23,_RNvMs0_NtNtCsitBd8PkZ0O7_12synap_server4auth11permissionsNtB5_10Permission15matches_pattern
FNDA:34,_RNvMs0_NtNtCsitBd8PkZ0O7_12synap_server4auth11permissionsNtB5_10Permission7matches
FNDA:21,_RNvMs_NtNtCsitBd8PkZ0O7_12synap_server4auth11permissionsNtB4_4Role5admin
FNDA:21,_RNvMs_NtNtCsitBd8PkZ0O7_12synap_server4auth11permissionsNtB4_4Role8readonly
FNDA:61,_RINvMs0_NtNtCsitBd8PkZ0O7_12synap_server4auth11permissionsNtB6_10Permission3newReEBa_
FNDA:2,_RINvMs_NtNtCsitBd8PkZ0O7_12synap_server4auth11permissionsNtB5_4Role6customReECsb5JgWIr98E1_19auth_security_tests
FNDA:0,_RINvMs_NtNtCsfrV5S290jXb_12synap_server4auth11permissionsNtB5_4Role6custompEB9_
FNDA:2,_RNvNtNtNtCsfrV5S290jXb_12synap_server4auth11permissions5testss_15test_role_admin
FNDA:2,_RNvNtNtNtCsfrV5S290jXb_12synap_server4auth11permissions5testss_20test_action_includes
FNDA:2,_RNvNtNtNtCsfrV5S290jXb_12synap_server4auth11permissions5testss_24test_permission_wildcard
FNDA:2,_RNvNtNtNtCsfrV5S290jXb_12synap_server4auth11permissions5testss_27test_permission_exact_match
FNDA:2,_RNvNtNtNtCsfrV5S290jXb_12synap_server4auth11permissions5testss_31test_permission_prefix_wildcard
FNDA:30,_RINvMs0_NtNtCsfrV5S290jXb_12synap_server4auth11permissionsNtB6_10Permission3newReEBa_
FNDA:36,_RNvMNtNtCsfrV5S290jXb_12synap_server4auth11permissionsNtB2_6Action8includes
FNDA:20,_RNvMs0_NtNtCsfrV5S290jXb_12synap_server4auth11permissionsNtB5_10Permission15matches_pattern
FNDA:24,_RNvMs0_NtNtCsfrV5S290jXb_12synap_server4auth11permissionsNtB5_10Permission7matches
FNDA:10,_RNvMs_NtNtCsfrV5S290jXb_12synap_server4auth11permissionsNtB4_4Role5admin
FNDA:8,_RNvMs_NtNtCsfrV5S290jXb_12synap_server4auth11permissionsNtB4_4Role8readonly
FNF:12
FNH:12
DA:21,70
DA:22,70
DA:23,21
DA:24,0
DA:25,49
DA:27,70
DA:39,31
DA:40,31
DA:41,31
DA:42,31
DA:43,31
DA:44,31
DA:47,29
DA:48,29
DA:49,29
DA:50,29
DA:51,29
DA:52,29
DA:55,2
DA:56,2
DA:57,2
DA:58,2
DA:59,2
DA:60,2
DA:78,91
DA:79,91
DA:80,91
DA:81,91
DA:82,91
DA:83,91
DA:86,58
DA:87,58
DA:88,15
DA:89,43
DA:91,43
DA:92,58
DA:95,43
DA:97,43
DA:98,10
DA:99,33
DA:102,33
DA:103,8
DA:104,25
DA:107,25
DA:108,19
DA:109,19
DA:110,6
DA:112,6
DA:113,43
DA:121,2
DA:122,2
DA:123,2
DA:124,2
DA:125,2
DA:127,2
DA:128,2
DA:129,2
DA:132,2
DA:133,2
DA:134,2
DA:135,2
DA:136,2
DA:137,2
DA:140,2
DA:141,2
DA:142,2
DA:143,2
DA:144,2
DA:145,2
DA:148,2
DA:149,2
DA:150,2
DA:151,2
DA:152,2
DA:153,2
DA:156,2
DA:157,2
DA:158,2
DA:159,2
DA:160,2
BRF:0
BRH:0
LF:80
LH:79
end_of_record
SF:/mnt/f/Node/hivellm/synap/synap-server/src/auth/user.rs
FN:35,_RINvMNtNtCsitBd8PkZ0O7_12synap_server4auth4userNtB3_4User3newRNtNtCsjftXE05v0h2_5alloc6string6StringECs91niLOAIw5X_21auth_middleware_tests
FN:120,_RINvMs_NtNtCsitBd8PkZ0O7_12synap_server4auth4userNtB5_11UserManager11create_userReECs91niLOAIw5X_21auth_middleware_tests
FN:37,_RNCINvMNtNtCsitBd8PkZ0O7_12synap_server4auth4userNtB5_4User3newRNtNtCsjftXE05v0h2_5alloc6string6StringE0Cs91niLOAIw5X_21auth_middleware_tests
FN:120,_RINvMs_NtNtCsitBd8PkZ0O7_12synap_server4auth4userNtB5_11UserManager11create_userpEB9_
FN:35,_RINvMNtNtCsitBd8PkZ0O7_12synap_server4auth4userNtB3_4User3newReEB7_
FN:64,_RINvMNtNtCsitBd8PkZ0O7_12synap_server4auth4userNtB3_4User8add_roleReEB7_
FN:37,_RNCINvMNtNtCsitBd8PkZ0O7_12synap_server4auth4userNtB5_4User3newReE0B9_
FN:73,_RNCNvMNtNtCsitBd8PkZ0O7_12synap_server4auth4userNtB4_4User11remove_role0B8_
FN:59,_RNCNvMNtNtCsitBd8PkZ0O7_12synap_server4auth4userNtB4_4User15change_password0B8_
FN:152,_RNCNvMs_NtNtCsitBd8PkZ0O7_12synap_server4auth4userNtB6_11UserManager12authenticate0Ba_
FN:272,_RNCNvMs_NtNtCsitBd8PkZ0O7_12synap_server4auth4userNtB6_11UserManager13add_user_role0Ba_
FN:186,_RNCNvMs_NtNtCsitBd8PkZ0O7_12synap_server4auth4userNtB6_11UserManager15change_password0Ba_
FN:285,_RNCNvMs_NtNtCsitBd8PkZ0O7_12synap_server4auth4userNtB6_11UserManager16remove_user_role0Ba_
FN:199,_RNCNvMs_NtNtCsitBd8PkZ0O7_12synap_server4auth4userNtB6_11UserManager16set_user_enabled0Ba_
FN:72,_RNvMNtNtCsitBd8PkZ0O7_12synap_server4auth4userNtB2_4User11remove_role
FN:57,_RNvMNtNtCsitBd8PkZ0O7_12synap_server4auth4userNtB2_4User15change_password
FN:52,_RNvMNtNtCsitBd8PkZ0O7_12synap_server4auth4userNtB2_4User15verify_password
FN:77,_RNvMNtNtCsitBd8PkZ0O7_12synap_server4auth4userNtB2_4User17update_last_login
FN:253,_RNvMs_NtNtCsitBd8PkZ0O7_12synap_server4auth4userNtB4_11UserManager10list_roles
FN:230,_RNvMs_NtNtCsitBd8PkZ0O7_12synap_server4auth4userNtB4_11UserManager10list_users
FN:235,_RNvMs_NtNtCsitBd8PkZ0O7_12synap_server4auth4userNtB4_11UserManager11create_role
FN:247,_RNvMs_NtNtCsitBd8PkZ0O7_12synap_server4auth4userNtB4_11UserManager11delete_role
FN:174,_RNvMs_NtNtCsitBd8PkZ0O7_12synap_server4auth4userNtB4_11UserManager11delete_user
FN:145,_RNvMs_NtNtCsitBd8PkZ0O7_12synap_server4auth4userNtB4_11UserManager12authenticate
FN:258,_RNvMs_NtNtCsitBd8PkZ0O7_12synap_server4auth4userNtB4_11UserManager13add_user_role
FN:180,_RNvMs_NtNtCsitBd8PkZ0O7_12synap_server4auth4userNtB4_11UserManager15change_password
FN:279,_RNvMs_NtNtCsitBd8PkZ0O7_12synap_server4auth4userNtB4_11UserManager16remove_user_role
FN:193,_RNvMs_NtNtCsitBd8PkZ0O7_12synap_server4auth4userNtB4_11UserManager16set_user_enabled
FN:105,_RNvMs_NtNtCsitBd8PkZ0O7_12synap_server4auth4userNtB4_11UserManager19ensure_admin_exists
FN:206,_RNvMs_NtNtCsitBd8PkZ0O7_12synap_server4auth4userNtB4_11UserManager20get_user_permissions
FN:91,_RNvMs_NtNtCsitBd8PkZ0O7_12synap_server4auth4userNtB4_11UserManager3new
FN:242,_RNvMs_NtNtCsitBd8PkZ0O7_12synap_server4auth4userNtB4_11UserManager8get_role
FN:169,_RNvMs_NtNtCsitBd8PkZ0O7_12synap_server4auth4userNtB4_11UserManager8get_user
FN:293,_RNvXs0_NtNtCsitBd8PkZ0O7_12synap_server4auth4userNtB5_11UserManagerNtNtCsluXpZPV6FGj_4core7default7Default7default
FN:35,_RINvMNtNtCsitBd8PkZ0O7_12synap_server4auth4userNtB3_4User3newRNtNtCsjftXE05v0h2_5alloc6string6StringECsb5JgWIr98E1_19auth_security_tests
FN:120,_RINvMs_NtNtCsitBd8PkZ0O7_12synap_server4auth4userNtB5_11UserManager11create_userReECsb5JgWIr98E1_19auth_security_tests
FN:37,_RNCINvMNtNtCsitBd8PkZ0O7_12synap_server4auth4userNtB5_4User3newRNtNtCsjftXE05v0h2_5alloc6string6StringE0Csb5JgWIr98E1_19auth_security_tests
FN:365,_RNvNtNtNtCsfrV5S290jXb_12synap_server4auth4user5testss_15test_user_roles
FN:303,_RNvNtNtNtCsfrV5S290jXb_12synap_server4auth4user5testss_16test_create_user
FN:313,_RNvNtNtNtCsfrV5S290jXb_12synap_server4auth4user5testss_20test_change_password
FN:323,_RNvNtNtNtCsfrV5S290jXb_12synap_server4auth4user5testss_24test_user_manager_create
FN:332,_RNvNtNtNtCsfrV5S290jXb_12synap_server4auth4user5testss_30test_user_manager_authenticate
FN:350,_RNvNtNtNtCsfrV5S290jXb_12synap_server4auth4user5testss_30test_user_manager_disable_user
FN:72,_RNvMNtNtCsfrV5S290jXb_12synap_server4auth4userNtB2_4User11remove_role
FN:57,_RNvMNtNtCsfrV5S290jXb_12synap_server4auth4userNtB2_4User15change_password
FN:52,_RNvMNtNtCsfrV5S290jXb_12synap_server4auth4userNtB2_4User15verify_password
FN:77,_RNvMNtNtCsfrV5S290jXb_12synap_server4auth4userNtB2_4User17update_last_login
FN:145,_RNvMs_NtNtCsfrV5S290jXb_12synap_server4auth4userNtB4_11UserManager12authenticate
FN:258,_RNvMs_NtNtCsfrV5S290jXb_12synap_server4auth4userNtB4_11UserManager13add_user_role
FN:279,_RNvMs_NtNtCsfrV5S290jXb_12synap_server4auth4userNtB4_11UserManager16remove_user_role
FN:193,_RNvMs_NtNtCsfrV5S290jXb_12synap_server4auth4userNtB4_11UserManager16set_user_enabled
FN:91,_RNvMs_NtNtCsfrV5S290jXb_12synap_server4auth4userNtB4_11UserManager3new
FN:169,_RNvMs_NtNtCsfrV5S290jXb_12synap_server4auth4userNtB4_11UserManager8get_user
FN:186,_RNCNvMs_NtNtCsfrV5S290jXb_12synap_server4auth4userNtB6_11UserManager15change_password0Ba_
FN:253,_RNvMs_NtNtCsfrV5S290jXb_12synap_server4auth4userNtB4_11UserManager10list_roles
FN:230,_RNvMs_NtNtCsfrV5S290jXb_12synap_server4auth4userNtB4_11UserManager10list_users
FN:235,_RNvMs_NtNtCsfrV5S290jXb_12synap_server4auth4userNtB4_11UserManager11create_role
FN:247,_RNvMs_NtNtCsfrV5S290jXb_12synap_server4auth4userNtB4_11UserManager11delete_role
FN:174,_RNvMs_NtNtCsfrV5S290jXb_12synap_server4auth4userNtB4_11UserManager11delete_user
FN:180,_RNvMs_NtNtCsfrV5S290jXb_12synap_server4auth4userNtB4_11UserManager15change_password
FN:105,_RNvMs_NtNtCsfrV5S290jXb_12synap_server4auth4userNtB4_11UserManager19ensure_admin_exists
FN:206,_RNvMs_NtNtCsfrV5S290jXb_12synap_server4auth4userNtB4_11UserManager20get_user_permissions
FN:242,_RNvMs_NtNtCsfrV5S290jXb_12synap_server4auth4userNtB4_11UserManager8get_role
FN:293,_RNvXs0_NtNtCsfrV5S290jXb_12synap_server4auth4userNtB5_11UserManagerNtNtCsluXpZPV6FGj_4core7default7Default7default
FN:35,_RINvMNtNtCsfrV5S290jXb_12synap_server4auth4userNtB3_4User3newRNtNtCsjftXE05v0h2_5alloc6string6StringEB7_
FN:35,_RINvMNtNtCsfrV5S290jXb_12synap_server4auth4userNtB3_4User3newReEB7_
FN:64,_RINvMNtNtCsfrV5S290jXb_12synap_server4auth4userNtB3_4User8add_roleReEB7_
FN:120,_RINvMs_NtNtCsfrV5S290jXb_12synap_server4auth4userNtB5_11UserManager11create_userReEB9_
FN:37,_RNCINvMNtNtCsfrV5S290jXb_12synap_server4auth4userNtB5_4User3newRNtNtCsjftXE05v0h2_5alloc6string6StringE0B9_
FN:37,_RNCINvMNtNtCsfrV5S290jXb_12synap_server4auth4userNtB5_4User3newReE0B9_
FN:73,_RNCNvMNtNtCsfrV5S290jXb_12synap_server4auth4userNtB4_4User11remove_role0B8_
FN:59,_RNCNvMNtNtCsfrV5S290jXb_12synap_server4auth4userNtB4_4User15change_password0B8_
FN:152,_RNCNvMs_NtNtCsfrV5S290jXb_12synap_server4auth4userNtB6_11UserManager12authenticate0Ba_
FN:272,_RNCNvMs_NtNtCsfrV5S290jXb_12synap_server4auth4userNtB6_11UserManager13add_user_role0Ba_
FN:285,_RNCNvMs_NtNtCsfrV5S290jXb_12synap_server4auth4userNtB6_11UserManager16remove_user_role0Ba_
FN:199,_RNCNvMs_NtNtCsfrV5S290jXb_12synap_server4auth4userNtB6_11UserManager16set_user_enabled0Ba_
FNDA:5,_RINvMNtNtCsitBd8PkZ0O7_12synap_server4auth4userNtB3_4User3newRNtNtCsjftXE05v0h2_5alloc6string6StringECs91niLOAIw5X_21auth_middleware_tests
FNDA:5,_RINvMs_NtNtCsitBd8PkZ0O7_12synap_server4auth4userNtB5_11UserManager11create_userReECs91niLOAIw5X_21auth_middleware_tests
FNDA:0,_RNCINvMNtNtCsitBd8PkZ0O7_12synap_server4auth4userNtB5_4User3newRNtNtCsjftXE05v0h2_5alloc6string6StringE0Cs91niLOAIw5X_21auth_middleware_tests
FNDA:0,_RINvMs_NtNtCsitBd8PkZ0O7_12synap_server4auth4userNtB5_11UserManager11create_userpEB9_
FNDA:0,_RINvMNtNtCsitBd8PkZ0O7_12synap_server4auth4userNtB3_4User3newReEB7_
FNDA:4,_RINvMNtNtCsitBd8PkZ0O7_12synap_server4auth4userNtB3_4User8add_roleReEB7_
FNDA:0,_RNCINvMNtNtCsitBd8PkZ0O7_12synap_server4auth4userNtB5_4User3newReE0B9_
FNDA:1,_RNCNvMNtNtCsitBd8PkZ0O7_12synap_server4auth4userNtB4_4User11remove_role0B8_
FNDA:0,_RNCNvMNtNtCsitBd8PkZ0O7_12synap_server4auth4userNtB4_4User15change_password0B8_
FNDA:1,_RNCNvMs_NtNtCsitBd8PkZ0O7_12synap_server4auth4userNtB6_11UserManager12authenticate0Ba_
FNDA:0,_RNCNvMs_NtNtCsitBd8PkZ0O7_12synap_server4auth4userNtB6_11UserManager13add_user_role0Ba_
FNDA:0,_RNCNvMs_NtNtCsitBd8PkZ0O7_12synap_server4auth4userNtB6_11UserManager15change_password0Ba_
FNDA:0,_RNCNvMs_NtNtCsitBd8PkZ0O7_12synap_server4auth4userNtB6_11UserManager16remove_user_role0Ba_
FNDA:0,_RNCNvMs_NtNtCsitBd8PkZ0O7_12synap_server4auth4userNtB6_11UserManager16set_user_enabled0Ba_
FNDA:1,_RNvMNtNtCsitBd8PkZ0O7_12synap_server4auth4userNtB2_4User11remove_role
FNDA:1,_RNvMNtNtCsitBd8PkZ0O7_12synap_server4auth4userNtB2_4User15change_password
FNDA:25,_RNvMNtNtCsitBd8PkZ0O7_12synap_server4auth4userNtB2_4User15verify_password
FNDA:20,_RNvMNtNtCsitBd8PkZ0O7_12synap_server4auth4userNtB2_4User17update_last_login
FNDA:0,_RNvMs_NtNtCsitBd8PkZ0O7_12synap_server4auth4userNtB4_11UserManager10list_roles
FNDA:0,_RNvMs_NtNtCsitBd8PkZ0O7_12synap_server4auth4userNtB4_11UserManager10list_users
FNDA:2,_RNvMs_NtNtCsitBd8PkZ0O7_12synap_server4auth4userNtB4_11UserManager11create_role
FNDA:1,_RNvMs_NtNtCsitBd8PkZ0O7_12synap_server4auth4userNtB4_11UserManager11delete_role
FNDA:2,_RNvMs_NtNtCsitBd8PkZ0O7_12synap_server4auth4userNtB4_11UserManager11delete_user
FNDA:27,_RNvMs_NtNtCsitBd8PkZ0O7_12synap_server4auth4userNtB4_11UserManager12authenticate
FNDA:5,_RNvMs_NtNtCsitBd8PkZ0O7_12synap_server4auth4userNtB4_11UserManager13add_user_role
FNDA:1,_RNvMs_NtNtCsitBd8PkZ0O7_12synap_server4auth4userNtB4_11UserManager15change_password
FNDA:1,_RNvMs_NtNtCsitBd8PkZ0O7_12synap_server4auth4userNtB4_11UserManager16remove_user_role
FNDA:1,_RNvMs_NtNtCsitBd8PkZ0O7_12synap_server4auth4userNtB4_11UserManager16set_user_enabled
FNDA:0,_RNvMs_NtNtCsitBd8PkZ0O7_12synap_server4auth4userNtB4_11UserManager19ensure_admin_exists
FNDA:1,_RNvMs_NtNtCsitBd8PkZ0O7_12synap_server4auth4userNtB4_11UserManager20get_user_permissions
FNDA:21,_RNvMs_NtNtCsitBd8PkZ0O7_12synap_server4auth4userNtB4_11UserManager3new
FNDA:3,_RNvMs_NtNtCsitBd8PkZ0O7_12synap_server4auth4userNtB4_11UserManager8get_role
FNDA:12,_RNvMs_NtNtCsitBd8PkZ0O7_12synap_server4auth4userNtB4_11UserManager8get_user
FNDA:0,_RNvXs0_NtNtCsitBd8PkZ0O7_12synap_server4auth4userNtB5_11UserManagerNtNtCsluXpZPV6FGj_4core7default7Default7default
FNDA:18,_RINvMNtNtCsitBd8PkZ0O7_12synap_server4auth4userNtB3_4User3newRNtNtCsjftXE05v0h2_5alloc6string6StringECsb5JgWIr98E1_19auth_security_tests
FNDA:19,_RINvMs_NtNtCsitBd8PkZ0O7_12synap_server4auth4userNtB5_11UserManager11create_userReECsb5JgWIr98E1_19auth_security_tests
FNDA:0,_RNCINvMNtNtCsitBd8PkZ0O7_12synap_server4auth4userNtB5_4User3newRNtNtCsjftXE05v0h2_5alloc6string6StringE0Csb5JgWIr98E1_19auth_security_tests
FNDA:2,_RNvNtNtNtCsfrV5S290jXb_12synap_server4auth4user5testss_15test_user_roles
FNDA:2,_RNvNtNtNtCsfrV5S290jXb_12synap_server4auth4user5testss_16test_create_user
FNDA:2,_RNvNtNtNtCsfrV5S290jXb_12synap_server4auth4user5testss_20test_change_password
FNDA:2,_RNvNtNtNtCsfrV5S290jXb_12synap_server4auth4user5testss_24test_user_manager_create
FNDA:2,_RNvNtNtNtCsfrV5S290jXb_12synap_server4auth4user5testss_30test_user_manager_authenticate
FNDA:2,_RNvNtNtNtCsfrV5S290jXb_12synap_server4auth4user5testss_30test_user_manager_disable_user
FNDA:2,_RNvMNtNtCsfrV5S290jXb_12synap_server4auth4userNtB2_4User11remove_role
FNDA:2,_RNvMNtNtCsfrV5S290jXb_12synap_server4auth4userNtB2_4User15change_password
FNDA:16,_RNvMNtNtCsfrV5S290jXb_12synap_server4auth4userNtB2_4User15verify_password
FNDA:4,_RNvMNtNtCsfrV5S290jXb_12synap_server4auth4userNtB2_4User17update_last_login
FNDA:10,_RNvMs_NtNtCsfrV5S290jXb_12synap_server4auth4userNtB4_11UserManager12authenticate
FNDA:2,_RNvMs_NtNtCsfrV5S290jXb_12synap_server4auth4userNtB4_11UserManager13add_user_role
FNDA:2,_RNvMs_NtNtCsfrV5S290jXb_12synap_server4auth4userNtB4_11UserManager16remove_user_role
FNDA:2,_RNvMs_NtNtCsfrV5S290jXb_12synap_server4auth4userNtB4_11UserManager16set_user_enabled
FNDA:8,_RNvMs_NtNtCsfrV5S290jXb_12synap_server4auth4userNtB4_11UserManager3new
FNDA:6,_RNvMs_NtNtCsfrV5S290jXb_12synap_server4auth4userNtB4_11UserManager8get_user
FNDA:0,_RNCNvMs_NtNtCsfrV5S290jXb_12synap_server4auth4userNtB6_11UserManager15change_password0Ba_
FNDA:0,_RNvMs_NtNtCsfrV5S290jXb_12synap_server4auth4userNtB4_11UserManager10list_roles
FNDA:0,_RNvMs_NtNtCsfrV5S290jXb_12synap_server4auth4userNtB4_11UserManager10list_users
FNDA:0,_RNvMs_NtNtCsfrV5S290jXb_12synap_server4auth4userNtB4_11UserManager11create_role
FNDA:0,_RNvMs_NtNtCsfrV5S290jXb_12synap_server4auth4userNtB4_11UserManager11delete_role
FNDA:0,_RNvMs_NtNtCsfrV5S290jXb_12synap_server4auth4userNtB4_11UserManager11delete_user
FNDA:0,_RNvMs_NtNtCsfrV5S290jXb_12synap_server4auth4userNtB4_11UserManager15change_password
FNDA:0,_RNvMs_NtNtCsfrV5S290jXb_12synap_server4auth4userNtB4_11UserManager19ensure_admin_exists
FNDA:0,_RNvMs_NtNtCsfrV5S290jXb_12synap_server4auth4userNtB4_11UserManager20get_user_permissions
FNDA:0,_RNvMs_NtNtCsfrV5S290jXb_12synap_server4auth4userNtB4_11UserManager8get_role
FNDA:0,_RNvXs0_NtNtCsfrV5S290jXb_12synap_server4auth4userNtB5_11UserManagerNtNtCsluXpZPV6FGj_4core7default7Default7default
FNDA:8,_RINvMNtNtCsfrV5S290jXb_12synap_server4auth4userNtB3_4User3newRNtNtCsjftXE05v0h2_5alloc6string6StringEB7_
FNDA:4,_RINvMNtNtCsfrV5S290jXb_12synap_server4auth4userNtB3_4User3newReEB7_
FNDA:2,_RINvMNtNtCsfrV5S290jXb_12synap_server4auth4userNtB3_4User8add_roleReEB7_
FNDA:8,_RINvMs_NtNtCsfrV5S290jXb_12synap_server4auth4userNtB5_11UserManager11create_userReEB9_
FNDA:0,_RNCINvMNtNtCsfrV5S290jXb_12synap_server4auth4userNtB5_4User3newRNtNtCsjftXE05v0h2_5alloc6string6StringE0B9_
FNDA:0,_RNCINvMNtNtCsfrV5S290jXb_12synap_server4auth4userNtB5_4User3newReE0B9_
FNDA:2,_RNCNvMNtNtCsfrV5S290jXb_12synap_server4auth4userNtB4_4User11remove_role0B8_
FNDA:0,_RNCNvMNtNtCsfrV5S290jXb_12synap_server4auth4userNtB4_4User15change_password0B8_
FNDA:2,_RNCNvMs_NtNtCsfrV5S290jXb_12synap_server4auth4userNtB6_11UserManager12authenticate0Ba_
FNDA:0,_RNCNvMs_NtNtCsfrV5S290jXb_12synap_server4auth4userNtB6_11UserManager13add_user_role0Ba_
FNDA:0,_RNCNvMs_NtNtCsfrV5S290jXb_12synap_server4auth4userNtB6_11UserManager16remove_user_role0Ba_
FNDA:0,_RNCNvMs_NtNtCsfrV5S290jXb_12synap_server4auth4userNtB6_11UserManager16set_user_enabled0Ba_
FNF:37
FNH:27
DA:35,35
DA:36,35
DA:37,35
DA:39,35
DA:40,35
DA:41,35
DA:42,35
DA:43,35
DA:44,35
DA:45,35
DA:46,35
DA:47,35
DA:48,35
DA:49,35
DA:52,41
DA:53,41
DA:54,41
DA:57,3
DA:58,3
DA:59,3
DA:60,3
DA:61,3
DA:64,6
DA:65,6
DA:66,6
DA:67,6
DA:68,6
DA:69,6
DA:72,3
DA:73,3
DA:74,3
DA:77,24
DA:78,24
DA:79,24
DA:91,29
DA:92,29
DA:94,29
DA:95,29
DA:96,29
DA:98,29
DA:99,29
DA:100,29
DA:101,29
DA:102,29
DA:105,0
DA:106,0
DA:107,0
DA:108,0
DA:110,0
DA:111,0
DA:112,0
DA:114,0
DA:115,0
DA:116,0
DA:117,0
DA:120,32
DA:121,32
DA:122,32
DA:123,32
DA:124,32
DA:125,32
DA:126,32
DA:127,32
DA:129,32
DA:131,32
DA:132,1
DA:133,1
DA:134,1
DA:135,1
DA:136,31
DA:138,31
DA:139,31
DA:141,31
DA:142,32
DA:145,37
DA:146,37
DA:148,37
DA:150,37
DA:151,37
DA:152,37
DA:154,34
DA:155,3
DA:156,31
DA:158,31
DA:159,7
DA:160,7
DA:161,7
DA:162,24
DA:164,24
DA:165,24
DA:166,37
DA:169,18
DA:170,18
DA:171,18
DA:174,2
DA:175,2
DA:176,2
DA:177,2
DA:180,1
DA:181,1
DA:183,1
DA:184,1
DA:185,1
DA:186,1
DA:188,1
DA:189,1
DA:190,1
DA:193,3
DA:194,3
DA:196,3
DA:197,3
DA:198,3
DA:199,3
DA:201,3
DA:202,3
DA:203,3
DA:206,1
DA:207,1
DA:208,1
DA:210,1
DA:211,1
DA:212,0
DA:215,1
DA:216,1
DA:217,0
DA:219,0
DA:220,0
DA:221,0
DA:222,0
DA:223,0
DA:226,0
DA:227,1
DA:230,0
DA:231,0
DA:232,0
DA:235,2
DA:236,2
DA:237,2
DA:238,2
DA:239,2
DA:242,3
DA:243,3
DA:244,3
DA:247,1
DA:248,1
DA:249,1
DA:250,1
DA:253,0
DA:254,0
DA:255,0
DA:258,7
DA:259,7
DA:262,7
DA:263,1
DA:264,1
DA:265,1
DA:266,1
DA:267,6
DA:269,6
DA:270,6
DA:271,6
DA:272,6
DA:274,6
DA:275,6
DA:276,7
DA:279,3
DA:280,3
DA:282,3
DA:283,3
DA:284,3
DA:285,3
DA:287,3
DA:288,3
DA:289,3
DA:293,0
DA:294,0
DA:295,0
DA:303,2
DA:304,2
DA:305,2
DA:306,2
DA:307,2
DA:308,2
DA:309,2
DA:310,2
DA:313,2
DA:314,2
DA:315,2
DA:317,2
DA:318,2
DA:319,2
DA:320,2
DA:323,2
DA:324,2
DA:325,2
DA:327,2
DA:328,2
DA:329,2
DA:332,2
DA:333,2
DA:334,2
DA:337,2
DA:338,2
DA:341,2
DA:342,2
DA:345,2
DA:346,2
DA:347,2
DA:350,2
DA:351,2
DA:352,2
DA:355,2
DA:358,2
DA:361,2
DA:362,2
DA:365,2
DA:366,2
DA:367,2
DA:369,2
DA:370,2
DA:371,2
DA:373,2
DA:374,2
DA:375,2
DA:376,2
BRF:0
BRH:0
LF:233
LH:199
end_of_record
SF:/mnt/f/Node/hivellm/synap/synap-server/src/cache/adaptive/arc.rs
FN:48,_RNCNvMNtNtNtCsitBd8PkZ0O7_12synap_server5cache8adaptive3arcINtB4_8ArcCacheppE3get0Ba_
FN:57,_RNCNvMNtNtNtCsitBd8PkZ0O7_12synap_server5cache8adaptive3arcINtB4_8ArcCacheppE3gets_0Ba_
FN:86,_RNCNvMNtNtNtCsitBd8PkZ0O7_12synap_server5cache8adaptive3arcINtB4_8ArcCacheppE6insert0Ba_
FN:90,_RNCNvMNtNtNtCsitBd8PkZ0O7_12synap_server5cache8adaptive3arcINtB4_8ArcCacheppE6inserts_0Ba_
FN:44,_RNvMNtNtNtCsitBd8PkZ0O7_12synap_server5cache8adaptive3arcINtB2_8ArcCacheppE3getB8_
FN:130,_RNvMNtNtNtCsitBd8PkZ0O7_12synap_server5cache8adaptive3arcINtB2_8ArcCacheppE3lenB8_
FN:31,_RNvMNtNtNtCsitBd8PkZ0O7_12synap_server5cache8adaptive3arcINtB2_8ArcCacheppE3newB8_
FN:104,_RNvMNtNtNtCsitBd8PkZ0O7_12synap_server5cache8adaptive3arcINtB2_8ArcCacheppE5evictB8_
FN:65,_RNvMNtNtNtCsitBd8PkZ0O7_12synap_server5cache8adaptive3arcINtB2_8ArcCacheppE6insertB8_
FN:134,_RNvMNtNtNtCsitBd8PkZ0O7_12synap_server5cache8adaptive3arcINtB2_8ArcCacheppE8is_emptyB8_
FN:48,_RNCNvMNtNtNtCsfrV5S290jXb_12synap_server5cache8adaptive3arcINtB4_8ArcCacheReB1a_E3get0Ba_
FN:57,_RNCNvMNtNtNtCsfrV5S290jXb_12synap_server5cache8adaptive3arcINtB4_8ArcCacheReB1a_E3gets_0Ba_
FN:86,_RNCNvMNtNtNtCsfrV5S290jXb_12synap_server5cache8adaptive3arcINtB4_8ArcCacheReB1a_E6insert0Ba_
FN:90,_RNCNvMNtNtNtCsfrV5S290jXb_12synap_server5cache8adaptive3arcINtB4_8ArcCacheReB1a_E6inserts_0Ba_
FN:48,_RNCNvMNtNtNtCsfrV5S290jXb_12synap_server5cache8adaptive3arcINtB4_8ArcCacheRelE3get0Ba_
FN:57,_RNCNvMNtNtNtCsfrV5S290jXb_12synap_server5cache8adaptive3arcINtB4_8ArcCacheRelE3gets_0Ba_
FN:86,_RNCNvMNtNtNtCsfrV5S290jXb_12synap_server5cache8adaptive3arcINtB4_8ArcCacheRelE6insert0Ba_
FN:90,_RNCNvMNtNtNtCsfrV5S290jXb_12synap_server5cache8adaptive3arcINtB4_8ArcCacheRelE6inserts_0Ba_
FN:44,_RNvMNtNtNtCsfrV5S290jXb_12synap_server5cache8adaptive3arcINtB2_8ArcCacheReB18_E3getB8_
FN:31,_RNvMNtNtNtCsfrV5S290jXb_12synap_server5cache8adaptive3arcINtB2_8ArcCacheReB18_E3newB8_
FN:104,_RNvMNtNtNtCsfrV5S290jXb_12synap_server5cache8adaptive3arcINtB2_8ArcCacheReB18_E5evictB8_
FN:65,_RNvMNtNtNtCsfrV5S290jXb_12synap_server5cache8adaptive3arcINtB2_8ArcCacheReB18_E6insertB8_
FN:44,_RNvMNtNtNtCsfrV5S290jXb_12synap_server5cache8adaptive3arcINtB2_8ArcCacheRelE3getB8_
FN:130,_RNvMNtNtNtCsfrV5S290jXb_12synap_server5cache8adaptive3arcINtB2_8ArcCacheRelE3lenB8_
FN:31,_RNvMNtNtNtCsfrV5S290jXb_12synap_server5cache8adaptive3arcINtB2_8ArcCacheRelE3newB8_
FN:104,_RNvMNtNtNtCsfrV5S290jXb_12synap_server5cache8adaptive3arcINtB2_8ArcCacheRelE5evictB8_
FN:65,_RNvMNtNtNtCsfrV5S290jXb_12synap_server5cache8adaptive3arcINtB2_8ArcCacheRelE6insertB8_
FN:134,_RNvMNtNtNtCsfrV5S290jXb_12synap_server5cache8adaptive3arcINtB2_8ArcCacheppE8is_emptyB8_
FN:144,_RNvNtNtNtNtCsfrV5S290jXb_12synap_server5cache8adaptive3arc5testss_14test_arc_basic
FN:175,_RNvNtNtNtNtCsfrV5S290jXb_12synap_server5cache8adaptive3arc5testss_18test_arc_promotion
FNDA:0,_RNCNvMNtNtNtCsitBd8PkZ0O7_12synap_server5cache8adaptive3arcINtB4_8ArcCacheppE3get0Ba_
FNDA:0,_RNCNvMNtNtNtCsitBd8PkZ0O7_12synap_server5cache8adaptive3arcINtB4_8ArcCacheppE3gets_0Ba_
FNDA:0,_RNCNvMNtNtNtCsitBd8PkZ0O7_12synap_server5cache8adaptive3arcINtB4_8ArcCacheppE6insert0Ba_
FNDA:0,_RNCNvMNtNtNtCsitBd8PkZ0O7_12synap_server5cache8adaptive3arcINtB4_8ArcCacheppE6inserts_0Ba_
FNDA:0,_RNvMNtNtNtCsitBd8PkZ0O7_12synap_server5cache8adaptive3arcINtB2_8ArcCacheppE3getB8_
FNDA:0,_RNvMNtNtNtCsitBd8PkZ0O7_12synap_server5cache8adaptive3arcINtB2_8ArcCacheppE3lenB8_
FNDA:0,_RNvMNtNtNtCsitBd8PkZ0O7_12synap_server5cache8adaptive3arcINtB2_8ArcCacheppE3newB8_
FNDA:0,_RNvMNtNtNtCsitBd8PkZ0O7_12synap_server5cache8adaptive3arcINtB2_8ArcCacheppE5evictB8_
FNDA:0,_RNvMNtNtNtCsitBd8PkZ0O7_12synap_server5cache8adaptive3arcINtB2_8ArcCacheppE6insertB8_
FNDA:0,_RNvMNtNtNtCsitBd8PkZ0O7_12synap_server5cache8adaptive3arcINtB2_8ArcCacheppE8is_emptyB8_
FNDA:0,_RNCNvMNtNtNtCsfrV5S290jXb_12synap_server5cache8adaptive3arcINtB4_8ArcCacheReB1a_E3get0Ba_
FNDA:0,_RNCNvMNtNtNtCsfrV5S290jXb_12synap_server5cache8adaptive3arcINtB4_8ArcCacheReB1a_E3gets_0Ba_
FNDA:0,_RNCNvMNtNtNtCsfrV5S290jXb_12synap_server5cache8adaptive3arcINtB4_8ArcCacheReB1a_E6insert0Ba_
FNDA:0,_RNCNvMNtNtNtCsfrV5S290jXb_12synap_server5cache8adaptive3arcINtB4_8ArcCacheReB1a_E6inserts_0Ba_
FNDA:20,_RNCNvMNtNtNtCsfrV5S290jXb_12synap_server5cache8adaptive3arcINtB4_8ArcCacheRelE3get0Ba_
FNDA:8,_RNCNvMNtNtNtCsfrV5S290jXb_12synap_server5cache8adaptive3arcINtB4_8ArcCacheRelE3gets_0Ba_
FNDA:0,_RNCNvMNtNtNtCsfrV5S290jXb_12synap_server5cache8adaptive3arcINtB4_8ArcCacheRelE6insert0Ba_
FNDA:0,_RNCNvMNtNtNtCsfrV5S290jXb_12synap_server5cache8adaptive3arcINtB4_8ArcCacheRelE6inserts_0Ba_
FNDA:0,_RNvMNtNtNtCsfrV5S290jXb_12synap_server5cache8adaptive3arcINtB2_8ArcCacheReB18_E3getB8_
FNDA:0,_RNvMNtNtNtCsfrV5S290jXb_12synap_server5cache8adaptive3arcINtB2_8ArcCacheReB18_E3newB8_
FNDA:0,_RNvMNtNtNtCsfrV5S290jXb_12synap_server5cache8adaptive3arcINtB2_8ArcCacheReB18_E5evictB8_
FNDA:0,_RNvMNtNtNtCsfrV5S290jXb_12synap_server5cache8adaptive3arcINtB2_8ArcCacheReB18_E6insertB8_
FNDA:18,_RNvMNtNtNtCsfrV5S290jXb_12synap_server5cache8adaptive3arcINtB2_8ArcCacheRelE3getB8_
FNDA:4,_RNvMNtNtNtCsfrV5S290jXb_12synap_server5cache8adaptive3arcINtB2_8ArcCacheRelE3lenB8_
FNDA:4,_RNvMNtNtNtCsfrV5S290jXb_12synap_server5cache8adaptive3arcINtB2_8ArcCacheRelE3newB8_
FNDA:4,_RNvMNtNtNtCsfrV5S290jXb_12synap_server5cache8adaptive3arcINtB2_8ArcCacheRelE5evictB8_
FNDA:18,_RNvMNtNtNtCsfrV5S290jXb_12synap_server5cache8adaptive3arcINtB2_8ArcCacheRelE6insertB8_
FNDA:0,_RNvMNtNtNtCsfrV5S290jXb_12synap_server5cache8adaptive3arcINtB2_8ArcCacheppE8is_emptyB8_
FNDA:2,_RNvNtNtNtNtCsfrV5S290jXb_12synap_server5cache8adaptive3arc5testss_14test_arc_basic
FNDA:2,_RNvNtNtNtNtCsfrV5S290jXb_12synap_server5cache8adaptive3arc5testss_18test_arc_promotion
FNF:12
FNH:9
DA:31,4
DA:32,4
DA:33,4
DA:34,4
DA:35,4
DA:36,4
DA:37,4
DA:38,4
DA:39,4
DA:40,4
DA:41,4
DA:42,4
DA:44,18
DA:46,18
DA:48,20
DA:49,10
DA:50,10
DA:51,10
DA:52,8
DA:55,8
DA:57,8
DA:58,6
DA:59,6
DA:60,2
DA:62,2
DA:63,18
DA:65,18
DA:67,18
DA:68,0
DA:71,0
DA:72,0
DA:73,0
DA:74,0
DA:75,0
DA:76,0
DA:77,0
DA:79,0
DA:80,18
DA:83,18
DA:85,0
DA:86,0
DA:87,18
DA:89,0
DA:90,0
DA:91,18
DA:94,18
DA:95,18
DA:96,4
DA:97,14
DA:100,18
DA:101,18
DA:102,18
DA:104,4
DA:105,4
DA:107,2
DA:108,2
DA:111,2
DA:112,2
DA:113,0
DA:114,2
DA:115,0
DA:118,2
DA:119,2
DA:122,2
DA:123,2
DA:124,0
DA:125,2
DA:126,0
DA:128,4
DA:130,4
DA:131,4
DA:132,4
DA:134,0
DA:135,0
DA:136,0
DA:144,2
DA:145,2
DA:147,2
DA:148,2
DA:149,2
DA:151,2
DA:152,2
DA:153,2
DA:156,2
DA:158,2
DA:159,2
DA:162,2
DA:163,2
DA:164,2
DA:165,2
DA:166,2
DA:167,2
DA:168,2
DA:169,2
DA:171,2
DA:172,2
DA:175,2
DA:176,2
DA:178,2
DA:179,2
DA:182,2
DA:183,2
DA:186,2
DA:187,2
DA:188,2
DA:191,2
DA:192,2
BRF:0
BRH:0
LF:111
LH:89
end_of_record
SF:/mnt/f/Node/hivellm/synap/synap-server/src/cache/adaptive/lfu.rs
FN:44,_RNCNvMNtNtNtCsitBd8PkZ0O7_12synap_server5cache8adaptive3lfuINtB4_8LfuCacheppE6insert0Ba_
FN:26,_RNvMNtNtNtCsitBd8PkZ0O7_12synap_server5cache8adaptive3lfuINtB2_8LfuCacheppE3getB8_
FN:71,_RNvMNtNtNtCsitBd8PkZ0O7_12synap_server5cache8adaptive3lfuINtB2_8LfuCacheppE3lenB8_
FN:19,_RNvMNtNtNtCsitBd8PkZ0O7_12synap_server5cache8adaptive3lfuINtB2_8LfuCacheppE3newB8_
FN:35,_RNvMNtNtNtCsitBd8PkZ0O7_12synap_server5cache8adaptive3lfuINtB2_8LfuCacheppE6insertB8_
FN:75,_RNvMNtNtNtCsitBd8PkZ0O7_12synap_server5cache8adaptive3lfuINtB2_8LfuCacheppE8is_emptyB8_
FN:54,_RNvMNtNtNtCsitBd8PkZ0O7_12synap_server5cache8adaptive3lfuINtB2_8LfuCacheppE9evict_lfuB8_
FN:85,_RNvNtNtNtNtCsfrV5S290jXb_12synap_server5cache8adaptive3lfu5testss_14test_lfu_basic
FN:71,_RNvMNtNtNtCsfrV5S290jXb_12synap_server5cache8adaptive3lfuINtB2_8LfuCacheppE3lenB8_
FN:75,_RNvMNtNtNtCsfrV5S290jXb_12synap_server5cache8adaptive3lfuINtB2_8LfuCacheppE8is_emptyB8_
FN:44,_RNCNvMNtNtNtCsfrV5S290jXb_12synap_server5cache8adaptive3lfuINtB4_8LfuCacheReB1a_E6insert0Ba_
FN:44,_RNCNvMNtNtNtCsfrV5S290jXb_12synap_server5cache8adaptive3lfuINtB4_8LfuCacheRelE6insert0Ba_
FN:26,_RNvMNtNtNtCsfrV5S290jXb_12synap_server5cache8adaptive3lfuINtB2_8LfuCacheReB18_E3getB8_
FN:19,_RNvMNtNtNtCsfrV5S290jXb_12synap_server5cache8adaptive3lfuINtB2_8LfuCacheReB18_E3newB8_
FN:35,_RNvMNtNtNtCsfrV5S290jXb_12synap_server5cache8adaptive3lfuINtB2_8LfuCacheReB18_E6insertB8_
FN:54,_RNvMNtNtNtCsfrV5S290jXb_12synap_server5cache8adaptive3lfuINtB2_8LfuCacheReB18_E9evict_lfuB8_
FN:26,_RNvMNtNtNtCsfrV5S290jXb_12synap_server5cache8adaptive3lfuINtB2_8LfuCacheRelE3getB8_
FN:19,_RNvMNtNtNtCsfrV5S290jXb_12synap_server5cache8adaptive3lfuINtB2_8LfuCacheRelE3newB8_
FN:35,_RNvMNtNtNtCsfrV5S290jXb_12synap_server5cache8adaptive3lfuINtB2_8LfuCacheRelE6insertB8_
FN:54,_RNvMNtNtNtCsfrV5S290jXb_12synap_server5cache8adaptive3lfuINtB2_8LfuCacheRelE9evict_lfuB8_
FNDA:0,_RNCNvMNtNtNtCsitBd8PkZ0O7_12synap_server5cache8adaptive3lfuINtB4_8LfuCacheppE6insert0Ba_
FNDA:0,_RNvMNtNtNtCsitBd8PkZ0O7_12synap_server5cache8adaptive3lfuINtB2_8LfuCacheppE3getB8_
FNDA:0,_RNvMNtNtNtCsitBd8PkZ0O7_12synap_server5cache8adaptive3lfuINtB2_8LfuCacheppE3lenB8_
FNDA:0,_RNvMNtNtNtCsitBd8PkZ0O7_12synap_server5cache8adaptive3lfuINtB2_8LfuCacheppE3newB8_
FNDA:0,_RNvMNtNtNtCsitBd8PkZ0O7_12synap_server5cache8adaptive3lfuINtB2_8LfuCacheppE6insertB8_
FNDA:0,_RNvMNtNtNtCsitBd8PkZ0O7_12synap_server5cache8adaptive3lfuINtB2_8LfuCacheppE8is_emptyB8_
FNDA:0,_RNvMNtNtNtCsitBd8PkZ0O7_12synap_server5cache8adaptive3lfuINtB2_8LfuCacheppE9evict_lfuB8_
FNDA:2,_RNvNtNtNtNtCsfrV5S290jXb_12synap_server5cache8adaptive3lfu5testss_14test_lfu_basic
FNDA:0,_RNvMNtNtNtCsfrV5S290jXb_12synap_server5cache8adaptive3lfuINtB2_8LfuCacheppE3lenB8_
FNDA:0,_RNvMNtNtNtCsfrV5S290jXb_12synap_server5cache8adaptive3lfuINtB2_8LfuCacheppE8is_emptyB8_
FNDA:0,_RNCNvMNtNtNtCsfrV5S290jXb_12synap_server5cache8adaptive3lfuINtB4_8LfuCacheReB1a_E6insert0Ba_
FNDA:0,_RNCNvMNtNtNtCsfrV5S290jXb_12synap_server5cache8adaptive3lfuINtB4_8LfuCacheRelE6insert0Ba_
FNDA:0,_RNvMNtNtNtCsfrV5S290jXb_12synap_server5cache8adaptive3lfuINtB2_8LfuCacheReB18_E3getB8_
FNDA:0,_RNvMNtNtNtCsfrV5S290jXb_12synap_server5cache8adaptive3lfuINtB2_8LfuCacheReB18_E3newB8_
FNDA:0,_RNvMNtNtNtCsfrV5S290jXb_12synap_server5cache8adaptive3lfuINtB2_8LfuCacheReB18_E6insertB8_
FNDA:0,_RNvMNtNtNtCsfrV5S290jXb_12synap_server5cache8adaptive3lfuINtB2_8LfuCacheReB18_E9evict_lfuB8_
FNDA:12,_RNvMNtNtNtCsfrV5S290jXb_12synap_server5cache8adaptive3lfuINtB2_8LfuCacheRelE3getB8_
FNDA:2,_RNvMNtNtNtCsfrV5S290jXb_12synap_server5cache8adaptive3lfuINtB2_8LfuCacheRelE3newB8_
FNDA:8,_RNvMNtNtNtCsfrV5S290jXb_12synap_server5cache8adaptive3lfuINtB2_8LfuCacheRelE6insertB8_
FNDA:2,_RNvMNtNtNtCsfrV5S290jXb_12synap_server5cache8adaptive3lfuINtB2_8LfuCacheRelE9evict_lfuB8_
FNF:8
FNH:5
DA:19,2
DA:20,2
DA:21,2
DA:22,2
DA:23,2
DA:24,2
DA:26,12
DA:27,12
DA:28,10
DA:29,10
DA:31,2
DA:33,12
DA:35,8
DA:37,8
DA:38,2
DA:39,6
DA:42,8
DA:43,8
DA:44,8
DA:45,0
DA:46,0
DA:47,0
DA:48,8
DA:49,8
DA:50,8
DA:51,8
DA:52,8
DA:54,2
DA:56,2
DA:57,2
DA:59,8
DA:60,6
DA:61,3
DA:62,3
DA:63,3
DA:66,2
DA:67,2
DA:68,2
DA:69,2
DA:71,0
DA:72,0
DA:73,0
DA:75,0
DA:76,0
DA:77,0
DA:85,2
DA:86,2
DA:88,2
DA:89,2
DA:90,2
DA:92,2
DA:93,2
DA:94,2
DA:97,2
DA:99,2
DA:100,2
DA:101,2
DA:102,2
BRF:0
BRH:0
LF:59
LH:49
end_of_record
SF:/mnt/f/Node/hivellm/synap/synap-server/src/cache/adaptive/mod.rs
FN:204,_RNCNvMs_NtNtCsitBd8PkZ0O7_12synap_server5cache8adaptiveINtB6_13AdaptiveCacheppE10insert_lru0Ba_
FN:211,_RNCNvMs_NtNtCsitBd8PkZ0O7_12synap_server5cache8adaptiveINtB6_13AdaptiveCacheppE11maybe_adapt0Ba_
FN:180,_RNCNvMs_NtNtCsitBd8PkZ0O7_12synap_server5cache8adaptiveINtB6_13AdaptiveCacheppE7get_lru0Ba_
FN:189,_RNvMs_NtNtCsitBd8PkZ0O7_12synap_server5cache8adaptiveINtB4_13AdaptiveCacheppE10insert_lruB8_
FN:209,_RNvMs_NtNtCsitBd8PkZ0O7_12synap_server5cache8adaptiveINtB4_13AdaptiveCacheppE11maybe_adaptB8_
FN:290,_RNvMs_NtNtCsitBd8PkZ0O7_12synap_server5cache8adaptiveINtB4_13AdaptiveCacheppE13get_all_statsB8_
FN:250,_RNvMs_NtNtCsitBd8PkZ0O7_12synap_server5cache8adaptiveINtB4_13AdaptiveCacheppE15switch_strategyB8_
FN:295,_RNvMs_NtNtCsitBd8PkZ0O7_12synap_server5cache8adaptiveINtB4_13AdaptiveCacheppE16current_strategyB8_
FN:131,_RNvMs_NtNtCsitBd8PkZ0O7_12synap_server5cache8adaptiveINtB4_13AdaptiveCacheppE3getB8_
FN:98,_RNvMs_NtNtCsitBd8PkZ0O7_12synap_server5cache8adaptiveINtB4_13AdaptiveCacheppE3newB8_
FN:154,_RNvMs_NtNtCsitBd8PkZ0O7_12synap_server5cache8adaptiveINtB4_13AdaptiveCacheppE6insertB8_
FN:175,_RNvMs_NtNtCsitBd8PkZ0O7_12synap_server5cache8adaptiveINtB4_13AdaptiveCacheppE7get_lruB8_
FN:285,_RNvMs_NtNtCsitBd8PkZ0O7_12synap_server5cache8adaptiveINtB4_13AdaptiveCacheppE9get_statsB8_
FN:46,_RNvMNtNtCsitBd8PkZ0O7_12synap_server5cache8adaptiveNtB2_10CacheStats10record_hit
FN:51,_RNvMNtNtCsitBd8PkZ0O7_12synap_server5cache8adaptiveNtB2_10CacheStats11record_miss
FN:60,_RNvMNtNtCsitBd8PkZ0O7_12synap_server5cache8adaptiveNtB2_10CacheStats13record_insert
FN:56,_RNvMNtNtCsitBd8PkZ0O7_12synap_server5cache8adaptiveNtB2_10CacheStats15record_eviction
FN:64,_RNvMNtNtCsitBd8PkZ0O7_12synap_server5cache8adaptiveNtB2_10CacheStats15update_hit_rate
FN:42,_RNvMNtNtCsitBd8PkZ0O7_12synap_server5cache8adaptiveNtB2_10CacheStats3new
FN:71,_RNvMNtNtCsitBd8PkZ0O7_12synap_server5cache8adaptiveNtB2_10CacheStats5reset
FN:290,_RNvMs_NtNtCsfrV5S290jXb_12synap_server5cache8adaptiveINtB4_13AdaptiveCacheppE13get_all_statsB8_
FN:295,_RNvMs_NtNtCsfrV5S290jXb_12synap_server5cache8adaptiveINtB4_13AdaptiveCacheppE16current_strategyB8_
FN:46,_RNvMNtNtCsfrV5S290jXb_12synap_server5cache8adaptiveNtB2_10CacheStats10record_hit
FN:51,_RNvMNtNtCsfrV5S290jXb_12synap_server5cache8adaptiveNtB2_10CacheStats11record_miss
FN:60,_RNvMNtNtCsfrV5S290jXb_12synap_server5cache8adaptiveNtB2_10CacheStats13record_insert
FN:56,_RNvMNtNtCsfrV5S290jXb_12synap_server5cache8adaptiveNtB2_10CacheStats15record_eviction
FN:64,_RNvMNtNtCsfrV5S290jXb_12synap_server5cache8adaptiveNtB2_10CacheStats15update_hit_rate
FN:42,_RNvMNtNtCsfrV5S290jXb_12synap_server5cache8adaptiveNtB2_10CacheStats3new
FN:71,_RNvMNtNtCsfrV5S290jXb_12synap_server5cache8adaptiveNtB2_10CacheStats5reset
FN:323,_RNvNtNtNtCsfrV5S290jXb_12synap_server5cache8adaptive5testss_16test_cache_stats
FN:305,_RNvNtNtNtCsfrV5S290jXb_12synap_server5cache8adaptive5testss_23test_adaptive_cache_lru
FN:204,_RNCNvMs_NtNtCsfrV5S290jXb_12synap_server5cache8adaptiveINtB6_13AdaptiveCacheReB1c_E10insert_lru0Ba_
FN:211,_RNCNvMs_NtNtCsfrV5S290jXb_12synap_server5cache8adaptiveINtB6_13AdaptiveCacheReB1c_E11maybe_adapt0Ba_
FN:180,_RNCNvMs_NtNtCsfrV5S290jXb_12synap_server5cache8adaptiveINtB6_13AdaptiveCacheReB1c_E7get_lru0Ba_
FN:204,_RNCNvMs_NtNtCsfrV5S290jXb_12synap_server5cache8adaptiveINtB6_13AdaptiveCacheRelE10insert_lru0Ba_
FN:211,_RNCNvMs_NtNtCsfrV5S290jXb_12synap_server5cache8adaptiveINtB6_13AdaptiveCacheRelE11maybe_adapt0Ba_
FN:180,_RNCNvMs_NtNtCsfrV5S290jXb_12synap_server5cache8adaptiveINtB6_13AdaptiveCacheRelE7get_lru0Ba_
FN:189,_RNvMs_NtNtCsfrV5S290jXb_12synap_server5cache8adaptiveINtB4_13AdaptiveCacheReB1a_E10insert_lruB8_
FN:209,_RNvMs_NtNtCsfrV5S290jXb_12synap_server5cache8adaptiveINtB4_13AdaptiveCacheReB1a_E11maybe_adaptB8_
FN:250,_RNvMs_NtNtCsfrV5S290jXb_12synap_server5cache8adaptiveINtB4_13AdaptiveCacheReB1a_E15switch_strategyB8_
FN:131,_RNvMs_NtNtCsfrV5S290jXb_12synap_server5cache8adaptiveINtB4_13AdaptiveCacheReB1a_E3getB8_
FN:98,_RNvMs_NtNtCsfrV5S290jXb_12synap_server5cache8adaptiveINtB4_13AdaptiveCacheReB1a_E3newB8_
FN:154,_RNvMs_NtNtCsfrV5S290jXb_12synap_server5cache8adaptiveINtB4_13AdaptiveCacheReB1a_E6insertB8_
FN:175,_RNvMs_NtNtCsfrV5S290jXb_12synap_server5cache8adaptiveINtB4_13AdaptiveCacheReB1a_E7get_lruB8_
FN:285,_RNvMs_NtNtCsfrV5S290jXb_12synap_server5cache8adaptiveINtB4_13AdaptiveCacheReB1a_E9get_statsB8_
FN:189,_RNvMs_NtNtCsfrV5S290jXb_12synap_server5cache8adaptiveINtB4_13AdaptiveCacheRelE10insert_lruB8_
FN:209,_RNvMs_NtNtCsfrV5S290jXb_12synap_server5cache8adaptiveINtB4_13AdaptiveCacheRelE11maybe_adaptB8_
FN:250,_RNvMs_NtNtCsfrV5S290jXb_12synap_server5cache8adaptiveINtB4_13AdaptiveCacheRelE15switch_strategyB8_
FN:131,_RNvMs_NtNtCsfrV5S290jXb_12synap_server5cache8adaptiveINtB4_13AdaptiveCacheRelE3getB8_
FN:98,_RNvMs_NtNtCsfrV5S290jXb_12synap_server5cache8adaptiveINtB4_13AdaptiveCacheRelE3newB8_
FN:154,_RNvMs_NtNtCsfrV5S290jXb_12synap_server5cache8adaptiveINtB4_13AdaptiveCacheRelE6insertB8_
FN:175,_RNvMs_NtNtCsfrV5S290jXb_12synap_server5cache8adaptiveINtB4_13AdaptiveCacheRelE7get_lruB8_
FNDA:0,_RNCNvMs_NtNtCsitBd8PkZ0O7_12synap_server5cache8adaptiveINtB6_13AdaptiveCacheppE10insert_lru0Ba_
FNDA:0,_RNCNvMs_NtNtCsitBd8PkZ0O7_12synap_server5cache8adaptiveINtB6_13AdaptiveCacheppE11maybe_adapt0Ba_
FNDA:0,_RNCNvMs_NtNtCsitBd8PkZ0O7_12synap_server5cache8adaptiveINtB6_13AdaptiveCacheppE7get_lru0Ba_
FNDA:0,_RNvMs_NtNtCsitBd8PkZ0O7_12synap_server5cache8adaptiveINtB4_13AdaptiveCacheppE10insert_lruB8_
FNDA:0,_RNvMs_NtNtCsitBd8PkZ0O7_12synap_server5cache8adaptiveINtB4_13AdaptiveCacheppE11maybe_adaptB8_
FNDA:0,_RNvMs_NtNtCsitBd8PkZ0O7_12synap_server5cache8adaptiveINtB4_13AdaptiveCacheppE13get_all_statsB8_
FNDA:0,_RNvMs_NtNtCsitBd8PkZ0O7_12synap_server5cache8adaptiveINtB4_13AdaptiveCacheppE15switch_strategyB8_
FNDA:0,_RNvMs_NtNtCsitBd8PkZ0O7_12synap_server5cache8adaptiveINtB4_13AdaptiveCacheppE16current_strategyB8_
FNDA:0,_RNvMs_NtNtCsitBd8PkZ0O7_12synap_server5cache8adaptiveINtB4_13AdaptiveCacheppE3getB8_
FNDA:0,_RNvMs_NtNtCsitBd8PkZ0O7_12synap_server5cache8adaptiveINtB4_13AdaptiveCacheppE3newB8_
FNDA:0,_RNvMs_NtNtCsitBd8PkZ0O7_12synap_server5cache8adaptiveINtB4_13AdaptiveCacheppE6insertB8_
FNDA:0,_RNvMs_NtNtCsitBd8PkZ0O7_12synap_server5cache8adaptiveINtB4_13AdaptiveCacheppE7get_lruB8_
FNDA:0,_RNvMs_NtNtCsitBd8PkZ0O7_12synap_server5cache8adaptiveINtB4_13AdaptiveCacheppE9get_statsB8_
FNDA:0,_RNvMNtNtCsitBd8PkZ0O7_12synap_server5cache8adaptiveNtB2_10CacheStats10record_hit
FNDA:0,_RNvMNtNtCsitBd8PkZ0O7_12synap_server5cache8adaptiveNtB2_10CacheStats11record_miss
FNDA:0,_RNvMNtNtCsitBd8PkZ0O7_12synap_server5cache8adaptiveNtB2_10CacheStats13record_insert
FNDA:0,_RNvMNtNtCsitBd8PkZ0O7_12synap_server5cache8adaptiveNtB2_10CacheStats15record_eviction
FNDA:0,_RNvMNtNtCsitBd8PkZ0O7_12synap_server5cache8adaptiveNtB2_10CacheStats15update_hit_rate
FNDA:0,_RNvMNtNtCsitBd8PkZ0O7_12synap_server5cache8adaptiveNtB2_10CacheStats3new
FNDA:0,_RNvMNtNtCsitBd8PkZ0O7_12synap_server5cache8adaptiveNtB2_10CacheStats5reset
FNDA:0,_RNvMs_NtNtCsfrV5S290jXb_12synap_server5cache8adaptiveINtB4_13AdaptiveCacheppE13get_all_statsB8_
FNDA:0,_RNvMs_NtNtCsfrV5S290jXb_12synap_server5cache8adaptiveINtB4_13AdaptiveCacheppE16current_strategyB8_
FNDA:10,_RNvMNtNtCsfrV5S290jXb_12synap_server5cache8adaptiveNtB2_10CacheStats10record_hit
FNDA:4,_RNvMNtNtCsfrV5S290jXb_12synap_server5cache8adaptiveNtB2_10CacheStats11record_miss
FNDA:10,_RNvMNtNtCsfrV5S290jXb_12synap_server5cache8adaptiveNtB2_10CacheStats13record_insert
FNDA:2,_RNvMNtNtCsfrV5S290jXb_12synap_server5cache8adaptiveNtB2_10CacheStats15record_eviction
FNDA:14,_RNvMNtNtCsfrV5S290jXb_12synap_server5cache8adaptiveNtB2_10CacheStats15update_hit_rate
FNDA:12,_RNvMNtNtCsfrV5S290jXb_12synap_server5cache8adaptiveNtB2_10CacheStats3new
FNDA:0,_RNvMNtNtCsfrV5S290jXb_12synap_server5cache8adaptiveNtB2_10CacheStats5reset
FNDA:2,_RNvNtNtNtCsfrV5S290jXb_12synap_server5cache8adaptive5testss_16test_cache_stats
FNDA:2,_RNvNtNtNtCsfrV5S290jXb_12synap_server5cache8adaptive5testss_23test_adaptive_cache_lru
FNDA:0,_RNCNvMs_NtNtCsfrV5S290jXb_12synap_server5cache8adaptiveINtB6_13AdaptiveCacheReB1c_E10insert_lru0Ba_
FNDA:12,_RNCNvMs_NtNtCsfrV5S290jXb_12synap_server5cache8adaptiveINtB6_13AdaptiveCacheReB1c_E11maybe_adapt0Ba_
FNDA:2,_RNCNvMs_NtNtCsfrV5S290jXb_12synap_server5cache8adaptiveINtB6_13AdaptiveCacheReB1c_E7get_lru0Ba_
FNDA:10,_RNCNvMs_NtNtCsfrV5S290jXb_12synap_server5cache8adaptiveINtB6_13AdaptiveCacheRelE10insert_lru0Ba_
FNDA:30,_RNCNvMs_NtNtCsfrV5S290jXb_12synap_server5cache8adaptiveINtB6_13AdaptiveCacheRelE11maybe_adapt0Ba_
FNDA:24,_RNCNvMs_NtNtCsfrV5S290jXb_12synap_server5cache8adaptiveINtB6_13AdaptiveCacheRelE7get_lru0Ba_
FNDA:2,_RNvMs_NtNtCsfrV5S290jXb_12synap_server5cache8adaptiveINtB4_13AdaptiveCacheReB1a_E10insert_lruB8_
FNDA:4,_RNvMs_NtNtCsfrV5S290jXb_12synap_server5cache8adaptiveINtB4_13AdaptiveCacheReB1a_E11maybe_adaptB8_
FNDA:0,_RNvMs_NtNtCsfrV5S290jXb_12synap_server5cache8adaptiveINtB4_13AdaptiveCacheReB1a_E15switch_strategyB8_
FNDA:4,_RNvMs_NtNtCsfrV5S290jXb_12synap_server5cache8adaptiveINtB4_13AdaptiveCacheReB1a_E3getB8_
FNDA:2,_RNvMs_NtNtCsfrV5S290jXb_12synap_server5cache8adaptiveINtB4_13AdaptiveCacheReB1a_E3newB8_
FNDA:2,_RNvMs_NtNtCsfrV5S290jXb_12synap_server5cache8adaptiveINtB4_13AdaptiveCacheReB1a_E6insertB8_
FNDA:4,_RNvMs_NtNtCsfrV5S290jXb_12synap_server5cache8adaptiveINtB4_13AdaptiveCacheReB1a_E7get_lruB8_
FNDA:2,_RNvMs_NtNtCsfrV5S290jXb_12synap_server5cache8adaptiveINtB4_13AdaptiveCacheReB1a_E9get_statsB8_
FNDA:8,_RNvMs_NtNtCsfrV5S290jXb_12synap_server5cache8adaptiveINtB4_13AdaptiveCacheRelE10insert_lruB8_
FNDA:10,_RNvMs_NtNtCsfrV5S290jXb_12synap_server5cache8adaptiveINtB4_13AdaptiveCacheRelE11maybe_adaptB8_
FNDA:0,_RNvMs_NtNtCsfrV5S290jXb_12synap_server5cache8adaptiveINtB4_13AdaptiveCacheRelE15switch_strategyB8_
FNDA:10,_RNvMs_NtNtCsfrV5S290jXb_12synap_server5cache8adaptiveINtB4_13AdaptiveCacheRelE3getB8_
FNDA:2,_RNvMs_NtNtCsfrV5S290jXb_12synap_server5cache8adaptiveINtB4_13AdaptiveCacheRelE3newB8_
FNDA:8,_RNvMs_NtNtCsfrV5S290jXb_12synap_server5cache8adaptiveINtB4_13AdaptiveCacheRelE6insertB8_
FNDA:10,_RNvMs_NtNtCsfrV5S290jXb_12synap_server5cache8adaptiveINtB4_13AdaptiveCacheRelE7get_lruB8_
FNF:22
FNH:18
DA:42,12
DA:43,12
DA:44,12
DA:46,10
DA:47,10
DA:48,10
DA:49,10
DA:51,4
DA:52,4
DA:53,4
DA:54,4
DA:56,2
DA:57,2
DA:58,2
DA:60,10
DA:61,10
DA:62,10
DA:64,14
DA:65,14
DA:66,14
DA:67,14
DA:68,14
DA:69,14
DA:71,0
DA:72,0
DA:73,0
DA:98,4
DA:99,4
DA:100,4
DA:101,4
DA:102,4
DA:103,4
DA:104,4
DA:105,4
DA:106,4
DA:107,4
DA:108,4
DA:109,4
DA:112,4
DA:113,4
DA:114,4
DA:117,4
DA:118,0
DA:119,0
DA:120,0
DA:121,0
DA:122,0
DA:123,0
DA:124,4
DA:127,4
DA:128,4
DA:131,14
DA:132,14
DA:133,14
DA:134,0
DA:135,0
DA:139,14
DA:140,14
DA:141,10
DA:142,10
DA:143,4
DA:144,4
DA:145,0
DA:148,14
DA:150,14
DA:151,14
DA:154,10
DA:155,10
DA:156,10
DA:158,0
DA:159,0
DA:160,0
DA:163,0
DA:164,0
DA:165,0
DA:169,10
DA:170,10
DA:171,10
DA:172,10
DA:175,14
DA:176,14
DA:177,10
DA:180,26
DA:181,10
DA:183,10
DA:185,4
DA:187,14
DA:189,10
DA:191,10
DA:192,2
DA:193,2
DA:194,2
DA:195,2
DA:196,2
DA:197,0
DA:198,8
DA:201,10
DA:204,10
DA:205,10
DA:206,10
DA:209,14
DA:211,42
DA:213,14
DA:214,14
DA:215,0
DA:218,0
DA:219,0
DA:221,0
DA:222,0
DA:223,0
DA:224,0
DA:225,0
DA:229,0
DA:230,0
DA:231,0
DA:232,0
DA:233,0
DA:236,0
DA:237,0
DA:239,0
DA:240,0
DA:241,0
DA:244,0
DA:245,0
DA:246,0
DA:247,14
DA:250,0
DA:254,0
DA:256,0
DA:257,0
DA:258,0
DA:259,0
DA:260,0
DA:262,0
DA:264,0
DA:265,0
DA:266,0
DA:267,0
DA:268,0
DA:269,0
DA:272,0
DA:274,0
DA:275,0
DA:276,0
DA:277,0
DA:278,0
DA:279,0
DA:282,0
DA:285,2
DA:286,2
DA:287,2
DA:290,0
DA:291,0
DA:292,0
DA:295,0
DA:296,0
DA:297,0
DA:305,2
DA:306,2
DA:308,2
DA:309,2
DA:310,2
DA:312,2
DA:313,2
DA:314,2
DA:317,2
DA:318,2
DA:319,2
DA:320,2
DA:323,2
DA:324,2
DA:326,2
DA:327,2
DA:328,2
DA:330,2
DA:331,2
DA:332,2
DA:333,2
DA:334,2
BRF:0
BRH:0
LF:182
LH:114
end_of_record
SF:/mnt/f/Node/hivellm/synap/synap-server/src/cache/l2_disk.rs
FN:127,_RNCNCNvMs_NtNtCsitBd8PkZ0O7_12synap_server5cache7l2_diskNtB8_11L2DiskCache3get00Bc_
FN:131,_RNCNCNvMs_NtNtCsitBd8PkZ0O7_12synap_server5cache7l2_diskNtB8_11L2DiskCache3get0s_0Bc_
FN:232,_RNCNCNvMs_NtNtCsitBd8PkZ0O7_12synap_server5cache7l2_diskNtB8_11L2DiskCache5clear00Bc_
FN:163,_RNCNCNvMs_NtNtCsitBd8PkZ0O7_12synap_server5cache7l2_diskNtB8_11L2DiskCache6insert00Bc_
FN:169,_RNCNCNvMs_NtNtCsitBd8PkZ0O7_12synap_server5cache7l2_diskNtB8_11L2DiskCache6insert0s0_0Bc_
FN:166,_RNCNCNvMs_NtNtCsitBd8PkZ0O7_12synap_server5cache7l2_diskNtB8_11L2DiskCache6insert0s_0Bc_
FN:208,_RNCNCNvMs_NtNtCsitBd8PkZ0O7_12synap_server5cache7l2_diskNtB8_11L2DiskCache9evict_lfu0s_0Bc_
FN:115,_RNCNvMs_NtNtCsitBd8PkZ0O7_12synap_server5cache7l2_diskNtB6_11L2DiskCache3get0Ba_
FN:224,_RNCNvMs_NtNtCsitBd8PkZ0O7_12synap_server5cache7l2_diskNtB6_11L2DiskCache5clear0Ba_
FN:146,_RNCNvMs_NtNtCsitBd8PkZ0O7_12synap_server5cache7l2_diskNtB6_11L2DiskCache6insert0Ba_
FN:201,_RNCNvMs_NtNtCsitBd8PkZ0O7_12synap_server5cache7l2_diskNtB6_11L2DiskCache9evict_lfu0Ba_
FN:91,_RNCNvMs_NtNtCsitBd8PkZ0O7_12synap_server5cache7l2_diskNtB6_11L2DiskCache10load_index0Ba_
FN:98,_RNCNvMs_NtNtCsitBd8PkZ0O7_12synap_server5cache7l2_diskNtB6_11L2DiskCache10load_indexs0_0Ba_
FN:95,_RNCNvMs_NtNtCsitBd8PkZ0O7_12synap_server5cache7l2_diskNtB6_11L2DiskCache10load_indexs_0Ba_
FN:107,_RNCNvMs_NtNtCsitBd8PkZ0O7_12synap_server5cache7l2_diskNtB6_11L2DiskCache10save_index0Ba_
FN:109,_RNCNvMs_NtNtCsitBd8PkZ0O7_12synap_server5cache7l2_diskNtB6_11L2DiskCache10save_indexs_0Ba_
FN:56,_RNCNvMs_NtNtCsitBd8PkZ0O7_12synap_server5cache7l2_diskNtB6_11L2DiskCache3new0Ba_
FN:72,_RNCNvMs_NtNtCsitBd8PkZ0O7_12synap_server5cache7l2_diskNtB6_11L2DiskCache3news0_0Ba_
FN:66,_RNCNvMs_NtNtCsitBd8PkZ0O7_12synap_server5cache7l2_diskNtB6_11L2DiskCache3news_0Ba_
FN:84,_RNvMs_NtNtCsitBd8PkZ0O7_12synap_server5cache7l2_diskNtB4_11L2DiskCache10load_index
FN:102,_RNvMs_NtNtCsitBd8PkZ0O7_12synap_server5cache7l2_diskNtB4_11L2DiskCache10save_index
FN:115,_RNvMs_NtNtCsitBd8PkZ0O7_12synap_server5cache7l2_diskNtB4_11L2DiskCache3get
FN:54,_RNvMs_NtNtCsitBd8PkZ0O7_12synap_server5cache7l2_diskNtB4_11L2DiskCache3new
FN:224,_RNvMs_NtNtCsitBd8PkZ0O7_12synap_server5cache7l2_diskNtB4_11L2DiskCache5clear
FN:240,_RNvMs_NtNtCsitBd8PkZ0O7_12synap_server5cache7l2_diskNtB4_11L2DiskCache5stats
FN:146,_RNvMs_NtNtCsitBd8PkZ0O7_12synap_server5cache7l2_diskNtB4_11L2DiskCache6insert
FN:201,_RNvMs_NtNtCsitBd8PkZ0O7_12synap_server5cache7l2_diskNtB4_11L2DiskCache9evict_lfu
FN:34,_RNvXNtNtCsitBd8PkZ0O7_12synap_server5cache7l2_diskNtB2_13L2CacheConfigNtNtCsluXpZPV6FGj_4core7default7Default7default
FN:127,_RNCNCNvMs_NtNtCsfrV5S290jXb_12synap_server5cache7l2_diskNtB8_11L2DiskCache3get00Bc_
FN:131,_RNCNCNvMs_NtNtCsfrV5S290jXb_12synap_server5cache7l2_diskNtB8_11L2DiskCache3get0s_0Bc_
FN:163,_RNCNCNvMs_NtNtCsfrV5S290jXb_12synap_server5cache7l2_diskNtB8_11L2DiskCache6insert00Bc_
FN:169,_RNCNCNvMs_NtNtCsfrV5S290jXb_12synap_server5cache7l2_diskNtB8_11L2DiskCache6insert0s0_0Bc_
FN:166,_RNCNCNvMs_NtNtCsfrV5S290jXb_12synap_server5cache7l2_diskNtB8_11L2DiskCache6insert0s_0Bc_
FN:208,_RNCNCNvMs_NtNtCsfrV5S290jXb_12synap_server5cache7l2_diskNtB8_11L2DiskCache9evict_lfu0s_0Bc_
FN:91,_RNCNvMs_NtNtCsfrV5S290jXb_12synap_server5cache7l2_diskNtB6_11L2DiskCache10load_index0Ba_
FN:98,_RNCNvMs_NtNtCsfrV5S290jXb_12synap_server5cache7l2_diskNtB6_11L2DiskCache10load_indexs0_0Ba_
FN:95,_RNCNvMs_NtNtCsfrV5S290jXb_12synap_server5cache7l2_diskNtB6_11L2DiskCache10load_indexs_0Ba_
FN:107,_RNCNvMs_NtNtCsfrV5S290jXb_12synap_server5cache7l2_diskNtB6_11L2DiskCache10save_index0Ba_
FN:109,_RNCNvMs_NtNtCsfrV5S290jXb_12synap_server5cache7l2_diskNtB6_11L2DiskCache10save_indexs_0Ba_
FN:115,_RNCNvMs_NtNtCsfrV5S290jXb_12synap_server5cache7l2_diskNtB6_11L2DiskCache3get0Ba_
FN:56,_RNCNvMs_NtNtCsfrV5S290jXb_12synap_server5cache7l2_diskNtB6_11L2DiskCache3new0Ba_
FN:72,_RNCNvMs_NtNtCsfrV5S290jXb_12synap_server5cache7l2_diskNtB6_11L2DiskCache3news0_0Ba_
FN:66,_RNCNvMs_NtNtCsfrV5S290jXb_12synap_server5cache7l2_diskNtB6_11L2DiskCache3news_0Ba_
FN:146,_RNCNvMs_NtNtCsfrV5S290jXb_12synap_server5cache7l2_diskNtB6_11L2DiskCache6insert0Ba_
FN:201,_RNCNvMs_NtNtCsfrV5S290jXb_12synap_server5cache7l2_diskNtB6_11L2DiskCache9evict_lfu0Ba_
FN:84,_RNvMs_NtNtCsfrV5S290jXb_12synap_server5cache7l2_diskNtB4_11L2DiskCache10load_index
FN:102,_RNvMs_NtNtCsfrV5S290jXb_12synap_server5cache7l2_diskNtB4_11L2DiskCache10save_index
FN:115,_RNvMs_NtNtCsfrV5S290jXb_12synap_server5cache7l2_diskNtB4_11L2DiskCache3get
FN:54,_RNvMs_NtNtCsfrV5S290jXb_12synap_server5cache7l2_diskNtB4_11L2DiskCache3new
FN:240,_RNvMs_NtNtCsfrV5S290jXb_12synap_server5cache7l2_diskNtB4_11L2DiskCache5stats
FN:146,_RNvMs_NtNtCsfrV5S290jXb_12synap_server5cache7l2_diskNtB4_11L2DiskCache6insert
FN:201,_RNvMs_NtNtCsfrV5S290jXb_12synap_server5cache7l2_diskNtB4_11L2DiskCache9evict_lfu
FN:271,_RNCNvNtNtNtCsfrV5S290jXb_12synap_server5cache7l2_disk5testss_19test_l2_cache_basic0B9_
FN:304,_RNCNvNtNtNtCsfrV5S290jXb_12synap_server5cache7l2_disk5testss_22test_l2_cache_eviction0B9_
FN:271,_RNvNtNtNtCsfrV5S290jXb_12synap_server5cache7l2_disk5testss_19test_l2_cache_basic
FN:304,_RNvNtNtNtCsfrV5S290jXb_12synap_server5cache7l2_disk5testss_22test_l2_cache_eviction
FN:232,_RNCNCNvMs_NtNtCsfrV5S290jXb_12synap_server5cache7l2_diskNtB8_11L2DiskCache5clear00Bc_
FN:224,_RNCNvMs_NtNtCsfrV5S290jXb_12synap_server5cache7l2_diskNtB6_11L2DiskCache5clear0Ba_
FN:224,_RNvMs_NtNtCsfrV5S290jXb_12synap_server5cache7l2_diskNtB4_11L2DiskCache5clear
FN:34,_RNvXNtNtCsfrV5S290jXb_12synap_server5cache7l2_diskNtB2_13L2CacheConfigNtNtCsluXpZPV6FGj_4core7default7Default7default
FNDA:0,_RNCNCNvMs_NtNtCsitBd8PkZ0O7_12synap_server5cache7l2_diskNtB8_11L2DiskCache3get00Bc_
FNDA:0,_RNCNCNvMs_NtNtCsitBd8PkZ0O7_12synap_server5cache7l2_diskNtB8_11L2DiskCache3get0s_0Bc_
FNDA:0,_RNCNCNvMs_NtNtCsitBd8PkZ0O7_12synap_server5cache7l2_diskNtB8_11L2DiskCache5clear00Bc_
FNDA:0,_RNCNCNvMs_NtNtCsitBd8PkZ0O7_12synap_server5cache7l2_diskNtB8_11L2DiskCache6insert00Bc_
FNDA:0,_RNCNCNvMs_NtNtCsitBd8PkZ0O7_12synap_server5cache7l2_diskNtB8_11L2DiskCache6insert0s0_0Bc_
FNDA:0,_RNCNCNvMs_NtNtCsitBd8PkZ0O7_12synap_server5cache7l2_diskNtB8_11L2DiskCache6insert0s_0Bc_
FNDA:0,_RNCNCNvMs_NtNtCsitBd8PkZ0O7_12synap_server5cache7l2_diskNtB8_11L2DiskCache9evict_lfu0s_0Bc_
FNDA:0,_RNCNvMs_NtNtCsitBd8PkZ0O7_12synap_server5cache7l2_diskNtB6_11L2DiskCache3get0Ba_
FNDA:0,_RNCNvMs_NtNtCsitBd8PkZ0O7_12synap_server5cache7l2_diskNtB6_11L2DiskCache5clear0Ba_
FNDA:0,_RNCNvMs_NtNtCsitBd8PkZ0O7_12synap_server5cache7l2_diskNtB6_11L2DiskCache6insert0Ba_
FNDA:0,_RNCNvMs_NtNtCsitBd8PkZ0O7_12synap_server5cache7l2_diskNtB6_11L2DiskCache9evict_lfu0Ba_
FNDA:0,_RNCNvMs_NtNtCsitBd8PkZ0O7_12synap_server5cache7l2_diskNtB6_11L2DiskCache10load_index0Ba_
FNDA:0,_RNCNvMs_NtNtCsitBd8PkZ0O7_12synap_server5cache7l2_diskNtB6_11L2DiskCache10load_indexs0_0Ba_
FNDA:0,_RNCNvMs_NtNtCsitBd8PkZ0O7_12synap_server5cache7l2_diskNtB6_11L2DiskCache10load_indexs_0Ba_
FNDA:0,_RNCNvMs_NtNtCsitBd8PkZ0O7_12synap_server5cache7l2_diskNtB6_11L2DiskCache10save_index0Ba_
FNDA:0,_RNCNvMs_NtNtCsitBd8PkZ0O7_12synap_server5cache7l2_diskNtB6_11L2DiskCache10save_indexs_0Ba_
FNDA:0,_RNCNvMs_NtNtCsitBd8PkZ0O7_12synap_server5cache7l2_diskNtB6_11L2DiskCache3new0Ba_
FNDA:0,_RNCNvMs_NtNtCsitBd8PkZ0O7_12synap_server5cache7l2_diskNtB6_11L2DiskCache3news0_0Ba_
FNDA:0,_RNCNvMs_NtNtCsitBd8PkZ0O7_12synap_server5cache7l2_diskNtB6_11L2DiskCache3news_0Ba_
FNDA:0,_RNvMs_NtNtCsitBd8PkZ0O7_12synap_server5cache7l2_diskNtB4_11L2DiskCache10load_index
FNDA:0,_RNvMs_NtNtCsitBd8PkZ0O7_12synap_server5cache7l2_diskNtB4_11L2DiskCache10save_index
FNDA:0,_RNvMs_NtNtCsitBd8PkZ0O7_12synap_server5cache7l2_diskNtB4_11L2DiskCache3get
FNDA:0,_RNvMs_NtNtCsitBd8PkZ0O7_12synap_server5cache7l2_diskNtB4_11L2DiskCache3new
FNDA:0,_RNvMs_NtNtCsitBd8PkZ0O7_12synap_server5cache7l2_diskNtB4_11L2DiskCache5clear
FNDA:0,_RNvMs_NtNtCsitBd8PkZ0O7_12synap_server5cache7l2_diskNtB4_11L2DiskCache5stats
FNDA:0,_RNvMs_NtNtCsitBd8PkZ0O7_12synap_server5cache7l2_diskNtB4_11L2DiskCache6insert
FNDA:0,_RNvMs_NtNtCsitBd8PkZ0O7_12synap_server5cache7l2_diskNtB4_11L2DiskCache9evict_lfu
FNDA:0,_RNvXNtNtCsitBd8PkZ0O7_12synap_server5cache7l2_diskNtB2_13L2CacheConfigNtNtCsluXpZPV6FGj_4core7default7Default7default
FNDA:0,_RNCNCNvMs_NtNtCsfrV5S290jXb_12synap_server5cache7l2_diskNtB8_11L2DiskCache3get00Bc_
FNDA:0,_RNCNCNvMs_NtNtCsfrV5S290jXb_12synap_server5cache7l2_diskNtB8_11L2DiskCache3get0s_0Bc_
FNDA:0,_RNCNCNvMs_NtNtCsfrV5S290jXb_12synap_server5cache7l2_diskNtB8_11L2DiskCache6insert00Bc_
FNDA:0,_RNCNCNvMs_NtNtCsfrV5S290jXb_12synap_server5cache7l2_diskNtB8_11L2DiskCache6insert0s0_0Bc_
FNDA:0,_RNCNCNvMs_NtNtCsfrV5S290jXb_12synap_server5cache7l2_diskNtB8_11L2DiskCache6insert0s_0Bc_
FNDA:0,_RNCNCNvMs_NtNtCsfrV5S290jXb_12synap_server5cache7l2_diskNtB8_11L2DiskCache9evict_lfu0s_0Bc_
FNDA:0,_RNCNvMs_NtNtCsfrV5S290jXb_12synap_server5cache7l2_diskNtB6_11L2DiskCache10load_index0Ba_
FNDA:0,_RNCNvMs_NtNtCsfrV5S290jXb_12synap_server5cache7l2_diskNtB6_11L2DiskCache10load_indexs0_0Ba_
FNDA:0,_RNCNvMs_NtNtCsfrV5S290jXb_12synap_server5cache7l2_diskNtB6_11L2DiskCache10load_indexs_0Ba_
FNDA:0,_RNCNvMs_NtNtCsfrV5S290jXb_12synap_server5cache7l2_diskNtB6_11L2DiskCache10save_index0Ba_
FNDA:0,_RNCNvMs_NtNtCsfrV5S290jXb_12synap_server5cache7l2_diskNtB6_11L2DiskCache10save_indexs_0Ba_
FNDA:4,_RNCNvMs_NtNtCsfrV5S290jXb_12synap_server5cache7l2_diskNtB6_11L2DiskCache3get0Ba_
FNDA:0,_RNCNvMs_NtNtCsfrV5S290jXb_12synap_server5cache7l2_diskNtB6_11L2DiskCache3new0Ba_
FNDA:4,_RNCNvMs_NtNtCsfrV5S290jXb_12synap_server5cache7l2_diskNtB6_11L2DiskCache3news0_0Ba_
FNDA:0,_RNCNvMs_NtNtCsfrV5S290jXb_12synap_server5cache7l2_diskNtB6_11L2DiskCache3news_0Ba_
FNDA:10,_RNCNvMs_NtNtCsfrV5S290jXb_12synap_server5cache7l2_diskNtB6_11L2DiskCache6insert0Ba_
FNDA:0,_RNCNvMs_NtNtCsfrV5S290jXb_12synap_server5cache7l2_diskNtB6_11L2DiskCache9evict_lfu0Ba_
FNDA:4,_RNvMs_NtNtCsfrV5S290jXb_12synap_server5cache7l2_diskNtB4_11L2DiskCache10load_index
FNDA:0,_RNvMs_NtNtCsfrV5S290jXb_12synap_server5cache7l2_diskNtB4_11L2DiskCache10save_index
FNDA:4,_RNvMs_NtNtCsfrV5S290jXb_12synap_server5cache7l2_diskNtB4_11L2DiskCache3get
FNDA:4,_RNvMs_NtNtCsfrV5S290jXb_12synap_server5cache7l2_diskNtB4_11L2DiskCache3new
FNDA:4,_RNvMs_NtNtCsfrV5S290jXb_12synap_server5cache7l2_diskNtB4_11L2DiskCache5stats
FNDA:10,_RNvMs_NtNtCsfrV5S290jXb_12synap_server5cache7l2_diskNtB4_11L2DiskCache6insert
FNDA:0,_RNvMs_NtNtCsfrV5S290jXb_12synap_server5cache7l2_diskNtB4_11L2DiskCache9evict_lfu
FNDA:2,_RNCNvNtNtNtCsfrV5S290jXb_12synap_server5cache7l2_disk5testss_19test_l2_cache_basic0B9_
FNDA:2,_RNCNvNtNtNtCsfrV5S290jXb_12synap_server5cache7l2_disk5testss_22test_l2_cache_eviction0B9_
FNDA:2,_RNvNtNtNtCsfrV5S290jXb_12synap_server5cache7l2_disk5testss_19test_l2_cache_basic
FNDA:2,_RNvNtNtNtCsfrV5S290jXb_12synap_server5cache7l2_disk5testss_22test_l2_cache_eviction
FNDA:0,_RNCNCNvMs_NtNtCsfrV5S290jXb_12synap_server5cache7l2_diskNtB8_11L2DiskCache5clear00Bc_
FNDA:0,_RNCNvMs_NtNtCsfrV5S290jXb_12synap_server5cache7l2_diskNtB6_11L2DiskCache5clear0Ba_
FNDA:0,_RNvMs_NtNtCsfrV5S290jXb_12synap_server5cache7l2_diskNtB4_11L2DiskCache5clear
FNDA:0,_RNvXNtNtCsfrV5S290jXb_12synap_server5cache7l2_diskNtB2_13L2CacheConfigNtNtCsluXpZPV6FGj_4core7default7Default7default
FNF:32
FNH:12
DA:34,0
DA:35,0
DA:36,0
DA:37,0
DA:38,0
DA:39,0
DA:40,0
DA:54,4
DA:56,4
DA:59,4
DA:60,4
DA:61,4
DA:62,4
DA:63,4
DA:64,4
DA:65,4
DA:66,4
DA:69,4
DA:72,4
DA:74,4
DA:75,4
DA:76,4
DA:77,4
DA:78,4
DA:79,4
DA:80,4
DA:81,4
DA:84,4
DA:85,4
DA:87,4
DA:88,4
DA:89,0
DA:91,0
DA:93,0
DA:94,0
DA:95,0
DA:97,0
DA:98,0
DA:99,4
DA:102,0
DA:103,0
DA:104,0
DA:106,0
DA:107,0
DA:109,0
DA:111,0
DA:112,0
DA:115,4
DA:117,4
DA:118,4
DA:119,4
DA:122,4
DA:123,4
DA:125,4
DA:126,4
DA:127,4
DA:129,4
DA:130,4
DA:131,4
DA:134,4
DA:135,4
DA:136,4
DA:137,4
DA:139,4
DA:141,0
DA:143,4
DA:146,10
DA:147,10
DA:150,10
DA:151,10
DA:153,10
DA:154,0
DA:155,10
DA:158,10
DA:159,10
DA:160,10
DA:162,10
DA:163,10
DA:165,10
DA:166,10
DA:168,10
DA:169,10
DA:171,10
DA:175,10
DA:176,10
DA:179,10
DA:180,10
DA:181,10
DA:182,10
DA:183,10
DA:184,10
DA:185,10
DA:186,10
DA:187,10
DA:188,10
DA:190,10
DA:193,10
DA:194,0
DA:195,10
DA:197,10
DA:198,10
DA:201,0
DA:202,0
DA:203,0
DA:205,0
DA:206,0
DA:207,0
DA:208,0
DA:211,0
DA:212,0
DA:214,0
DA:215,0
DA:216,0
DA:217,0
DA:218,0
DA:220,0
DA:221,0
DA:224,0
DA:225,0
DA:226,0
DA:227,0
DA:230,0
DA:231,0
DA:232,0
DA:234,0
DA:236,0
DA:237,0
DA:240,4
DA:241,4
DA:242,4
DA:244,4
DA:245,4
DA:246,4
DA:247,4
DA:248,4
DA:249,4
DA:250,4
DA:251,4
DA:252,4
DA:271,2
DA:272,2
DA:273,2
DA:274,2
DA:275,2
DA:276,2
DA:277,2
DA:279,2
DA:282,2
DA:283,2
DA:284,2
DA:285,2
DA:286,2
DA:287,2
DA:288,2
DA:289,2
DA:292,2
DA:293,2
DA:295,2
DA:296,2
DA:299,2
DA:300,2
DA:301,2
DA:304,2
DA:305,2
DA:306,2
DA:307,2
DA:308,2
DA:309,2
DA:310,2
DA:312,2
DA:315,2
DA:316,2
DA:317,2
DA:318,2
DA:319,2
DA:320,2
DA:321,2
DA:322,2
DA:323,2
DA:324,2
DA:325,2
DA:326,2
DA:328,2
DA:329,2
BRF:0
BRH:0
LF:207
LH:140
end_of_record
SF:/mnt/f/Node/hivellm/synap/synap-server/src/compression/compressor.rs
FN:74,_RNvMs_NtNtCsfrV5S290jXb_12synap_server11compression10compressorNtB4_10Compressor10decompress
FN:87,_RNvMs_NtNtCsfrV5S290jXb_12synap_server11compression10compressorNtB4_10Compressor12compress_lz4
FN:122,_RNvMs_NtNtCsfrV5S290jXb_12synap_server11compression10compressorNtB4_10Compressor13compress_zstd
FN:108,_RNvMs_NtNtCsfrV5S290jXb_12synap_server11compression10compressorNtB4_10Compressor14decompress_lz4
FN:137,_RNvMs_NtNtCsfrV5S290jXb_12synap_server11compression10compressorNtB4_10Compressor15decompress_zstd
FN:157,_RNvMs_NtNtCsfrV5S290jXb_12synap_server11compression10compressorNtB4_10Compressor15should_compress
FN:149,_RNvMs_NtNtCsfrV5S290jXb_12synap_server11compression10compressorNtB4_10Compressor17compression_ratio
FN:49,_RNvMs_NtNtCsfrV5S290jXb_12synap_server11compression10compressorNtB4_10Compressor3new
FN:54,_RNvMs_NtNtCsfrV5S290jXb_12synap_server11compression10compressorNtB4_10Compressor8compress
FN:32,_RNvXNtNtCsfrV5S290jXb_12synap_server11compression10compressorNtB2_17CompressionConfigNtNtCsluXpZPV6FGj_4core7default7Default7default
FN:167,_RNvNtNtNtCsfrV5S290jXb_12synap_server11compression10compressor5testss_20test_lz4_compression
FN:254,_RNvNtNtNtCsfrV5S290jXb_12synap_server11compression10compressor5testss_20test_should_compress
FN:189,_RNvNtNtNtCsfrV5S290jXb_12synap_server11compression10compressor5testss_21test_zstd_compression
FN:243,_RNvNtNtNtCsfrV5S290jXb_12synap_server11compression10compressor5testss_22test_compression_ratio
FN:212,_RNvNtNtNtCsfrV5S290jXb_12synap_server11compression10compressor5testss_24test_skip_small_payloads
FN:228,_RNvNtNtNtCsfrV5S290jXb_12synap_server11compression10compressor5testss_25test_compression_disabled
FNDA:4,_RNvMs_NtNtCsfrV5S290jXb_12synap_server11compression10compressorNtB4_10Compressor10decompress
FNDA:2,_RNvMs_NtNtCsfrV5S290jXb_12synap_server11compression10compressorNtB4_10Compressor12compress_lz4
FNDA:2,_RNvMs_NtNtCsfrV5S290jXb_12synap_server11compression10compressorNtB4_10Compressor13compress_zstd
FNDA:2,_RNvMs_NtNtCsfrV5S290jXb_12synap_server11compression10compressorNtB4_10Compressor14decompress_lz4
FNDA:2,_RNvMs_NtNtCsfrV5S290jXb_12synap_server11compression10compressorNtB4_10Compressor15decompress_zstd
FNDA:4,_RNvMs_NtNtCsfrV5S290jXb_12synap_server11compression10compressorNtB4_10Compressor15should_compress
FNDA:4,_RNvMs_NtNtCsfrV5S290jXb_12synap_server11compression10compressorNtB4_10Compressor17compression_ratio
FNDA:12,_RNvMs_NtNtCsfrV5S290jXb_12synap_server11compression10compressorNtB4_10Compressor3new
FNDA:8,_RNvMs_NtNtCsfrV5S290jXb_12synap_server11compression10compressorNtB4_10Compressor8compress
FNDA:12,_RNvXNtNtCsfrV5S290jXb_12synap_server11compression10compressorNtB2_17CompressionConfigNtNtCsluXpZPV6FGj_4core7default7Default7default
FNDA:2,_RNvNtNtNtCsfrV5S290jXb_12synap_server11compression10compressor5testss_20test_lz4_compression
FNDA:2,_RNvNtNtNtCsfrV5S290jXb_12synap_server11compression10compressor5testss_20test_should_compress
FNDA:2,_RNvNtNtNtCsfrV5S290jXb_12synap_server11compression10compressor5testss_21test_zstd_compression
FNDA:2,_RNvNtNtNtCsfrV5S290jXb_12synap_server11compression10compressor5testss_22test_compression_ratio
FNDA:2,_RNvNtNtNtCsfrV5S290jXb_12synap_server11compression10compressor5testss_24test_skip_small_payloads
FNDA:2,_RNvNtNtNtCsfrV5S290jXb_12synap_server11compression10compressor5testss_25test_compression_disabled
FNF:16
FNH:16
DA:32,12
DA:33,12
DA:34,12
DA:35,12
DA:36,12
DA:37,12
DA:38,12
DA:39,12
DA:49,12
DA:50,12
DA:51,12
DA:54,8
DA:55,8
DA:56,8
DA:57,8
DA:58,8
DA:59,8
DA:60,4
DA:61,4
DA:62,4
DA:64,4
DA:66,4
DA:67,0
DA:68,2
DA:69,2
DA:71,8
DA:74,4
DA:75,4
DA:76,4
DA:77,4
DA:78,4
DA:79,4
DA:80,0
DA:81,2
DA:82,2
DA:84,4
DA:87,2
DA:88,2
DA:89,2
DA:90,2
DA:92,2
DA:93,2
DA:94,2
DA:96,2
DA:97,2
DA:98,0
DA:99,0
DA:100,0
DA:104,2
DA:105,2
DA:108,2
DA:109,2
DA:110,2
DA:111,2
DA:113,2
DA:114,0
DA:115,0
DA:116,0
DA:118,2
DA:119,2
DA:122,2
DA:123,2
DA:125,2
DA:126,2
DA:127,0
DA:128,0
DA:129,0
DA:133,2
DA:134,2
DA:137,2
DA:138,2
DA:140,2
DA:141,0
DA:142,0
DA:143,0
DA:145,2
DA:146,2
DA:149,4
DA:150,4
DA:151,0
DA:152,4
DA:153,4
DA:154,4
DA:157,4
DA:158,4
DA:159,4
DA:167,2
DA:168,2
DA:169,2
DA:170,2
DA:171,2
DA:172,2
DA:173,2
DA:175,2
DA:176,2
DA:177,2
DA:178,2
DA:180,2
DA:182,2
DA:183,2
DA:184,2
DA:185,2
DA:186,2
DA:189,2
DA:190,2
DA:191,2
DA:192,2
DA:193,2
DA:194,2
DA:195,2
DA:196,2
DA:198,2
DA:199,2
DA:200,2
DA:201,2
DA:203,2
DA:205,2
DA:206,2
DA:207,2
DA:208,2
DA:209,2
DA:212,2
DA:213,2
DA:214,2
DA:215,2
DA:216,2
DA:217,2
DA:218,2
DA:220,2
DA:221,2
DA:224,2
DA:225,2
DA:228,2
DA:229,2
DA:230,2
DA:231,2
DA:232,2
DA:233,2
DA:235,2
DA:236,2
DA:239,2
DA:240,2
DA:243,2
DA:244,2
DA:246,2
DA:247,2
DA:249,2
DA:250,2
DA:251,2
DA:254,2
DA:255,2
DA:256,2
DA:257,2
DA:258,2
DA:259,2
DA:260,2
DA:262,2
DA:263,2
DA:265,2
DA:266,2
DA:267,2
BRF:0
BRH:0
LF:161
LH:146
end_of_record
SF:/mnt/f/Node/hivellm/synap/synap-server/src/config.rs
FN:128,_RINvMs_NtCsitBd8PkZ0O7_12synap_server6configNtB5_12ServerConfig9from_filepEB7_
FN:155,_RNvMs_NtCsitBd8PkZ0O7_12synap_server6configNtB4_12ServerConfig11server_addr
FN:135,_RNvMs_NtCsitBd8PkZ0O7_12synap_server6configNtB4_12ServerConfig12to_kv_config
FN:145,_RNvMs_NtCsitBd8PkZ0O7_12synap_server6configNtB4_12ServerConfig15to_queue_config
FN:81,_RNvXNtCsitBd8PkZ0O7_12synap_server6configNtB2_12ServerConfigNtNtCsluXpZPV6FGj_4core7default7Default7default
FN:128,_RINvMs_NtCsitBd8PkZ0O7_12synap_server6configNtB5_12ServerConfig9from_fileReECsajWLPi5pu5Y_12config_tests
FN:128,_RINvMs_NtCsitBd8PkZ0O7_12synap_server6configNtB5_12ServerConfig9from_fileRNtNtCsjftXE05v0h2_5alloc6string6StringECs8Vbe8MEPjyv_12synap_server
FN:128,_RINvMs_NtCsfrV5S290jXb_12synap_server6configNtB5_12ServerConfig9from_filepEB7_
FN:155,_RNvMs_NtCsfrV5S290jXb_12synap_server6configNtB4_12ServerConfig11server_addr
FN:135,_RNvMs_NtCsfrV5S290jXb_12synap_server6configNtB4_12ServerConfig12to_kv_config
FN:145,_RNvMs_NtCsfrV5S290jXb_12synap_server6configNtB4_12ServerConfig15to_queue_config
FN:81,_RNvXNtCsfrV5S290jXb_12synap_server6configNtB2_12ServerConfigNtNtCsluXpZPV6FGj_4core7default7Default7default
FNDA:0,_RINvMs_NtCsitBd8PkZ0O7_12synap_server6configNtB5_12ServerConfig9from_filepEB7_
FNDA:2,_RNvMs_NtCsitBd8PkZ0O7_12synap_server6configNtB4_12ServerConfig11server_addr
FNDA:55,_RNvMs_NtCsitBd8PkZ0O7_12synap_server6configNtB4_12ServerConfig12to_kv_config
FNDA:1,_RNvMs_NtCsitBd8PkZ0O7_12synap_server6configNtB4_12ServerConfig15to_queue_config
FNDA:60,_RNvXNtCsitBd8PkZ0O7_12synap_server6configNtB2_12ServerConfigNtNtCsluXpZPV6FGj_4core7default7Default7default
FNDA:4,_RINvMs_NtCsitBd8PkZ0O7_12synap_server6configNtB5_12ServerConfig9from_fileReECsajWLPi5pu5Y_12config_tests
FNDA:0,_RINvMs_NtCsitBd8PkZ0O7_12synap_server6configNtB5_12ServerConfig9from_fileRNtNtCsjftXE05v0h2_5alloc6string6StringECs8Vbe8MEPjyv_12synap_server
FNDA:0,_RINvMs_NtCsfrV5S290jXb_12synap_server6configNtB5_12ServerConfig9from_filepEB7_
FNDA:0,_RNvMs_NtCsfrV5S290jXb_12synap_server6configNtB4_12ServerConfig11server_addr
FNDA:0,_RNvMs_NtCsfrV5S290jXb_12synap_server6configNtB4_12ServerConfig12to_kv_config
FNDA:0,_RNvMs_NtCsfrV5S290jXb_12synap_server6configNtB4_12ServerConfig15to_queue_config
FNDA:0,_RNvXNtCsfrV5S290jXb_12synap_server6configNtB2_12ServerConfigNtNtCsluXpZPV6FGj_4core7default7Default7default
FNF:5
FNH:5
DA:81,60
DA:82,60
DA:83,60
DA:84,60
DA:85,60
DA:86,60
DA:87,60
DA:88,60
DA:89,60
DA:90,60
DA:91,60
DA:92,60
DA:93,60
DA:94,60
DA:95,60
DA:96,60
DA:97,60
DA:98,60
DA:99,60
DA:100,60
DA:101,60
DA:102,60
DA:103,60
DA:104,60
DA:105,60
DA:106,60
DA:107,60
DA:108,60
DA:109,60
DA:110,60
DA:111,60
DA:112,60
DA:113,60
DA:114,60
DA:115,60
DA:116,60
DA:117,60
DA:118,60
DA:119,60
DA:120,60
DA:121,60
DA:122,60
DA:123,60
DA:128,4
DA:129,4
DA:130,3
DA:131,2
DA:132,4
DA:135,55
DA:136,55
DA:137,55
DA:138,55
DA:139,55
DA:140,55
DA:141,55
DA:142,55
DA:145,1
DA:146,1
DA:147,1
DA:148,1
DA:149,1
DA:150,1
DA:151,1
DA:152,1
DA:155,2
DA:156,2
DA:157,2
BRF:0
BRH:0
LF:67
LH:67
end_of_record
SF:/mnt/f/Node/hivellm/synap/synap-server/src/core/cache.rs
FN:92,_RNCNvMNtNtCsitBd8PkZ0O7_12synap_server4core5cacheNtB4_10CacheLayer3get0B8_
FN:104,_RNCNvMNtNtCsitBd8PkZ0O7_12synap_server4core5cacheNtB4_10CacheLayer3gets_0B8_
FN:125,_RNCNvMNtNtCsitBd8PkZ0O7_12synap_server4core5cacheNtB4_10CacheLayer3put0B8_
FN:166,_RNCNvMNtNtCsitBd8PkZ0O7_12synap_server4core5cacheNtB4_10CacheLayer6delete0B8_
FN:174,_RNvMNtNtCsitBd8PkZ0O7_12synap_server4core5cacheNtB2_10CacheLayer14invalidate_all
FN:196,_RNvMNtNtCsitBd8PkZ0O7_12synap_server4core5cacheNtB2_10CacheLayer17current_timestamp
FN:72,_RNvMNtNtCsitBd8PkZ0O7_12synap_server4core5cacheNtB2_10CacheLayer3get
FN:60,_RNvMNtNtCsitBd8PkZ0O7_12synap_server4core5cacheNtB2_10CacheLayer3new
FN:117,_RNvMNtNtCsitBd8PkZ0O7_12synap_server4core5cacheNtB2_10CacheLayer3put
FN:161,_RNvMNtNtCsitBd8PkZ0O7_12synap_server4core5cacheNtB2_10CacheLayer6delete
FN:189,_RNvMNtNtCsitBd8PkZ0O7_12synap_server4core5cacheNtB2_10CacheLayer9get_stats
FN:205,_RNvXs_NtNtCsitBd8PkZ0O7_12synap_server4core5cacheNtB4_10CacheLayerNtNtCsluXpZPV6FGj_4core7default7Default7default
FN:174,_RNvMNtNtCsfrV5S290jXb_12synap_server4core5cacheNtB2_10CacheLayer14invalidate_all
FN:196,_RNvMNtNtCsfrV5S290jXb_12synap_server4core5cacheNtB2_10CacheLayer17current_timestamp
FN:72,_RNvMNtNtCsfrV5S290jXb_12synap_server4core5cacheNtB2_10CacheLayer3get
FN:60,_RNvMNtNtCsfrV5S290jXb_12synap_server4core5cacheNtB2_10CacheLayer3new
FN:117,_RNvMNtNtCsfrV5S290jXb_12synap_server4core5cacheNtB2_10CacheLayer3put
FN:161,_RNvMNtNtCsfrV5S290jXb_12synap_server4core5cacheNtB2_10CacheLayer6delete
FN:189,_RNvMNtNtCsfrV5S290jXb_12synap_server4core5cacheNtB2_10CacheLayer9get_stats
FN:205,_RNvXs_NtNtCsfrV5S290jXb_12synap_server4core5cacheNtB4_10CacheLayerNtNtCsluXpZPV6FGj_4core7default7Default7default
FN:92,_RNCNvMNtNtCsfrV5S290jXb_12synap_server4core5cacheNtB4_10CacheLayer3get0B8_
FN:104,_RNCNvMNtNtCsfrV5S290jXb_12synap_server4core5cacheNtB4_10CacheLayer3gets_0B8_
FN:125,_RNCNvMNtNtCsfrV5S290jXb_12synap_server4core5cacheNtB4_10CacheLayer3put0B8_
FN:166,_RNCNvMNtNtCsfrV5S290jXb_12synap_server4core5cacheNtB4_10CacheLayer6delete0B8_
FN:230,_RNvNtNtNtCsfrV5S290jXb_12synap_server4core5cache5testss_15test_cache_miss
FN:275,_RNvNtNtNtCsfrV5S290jXb_12synap_server4core5cache5testss_17test_cache_delete
FN:216,_RNvNtNtNtCsfrV5S290jXb_12synap_server4core5cache5testss_18test_cache_put_get
FN:304,_RNvNtNtNtCsfrV5S290jXb_12synap_server4core5cache5testss_20test_cache_lru_order
FN:242,_RNvNtNtNtCsfrV5S290jXb_12synap_server4core5cache5testss_23test_cache_lru_eviction
FN:286,_RNvNtNtNtCsfrV5S290jXb_12synap_server4core5cache5testss_25test_cache_invalidate_all
FN:263,_RNvNtNtNtCsfrV5S290jXb_12synap_server4core5cache5testss_25test_cache_ttl_expiration
FNDA:1,_RNCNvMNtNtCsitBd8PkZ0O7_12synap_server4core5cacheNtB4_10CacheLayer3get0B8_
FNDA:59,_RNCNvMNtNtCsitBd8PkZ0O7_12synap_server4core5cacheNtB4_10CacheLayer3gets_0B8_
FNDA:0,_RNCNvMNtNtCsitBd8PkZ0O7_12synap_server4core5cacheNtB4_10CacheLayer3put0B8_
FNDA:1,_RNCNvMNtNtCsitBd8PkZ0O7_12synap_server4core5cacheNtB4_10CacheLayer6delete0B8_
FNDA:1,_RNvMNtNtCsitBd8PkZ0O7_12synap_server4core5cacheNtB2_10CacheLayer14invalidate_all
FNDA:29,_RNvMNtNtCsitBd8PkZ0O7_12synap_server4core5cacheNtB2_10CacheLayer17current_timestamp
FNDA:28,_RNvMNtNtCsitBd8PkZ0O7_12synap_server4core5cacheNtB2_10CacheLayer3get
FNDA:5,_RNvMNtNtCsitBd8PkZ0O7_12synap_server4core5cacheNtB2_10CacheLayer3new
FNDA:13,_RNvMNtNtCsitBd8PkZ0O7_12synap_server4core5cacheNtB2_10CacheLayer3put
FNDA:1,_RNvMNtNtCsitBd8PkZ0O7_12synap_server4core5cacheNtB2_10CacheLayer6delete
FNDA:0,_RNvMNtNtCsitBd8PkZ0O7_12synap_server4core5cacheNtB2_10CacheLayer9get_stats
FNDA:0,_RNvXs_NtNtCsitBd8PkZ0O7_12synap_server4core5cacheNtB4_10CacheLayerNtNtCsluXpZPV6FGj_4core7default7Default7default
FNDA:2,_RNvMNtNtCsfrV5S290jXb_12synap_server4core5cacheNtB2_10CacheLayer14invalidate_all
FNDA:46,_RNvMNtNtCsfrV5S290jXb_12synap_server4core5cacheNtB2_10CacheLayer17current_timestamp
FNDA:30,_RNvMNtNtCsfrV5S290jXb_12synap_server4core5cacheNtB2_10CacheLayer3get
FNDA:14,_RNvMNtNtCsfrV5S290jXb_12synap_server4core5cacheNtB2_10CacheLayer3new
FNDA:28,_RNvMNtNtCsfrV5S290jXb_12synap_server4core5cacheNtB2_10CacheLayer3put
FNDA:2,_RNvMNtNtCsfrV5S290jXb_12synap_server4core5cacheNtB2_10CacheLayer6delete
FNDA:8,_RNvMNtNtCsfrV5S290jXb_12synap_server4core5cacheNtB2_10CacheLayer9get_stats
FNDA:0,_RNvXs_NtNtCsfrV5S290jXb_12synap_server4core5cacheNtB4_10CacheLayerNtNtCsluXpZPV6FGj_4core7default7Default7default
FNDA:2,_RNCNvMNtNtCsfrV5S290jXb_12synap_server4core5cacheNtB4_10CacheLayer3get0B8_
FNDA:34,_RNCNvMNtNtCsfrV5S290jXb_12synap_server4core5cacheNtB4_10CacheLayer3gets_0B8_
FNDA:0,_RNCNvMNtNtCsfrV5S290jXb_12synap_server4core5cacheNtB4_10CacheLayer3put0B8_
FNDA:2,_RNCNvMNtNtCsfrV5S290jXb_12synap_server4core5cacheNtB4_10CacheLayer6delete0B8_
FNDA:2,_RNvNtNtNtCsfrV5S290jXb_12synap_server4core5cache5testss_15test_cache_miss
FNDA:2,_RNvNtNtNtCsfrV5S290jXb_12synap_server4core5cache5testss_17test_cache_delete
FNDA:2,_RNvNtNtNtCsfrV5S290jXb_12synap_server4core5cache5testss_18test_cache_put_get
FNDA:2,_RNvNtNtNtCsfrV5S290jXb_12synap_server4core5cache5testss_20test_cache_lru_order
FNDA:2,_RNvNtNtNtCsfrV5S290jXb_12synap_server4core5cache5testss_23test_cache_lru_eviction
FNDA:2,_RNvNtNtNtCsfrV5S290jXb_12synap_server4core5cache5testss_25test_cache_invalidate_all
FNDA:2,_RNvNtNtNtCsfrV5S290jXb_12synap_server4core5cache5testss_25test_cache_ttl_expiration
FNF:19
FNH:17
DA:60,19
DA:61,19
DA:62,19
DA:63,19
DA:64,19
DA:65,19
DA:66,19
DA:67,19
DA:68,19
DA:69,19
DA:72,58
DA:73,58
DA:74,58
DA:77,58
DA:78,31
DA:79,4
DA:81,27
DA:84,27
DA:85,27
DA:86,27
DA:90,31
DA:91,3
DA:92,3
DA:93,3
DA:94,3
DA:95,28
DA:98,28
DA:99,28
DA:100,28
DA:103,28
DA:104,93
DA:105,28
DA:107,28
DA:108,28
DA:110,28
DA:112,0
DA:114,58
DA:117,41
DA:118,41
DA:119,41
DA:121,41
DA:124,41
DA:125,0
DA:126,0
DA:127,0
DA:128,0
DA:129,41
DA:132,45
DA:133,4
DA:134,4
DA:135,4
DA:136,4
DA:137,4
DA:138,0
DA:139,0
DA:143,41
DA:144,41
DA:145,41
DA:146,41
DA:147,41
DA:148,41
DA:150,41
DA:151,41
DA:153,41
DA:154,41
DA:155,41
DA:157,41
DA:158,41
DA:161,3
DA:162,3
DA:163,3
DA:165,3
DA:166,3
DA:167,3
DA:168,3
DA:169,3
DA:170,0
DA:171,3
DA:174,3
DA:175,3
DA:176,3
DA:178,3
DA:179,3
DA:180,3
DA:182,3
DA:183,3
DA:185,3
DA:186,3
DA:189,8
DA:190,8
DA:192,8
DA:193,8
DA:196,75
DA:197,75
DA:198,75
DA:199,75
DA:200,75
DA:201,75
DA:205,0
DA:207,0
DA:208,0
DA:216,2
DA:217,2
DA:219,2
DA:221,2
DA:222,2
DA:224,2
DA:225,2
DA:226,2
DA:227,2
DA:230,2
DA:231,2
DA:233,2
DA:234,2
DA:236,2
DA:237,2
DA:238,2
DA:239,2
DA:242,2
DA:243,2
DA:246,2
DA:247,2
DA:248,2
DA:251,2
DA:253,2
DA:254,2
DA:255,2
DA:256,2
DA:258,2
DA:259,2
DA:260,2
DA:263,2
DA:264,2
DA:266,2
DA:267,2
DA:270,2
DA:271,2
DA:272,2
DA:275,2
DA:276,2
DA:278,2
DA:279,2
DA:281,2
DA:282,2
DA:283,2
DA:286,2
DA:287,2
DA:289,2
DA:290,2
DA:291,2
DA:293,2
DA:295,2
DA:296,2
DA:297,2
DA:299,2
DA:300,2
DA:301,2
DA:304,2
DA:305,2
DA:307,2
DA:308,2
DA:309,2
DA:312,2
DA:315,2
DA:317,2
DA:318,2
DA:319,0
DA:321,2
DA:322,2
DA:323,0
DA:325,2
BRF:0
BRH:0
LF:175
LH:161
end_of_record
SF:/mnt/f/Node/hivellm/synap/synap-server/src/core/consumer_group.rs
FN:555,_RNCNvMs1_NtNtCsitBd8PkZ0O7_12synap_server4core14consumer_groupNtB7_20ConsumerGroupManager12delete_group0Bb_
FN:318,_RNCNCNvMs0_NtNtCsitBd8PkZ0O7_12synap_server4core14consumer_groupNtB9_13ConsumerGroup13assign_stickys0_00Bd_
FN:533,_RNCNCNvMs1_NtNtCsitBd8PkZ0O7_12synap_server4core14consumer_groupNtB9_20ConsumerGroupManager10get_offset00Bd_
FN:453,_RNCNCNvMs1_NtNtCsitBd8PkZ0O7_12synap_server4core14consumer_groupNtB9_20ConsumerGroupManager10join_group00Bd_
FN:544,_RNCNCNvMs1_NtNtCsitBd8PkZ0O7_12synap_server4core14consumer_groupNtB9_20ConsumerGroupManager11group_stats00Bd_
FN:545,_RNCNCNvMs1_NtNtCsitBd8PkZ0O7_12synap_server4core14consumer_groupNtB9_20ConsumerGroupManager11group_stats0s_0Bd_
FN:464,_RNCNCNvMs1_NtNtCsitBd8PkZ0O7_12synap_server4core14consumer_groupNtB9_20ConsumerGroupManager11leave_group00Bd_
FN:429,_RNCNCNvMs1_NtNtCsitBd8PkZ0O7_12synap_server4core14consumer_groupNtB9_20ConsumerGroupManager12create_group00Bd_
FN:517,_RNCNCNvMs1_NtNtCsitBd8PkZ0O7_12synap_server4core14consumer_groupNtB9_20ConsumerGroupManager13commit_offset00Bd_
FN:501,_RNCNCNvMs1_NtNtCsitBd8PkZ0O7_12synap_server4core14consumer_groupNtB9_20ConsumerGroupManager14get_assignment00Bd_
FN:486,_RNCNCNvMs1_NtNtCsitBd8PkZ0O7_12synap_server4core14consumer_groupNtB9_20ConsumerGroupManager15rebalance_group00Bd_
FN:583,_RNCNCNvMs1_NtNtCsitBd8PkZ0O7_12synap_server4core14consumer_groupNtB9_20ConsumerGroupManager20start_rebalance_task00Bd_
FN:475,_RNCNCNvMs1_NtNtCsitBd8PkZ0O7_12synap_server4core14consumer_groupNtB9_20ConsumerGroupManager9heartbeat00Bd_
FN:282,_RNCNvMs0_NtNtCsitBd8PkZ0O7_12synap_server4core14consumer_groupNtB7_13ConsumerGroup13assign_sticky0Bb_
FN:315,_RNCNvMs0_NtNtCsitBd8PkZ0O7_12synap_server4core14consumer_groupNtB7_13ConsumerGroup13assign_stickys0_0Bb_
FN:311,_RNCNvMs0_NtNtCsitBd8PkZ0O7_12synap_server4core14consumer_groupNtB7_13ConsumerGroup13assign_stickys_0Bb_
FN:335,_RNCNvMs0_NtNtCsitBd8PkZ0O7_12synap_server4core14consumer_groupNtB7_13ConsumerGroup14get_assignment0Bb_
FN:336,_RNCNvMs0_NtNtCsitBd8PkZ0O7_12synap_server4core14consumer_groupNtB7_13ConsumerGroup14get_assignments_0Bb_
FN:187,_RNCNvMs0_NtNtCsitBd8PkZ0O7_12synap_server4core14consumer_groupNtB7_13ConsumerGroup9rebalance0Bb_
FN:528,_RNCNvMs1_NtNtCsitBd8PkZ0O7_12synap_server4core14consumer_groupNtB7_20ConsumerGroupManager10get_offset0Bb_
FN:448,_RNCNvMs1_NtNtCsitBd8PkZ0O7_12synap_server4core14consumer_groupNtB7_20ConsumerGroupManager10join_group0Bb_
FN:539,_RNCNvMs1_NtNtCsitBd8PkZ0O7_12synap_server4core14consumer_groupNtB7_20ConsumerGroupManager11group_stats0Bb_
FN:459,_RNCNvMs1_NtNtCsitBd8PkZ0O7_12synap_server4core14consumer_groupNtB7_20ConsumerGroupManager11leave_group0Bb_
FN:549,_RNCNvMs1_NtNtCsitBd8PkZ0O7_12synap_server4core14consumer_groupNtB7_20ConsumerGroupManager11list_groups0Bb_
FN:422,_RNCNvMs1_NtNtCsitBd8PkZ0O7_12synap_server4core14consumer_groupNtB7_20ConsumerGroupManager12create_group0Bb_
FN:512,_RNCNvMs1_NtNtCsitBd8PkZ0O7_12synap_server4core14consumer_groupNtB7_20ConsumerGroupManager13commit_offset0Bb_
FN:496,_RNCNvMs1_NtNtCsitBd8PkZ0O7_12synap_server4core14consumer_groupNtB7_20ConsumerGroupManager14get_assignment0Bb_
FN:481,_RNCNvMs1_NtNtCsitBd8PkZ0O7_12synap_server4core14consumer_groupNtB7_20ConsumerGroupManager15rebalance_group0Bb_
FN:567,_RNCNvMs1_NtNtCsitBd8PkZ0O7_12synap_server4core14consumer_groupNtB7_20ConsumerGroupManager20start_rebalance_task0Bb_
FN:470,_RNCNvMs1_NtNtCsitBd8PkZ0O7_12synap_server4core14consumer_groupNtB7_20ConsumerGroupManager9heartbeat0Bb_
FN:28,_RNvMNtNtCsitBd8PkZ0O7_12synap_server4core14consumer_groupNtB2_14ConsumerMember3new
FN:40,_RNvMNtNtCsitBd8PkZ0O7_12synap_server4core14consumer_groupNtB2_14ConsumerMember8is_alive
FN:45,_RNvMNtNtCsitBd8PkZ0O7_12synap_server4core14consumer_groupNtB2_14ConsumerMember9heartbeat
FN:345,_RNvMs0_NtNtCsitBd8PkZ0O7_12synap_server4core14consumer_groupNtB5_13ConsumerGroup10get_offset
FN:233,_RNvMs0_NtNtCsitBd8PkZ0O7_12synap_server4core14consumer_groupNtB5_13ConsumerGroup12assign_range
FN:266,_RNvMs0_NtNtCsitBd8PkZ0O7_12synap_server4core14consumer_groupNtB5_13ConsumerGroup13assign_sticky
FN:340,_RNvMs0_NtNtCsitBd8PkZ0O7_12synap_server4core14consumer_groupNtB5_13ConsumerGroup13commit_offset
FN:332,_RNvMs0_NtNtCsitBd8PkZ0O7_12synap_server4core14consumer_groupNtB5_13ConsumerGroup14get_assignment
FN:374,_RNvMs0_NtNtCsitBd8PkZ0O7_12synap_server4core14consumer_groupNtB5_13ConsumerGroup15needs_rebalance
FN:212,_RNvMs0_NtNtCsitBd8PkZ0O7_12synap_server4core14consumer_groupNtB5_13ConsumerGroup18assign_round_robin
FN:134,_RNvMs0_NtNtCsitBd8PkZ0O7_12synap_server4core14consumer_groupNtB5_13ConsumerGroup3new
FN:154,_RNvMs0_NtNtCsitBd8PkZ0O7_12synap_server4core14consumer_groupNtB5_13ConsumerGroup4join
FN:165,_RNvMs0_NtNtCsitBd8PkZ0O7_12synap_server4core14consumer_groupNtB5_13ConsumerGroup5leave
FN:350,_RNvMs0_NtNtCsitBd8PkZ0O7_12synap_server4core14consumer_groupNtB5_13ConsumerGroup5state
FN:355,_RNvMs0_NtNtCsitBd8PkZ0O7_12synap_server4core14consumer_groupNtB5_13ConsumerGroup5stats
FN:369,_RNvMs0_NtNtCsitBd8PkZ0O7_12synap_server4core14consumer_groupNtB5_13ConsumerGroup7members
FN:175,_RNvMs0_NtNtCsitBd8PkZ0O7_12synap_server4core14consumer_groupNtB5_13ConsumerGroup9heartbeat
FN:185,_RNvMs0_NtNtCsitBd8PkZ0O7_12synap_server4core14consumer_groupNtB5_13ConsumerGroup9rebalance
FN:524,_RNvMs1_NtNtCsitBd8PkZ0O7_12synap_server4core14consumer_groupNtB5_20ConsumerGroupManager10get_offset
FN:444,_RNvMs1_NtNtCsitBd8PkZ0O7_12synap_server4core14consumer_groupNtB5_20ConsumerGroupManager10join_group
FN:539,_RNvMs1_NtNtCsitBd8PkZ0O7_12synap_server4core14consumer_groupNtB5_20ConsumerGroupManager11group_stats
FN:459,_RNvMs1_NtNtCsitBd8PkZ0O7_12synap_server4core14consumer_groupNtB5_20ConsumerGroupManager11leave_group
FN:549,_RNvMs1_NtNtCsitBd8PkZ0O7_12synap_server4core14consumer_groupNtB5_20ConsumerGroupManager11list_groups
FN:416,_RNvMs1_NtNtCsitBd8PkZ0O7_12synap_server4core14consumer_groupNtB5_20ConsumerGroupManager12create_group
FN:555,_RNvMs1_NtNtCsitBd8PkZ0O7_12synap_server4core14consumer_groupNtB5_20ConsumerGroupManager12delete_group
FN:507,_RNvMs1_NtNtCsitBd8PkZ0O7_12synap_server4core14consumer_groupNtB5_20ConsumerGroupManager13commit_offset
FN:492,_RNvMs1_NtNtCsitBd8PkZ0O7_12synap_server4core14consumer_groupNtB5_20ConsumerGroupManager14get_assignment
FN:481,_RNvMs1_NtNtCsitBd8PkZ0O7_12synap_server4core14consumer_groupNtB5_20ConsumerGroupManager15rebalance_group
FN:566,_RNvMs1_NtNtCsitBd8PkZ0O7_12synap_server4core14consumer_groupNtB5_20ConsumerGroupManager20start_rebalance_task
FN:408,_RNvMs1_NtNtCsitBd8PkZ0O7_12synap_server4core14consumer_groupNtB5_20ConsumerGroupManager3new
FN:470,_RNvMs1_NtNtCsitBd8PkZ0O7_12synap_server4core14consumer_groupNtB5_20ConsumerGroupManager9heartbeat
FN:78,_RNvXs_NtNtCsitBd8PkZ0O7_12synap_server4core14consumer_groupNtB4_19ConsumerGroupConfigNtNtCsluXpZPV6FGj_4core7default7Default7default
FN:318,_RNCNCNvMs0_NtNtCsfrV5S290jXb_12synap_server4core14consumer_groupNtB9_13ConsumerGroup13assign_stickys0_00Bd_
FN:533,_RNCNCNvMs1_NtNtCsfrV5S290jXb_12synap_server4core14consumer_groupNtB9_20ConsumerGroupManager10get_offset00Bd_
FN:453,_RNCNCNvMs1_NtNtCsfrV5S290jXb_12synap_server4core14consumer_groupNtB9_20ConsumerGroupManager10join_group00Bd_
FN:544,_RNCNCNvMs1_NtNtCsfrV5S290jXb_12synap_server4core14consumer_groupNtB9_20ConsumerGroupManager11group_stats00Bd_
FN:545,_RNCNCNvMs1_NtNtCsfrV5S290jXb_12synap_server4core14consumer_groupNtB9_20ConsumerGroupManager11group_stats0s_0Bd_
FN:464,_RNCNCNvMs1_NtNtCsfrV5S290jXb_12synap_server4core14consumer_groupNtB9_20ConsumerGroupManager11leave_group00Bd_
FN:429,_RNCNCNvMs1_NtNtCsfrV5S290jXb_12synap_server4core14consumer_groupNtB9_20ConsumerGroupManager12create_group00Bd_
FN:517,_RNCNCNvMs1_NtNtCsfrV5S290jXb_12synap_server4core14consumer_groupNtB9_20ConsumerGroupManager13commit_offset00Bd_
FN:501,_RNCNCNvMs1_NtNtCsfrV5S290jXb_12synap_server4core14consumer_groupNtB9_20ConsumerGroupManager14get_assignment00Bd_
FN:486,_RNCNCNvMs1_NtNtCsfrV5S290jXb_12synap_server4core14consumer_groupNtB9_20ConsumerGroupManager15rebalance_group00Bd_
FN:475,_RNCNCNvMs1_NtNtCsfrV5S290jXb_12synap_server4core14consumer_groupNtB9_20ConsumerGroupManager9heartbeat00Bd_
FN:282,_RNCNvMs0_NtNtCsfrV5S290jXb_12synap_server4core14consumer_groupNtB7_13ConsumerGroup13assign_sticky0Bb_
FN:315,_RNCNvMs0_NtNtCsfrV5S290jXb_12synap_server4core14consumer_groupNtB7_13ConsumerGroup13assign_stickys0_0Bb_
FN:311,_RNCNvMs0_NtNtCsfrV5S290jXb_12synap_server4core14consumer_groupNtB7_13ConsumerGroup13assign_stickys_0Bb_
FN:335,_RNCNvMs0_NtNtCsfrV5S290jXb_12synap_server4core14consumer_groupNtB7_13ConsumerGroup14get_assignment0Bb_
FN:336,_RNCNvMs0_NtNtCsfrV5S290jXb_12synap_server4core14consumer_groupNtB7_13ConsumerGroup14get_assignments_0Bb_
FN:187,_RNCNvMs0_NtNtCsfrV5S290jXb_12synap_server4core14consumer_groupNtB7_13ConsumerGroup9rebalance0Bb_
FN:528,_RNCNvMs1_NtNtCsfrV5S290jXb_12synap_server4core14consumer_groupNtB7_20ConsumerGroupManager10get_offset0Bb_
FN:448,_RNCNvMs1_NtNtCsfrV5S290jXb_12synap_server4core14consumer_groupNtB7_20ConsumerGroupManager10join_group0Bb_
FN:539,_RNCNvMs1_NtNtCsfrV5S290jXb_12synap_server4core14consumer_groupNtB7_20ConsumerGroupManager11group_stats0Bb_
FN:459,_RNCNvMs1_NtNtCsfrV5S290jXb_12synap_server4core14consumer_groupNtB7_20ConsumerGroupManager11leave_group0Bb_
FN:549,_RNCNvMs1_NtNtCsfrV5S290jXb_12synap_server4core14consumer_groupNtB7_20ConsumerGroupManager11list_groups0Bb_
FN:422,_RNCNvMs1_NtNtCsfrV5S290jXb_12synap_server4core14consumer_groupNtB7_20ConsumerGroupManager12create_group0Bb_
FN:512,_RNCNvMs1_NtNtCsfrV5S290jXb_12synap_server4core14consumer_groupNtB7_20ConsumerGroupManager13commit_offset0Bb_
FN:496,_RNCNvMs1_NtNtCsfrV5S290jXb_12synap_server4core14consumer_groupNtB7_20ConsumerGroupManager14get_assignment0Bb_
FN:481,_RNCNvMs1_NtNtCsfrV5S290jXb_12synap_server4core14consumer_groupNtB7_20ConsumerGroupManager15rebalance_group0Bb_
FN:470,_RNCNvMs1_NtNtCsfrV5S290jXb_12synap_server4core14consumer_groupNtB7_20ConsumerGroupManager9heartbeat0Bb_
FN:707,_RNCNvNtNtNtCsfrV5S290jXb_12synap_server4core14consumer_group5testss_14test_heartbeat0B9_
FN:687,_RNCNvNtNtNtCsfrV5S290jXb_12synap_server4core14consumer_group5testss_18test_offset_commit0B9_
FN:659,_RNCNvNtNtNtCsfrV5S290jXb_12synap_server4core14consumer_group5testss_21test_range_assignment0B9_
FN:614,_RNCNvNtNtNtCsfrV5S290jXb_12synap_server4core14consumer_group5testss_24test_consumer_join_leave0B9_
FN:628,_RNCNvNtNtNtCsfrV5S290jXb_12synap_server4core14consumer_group5testss_27test_round_robin_assignment0B9_
FN:601,_RNCNvNtNtNtCsfrV5S290jXb_12synap_server4core14consumer_group5testss_28test_consumer_group_creation0B9_
FN:721,_RNCNvNtNtNtCsfrV5S290jXb_12synap_server4core14consumer_group5testss_30test_rebalance_on_member_leave0B9_
FN:28,_RNvMNtNtCsfrV5S290jXb_12synap_server4core14consumer_groupNtB2_14ConsumerMember3new
FN:40,_RNvMNtNtCsfrV5S290jXb_12synap_server4core14consumer_groupNtB2_14ConsumerMember8is_alive
FN:45,_RNvMNtNtCsfrV5S290jXb_12synap_server4core14consumer_groupNtB2_14ConsumerMember9heartbeat
FN:345,_RNvMs0_NtNtCsfrV5S290jXb_12synap_server4core14consumer_groupNtB5_13ConsumerGroup10get_offset
FN:233,_RNvMs0_NtNtCsfrV5S290jXb_12synap_server4core14consumer_groupNtB5_13ConsumerGroup12assign_range
FN:266,_RNvMs0_NtNtCsfrV5S290jXb_12synap_server4core14consumer_groupNtB5_13ConsumerGroup13assign_sticky
FN:340,_RNvMs0_NtNtCsfrV5S290jXb_12synap_server4core14consumer_groupNtB5_13ConsumerGroup13commit_offset
FN:332,_RNvMs0_NtNtCsfrV5S290jXb_12synap_server4core14consumer_groupNtB5_13ConsumerGroup14get_assignment
FN:212,_RNvMs0_NtNtCsfrV5S290jXb_12synap_server4core14consumer_groupNtB5_13ConsumerGroup18assign_round_robin
FN:134,_RNvMs0_NtNtCsfrV5S290jXb_12synap_server4core14consumer_groupNtB5_13ConsumerGroup3new
FN:154,_RNvMs0_NtNtCsfrV5S290jXb_12synap_server4core14consumer_groupNtB5_13ConsumerGroup4join
FN:165,_RNvMs0_NtNtCsfrV5S290jXb_12synap_server4core14consumer_groupNtB5_13ConsumerGroup5leave
FN:355,_RNvMs0_NtNtCsfrV5S290jXb_12synap_server4core14consumer_groupNtB5_13ConsumerGroup5stats
FN:175,_RNvMs0_NtNtCsfrV5S290jXb_12synap_server4core14consumer_groupNtB5_13ConsumerGroup9heartbeat
FN:185,_RNvMs0_NtNtCsfrV5S290jXb_12synap_server4core14consumer_groupNtB5_13ConsumerGroup9rebalance
FN:524,_RNvMs1_NtNtCsfrV5S290jXb_12synap_server4core14consumer_groupNtB5_20ConsumerGroupManager10get_offset
FN:444,_RNvMs1_NtNtCsfrV5S290jXb_12synap_server4core14consumer_groupNtB5_20ConsumerGroupManager10join_group
FN:539,_RNvMs1_NtNtCsfrV5S290jXb_12synap_server4core14consumer_groupNtB5_20ConsumerGroupManager11group_stats
FN:459,_RNvMs1_NtNtCsfrV5S290jXb_12synap_server4core14consumer_groupNtB5_20ConsumerGroupManager11leave_group
FN:549,_RNvMs1_NtNtCsfrV5S290jXb_12synap_server4core14consumer_groupNtB5_20ConsumerGroupManager11list_groups
FN:416,_RNvMs1_NtNtCsfrV5S290jXb_12synap_server4core14consumer_groupNtB5_20ConsumerGroupManager12create_group
FN:507,_RNvMs1_NtNtCsfrV5S290jXb_12synap_server4core14consumer_groupNtB5_20ConsumerGroupManager13commit_offset
FN:492,_RNvMs1_NtNtCsfrV5S290jXb_12synap_server4core14consumer_groupNtB5_20ConsumerGroupManager14get_assignment
FN:481,_RNvMs1_NtNtCsfrV5S290jXb_12synap_server4core14consumer_groupNtB5_20ConsumerGroupManager15rebalance_group
FN:408,_RNvMs1_NtNtCsfrV5S290jXb_12synap_server4core14consumer_groupNtB5_20ConsumerGroupManager3new
FN:470,_RNvMs1_NtNtCsfrV5S290jXb_12synap_server4core14consumer_groupNtB5_20ConsumerGroupManager9heartbeat
FN:78,_RNvXs_NtNtCsfrV5S290jXb_12synap_server4core14consumer_groupNtB4_19ConsumerGroupConfigNtNtCsluXpZPV6FGj_4core7default7Default7default
FN:583,_RNCNCNvMs1_NtNtCsfrV5S290jXb_12synap_server4core14consumer_groupNtB9_20ConsumerGroupManager20start_rebalance_task00Bd_
FN:555,_RNCNvMs1_NtNtCsfrV5S290jXb_12synap_server4core14consumer_groupNtB7_20ConsumerGroupManager12delete_group0Bb_
FN:567,_RNCNvMs1_NtNtCsfrV5S290jXb_12synap_server4core14consumer_groupNtB7_20ConsumerGroupManager20start_rebalance_task0Bb_
FN:374,_RNvMs0_NtNtCsfrV5S290jXb_12synap_server4core14consumer_groupNtB5_13ConsumerGroup15needs_rebalance
FN:350,_RNvMs0_NtNtCsfrV5S290jXb_12synap_server4core14consumer_groupNtB5_13ConsumerGroup5state
FN:369,_RNvMs0_NtNtCsfrV5S290jXb_12synap_server4core14consumer_groupNtB5_13ConsumerGroup7members
FN:555,_RNvMs1_NtNtCsfrV5S290jXb_12synap_server4core14consumer_groupNtB5_20ConsumerGroupManager12delete_group
FN:566,_RNvMs1_NtNtCsfrV5S290jXb_12synap_server4core14consumer_groupNtB5_20ConsumerGroupManager20start_rebalance_task
FN:707,_RNvNtNtNtCsfrV5S290jXb_12synap_server4core14consumer_group5testss_14test_heartbeat
FN:687,_RNvNtNtNtCsfrV5S290jXb_12synap_server4core14consumer_group5testss_18test_offset_commit
FN:659,_RNvNtNtNtCsfrV5S290jXb_12synap_server4core14consumer_group5testss_21test_range_assignment
FN:614,_RNvNtNtNtCsfrV5S290jXb_12synap_server4core14consumer_group5testss_24test_consumer_join_leave
FN:628,_RNvNtNtNtCsfrV5S290jXb_12synap_server4core14consumer_group5testss_27test_round_robin_assignment
FN:601,_RNvNtNtNtCsfrV5S290jXb_12synap_server4core14consumer_group5testss_28test_consumer_group_creation
FN:721,_RNvNtNtNtCsfrV5S290jXb_12synap_server4core14consumer_group5testss_30test_rebalance_on_member_leave
FNDA:0,_RNCNvMs1_NtNtCsitBd8PkZ0O7_12synap_server4core14consumer_groupNtB7_20ConsumerGroupManager12delete_group0Bb_
FNDA:0,_RNCNCNvMs0_NtNtCsitBd8PkZ0O7_12synap_server4core14consumer_groupNtB9_13ConsumerGroup13assign_stickys0_00Bd_
FNDA:0,_RNCNCNvMs1_NtNtCsitBd8PkZ0O7_12synap_server4core14consumer_groupNtB9_20ConsumerGroupManager10get_offset00Bd_
FNDA:0,_RNCNCNvMs1_NtNtCsitBd8PkZ0O7_12synap_server4core14consumer_groupNtB9_20ConsumerGroupManager10join_group00Bd_
FNDA:0,_RNCNCNvMs1_NtNtCsitBd8PkZ0O7_12synap_server4core14consumer_groupNtB9_20ConsumerGroupManager11group_stats00Bd_
FNDA:0,_RNCNCNvMs1_NtNtCsitBd8PkZ0O7_12synap_server4core14consumer_groupNtB9_20ConsumerGroupManager11group_stats0s_0Bd_
FNDA:0,_RNCNCNvMs1_NtNtCsitBd8PkZ0O7_12synap_server4core14consumer_groupNtB9_20ConsumerGroupManager11leave_group00Bd_
FNDA:4,_RNCNCNvMs1_NtNtCsitBd8PkZ0O7_12synap_server4core14consumer_groupNtB9_20ConsumerGroupManager12create_group00Bd_
FNDA:0,_RNCNCNvMs1_NtNtCsitBd8PkZ0O7_12synap_server4core14consumer_groupNtB9_20ConsumerGroupManager13commit_offset00Bd_
FNDA:0,_RNCNCNvMs1_NtNtCsitBd8PkZ0O7_12synap_server4core14consumer_groupNtB9_20ConsumerGroupManager14get_assignment00Bd_
FNDA:0,_RNCNCNvMs1_NtNtCsitBd8PkZ0O7_12synap_server4core14consumer_groupNtB9_20ConsumerGroupManager15rebalance_group00Bd_
FNDA:0,_RNCNCNvMs1_NtNtCsitBd8PkZ0O7_12synap_server4core14consumer_groupNtB9_20ConsumerGroupManager20start_rebalance_task00Bd_
FNDA:0,_RNCNCNvMs1_NtNtCsitBd8PkZ0O7_12synap_server4core14consumer_groupNtB9_20ConsumerGroupManager9heartbeat00Bd_
FNDA:0,_RNCNvMs0_NtNtCsitBd8PkZ0O7_12synap_server4core14consumer_groupNtB7_13ConsumerGroup13assign_sticky0Bb_
FNDA:0,_RNCNvMs0_NtNtCsitBd8PkZ0O7_12synap_server4core14consumer_groupNtB7_13ConsumerGroup13assign_stickys0_0Bb_
FNDA:0,_RNCNvMs0_NtNtCsitBd8PkZ0O7_12synap_server4core14consumer_groupNtB7_13ConsumerGroup13assign_stickys_0Bb_
FNDA:8,_RNCNvMs0_NtNtCsitBd8PkZ0O7_12synap_server4core14consumer_groupNtB7_13ConsumerGroup14get_assignment0Bb_
FNDA:0,_RNCNvMs0_NtNtCsitBd8PkZ0O7_12synap_server4core14consumer_groupNtB7_13ConsumerGroup14get_assignments_0Bb_
FNDA:8,_RNCNvMs0_NtNtCsitBd8PkZ0O7_12synap_server4core14consumer_groupNtB7_13ConsumerGroup9rebalance0Bb_
FNDA:0,_RNCNvMs1_NtNtCsitBd8PkZ0O7_12synap_server4core14consumer_groupNtB7_20ConsumerGroupManager10get_offset0Bb_
FNDA:7,_RNCNvMs1_NtNtCsitBd8PkZ0O7_12synap_server4core14consumer_groupNtB7_20ConsumerGroupManager10join_group0Bb_
FNDA:0,_RNCNvMs1_NtNtCsitBd8PkZ0O7_12synap_server4core14consumer_groupNtB7_20ConsumerGroupManager11group_stats0Bb_
FNDA:1,_RNCNvMs1_NtNtCsitBd8PkZ0O7_12synap_server4core14consumer_groupNtB7_20ConsumerGroupManager11leave_group0Bb_
FNDA:0,_RNCNvMs1_NtNtCsitBd8PkZ0O7_12synap_server4core14consumer_groupNtB7_20ConsumerGroupManager11list_groups0Bb_
FNDA:4,_RNCNvMs1_NtNtCsitBd8PkZ0O7_12synap_server4core14consumer_groupNtB7_20ConsumerGroupManager12create_group0Bb_
FNDA:1,_RNCNvMs1_NtNtCsitBd8PkZ0O7_12synap_server4core14consumer_groupNtB7_20ConsumerGroupManager13commit_offset0Bb_
FNDA:8,_RNCNvMs1_NtNtCsitBd8PkZ0O7_12synap_server4core14consumer_groupNtB7_20ConsumerGroupManager14get_assignment0Bb_
FNDA:5,_RNCNvMs1_NtNtCsitBd8PkZ0O7_12synap_server4core14consumer_groupNtB7_20ConsumerGroupManager15rebalance_group0Bb_
FNDA:0,_RNCNvMs1_NtNtCsitBd8PkZ0O7_12synap_server4core14consumer_groupNtB7_20ConsumerGroupManager20start_rebalance_task0Bb_
FNDA:0,_RNCNvMs1_NtNtCsitBd8PkZ0O7_12synap_server4core14consumer_groupNtB7_20ConsumerGroupManager9heartbeat0Bb_
FNDA:7,_RNvMNtNtCsitBd8PkZ0O7_12synap_server4core14consumer_groupNtB2_14ConsumerMember3new
FNDA:8,_RNvMNtNtCsitBd8PkZ0O7_12synap_server4core14consumer_groupNtB2_14ConsumerMember8is_alive
FNDA:7,_RNvMNtNtCsitBd8PkZ0O7_12synap_server4core14consumer_groupNtB2_14ConsumerMember9heartbeat
FNDA:0,_RNvMs0_NtNtCsitBd8PkZ0O7_12synap_server4core14consumer_groupNtB5_13ConsumerGroup10get_offset
FNDA:0,_RNvMs0_NtNtCsitBd8PkZ0O7_12synap_server4core14consumer_groupNtB5_13ConsumerGroup12assign_range
FNDA:0,_RNvMs0_NtNtCsitBd8PkZ0O7_12synap_server4core14consumer_groupNtB5_13ConsumerGroup13assign_sticky
FNDA:1,_RNvMs0_NtNtCsitBd8PkZ0O7_12synap_server4core14consumer_groupNtB5_13ConsumerGroup13commit_offset
FNDA:8,_RNvMs0_NtNtCsitBd8PkZ0O7_12synap_server4core14consumer_groupNtB5_13ConsumerGroup14get_assignment
FNDA:0,_RNvMs0_NtNtCsitBd8PkZ0O7_12synap_server4core14consumer_groupNtB5_13ConsumerGroup15needs_rebalance
FNDA:5,_RNvMs0_NtNtCsitBd8PkZ0O7_12synap_server4core14consumer_groupNtB5_13ConsumerGroup18assign_round_robin
FNDA:4,_RNvMs0_NtNtCsitBd8PkZ0O7_12synap_server4core14consumer_groupNtB5_13ConsumerGroup3new
FNDA:7,_RNvMs0_NtNtCsitBd8PkZ0O7_12synap_server4core14consumer_groupNtB5_13ConsumerGroup4join
FNDA:1,_RNvMs0_NtNtCsitBd8PkZ0O7_12synap_server4core14consumer_groupNtB5_13ConsumerGroup5leave
FNDA:0,_RNvMs0_NtNtCsitBd8PkZ0O7_12synap_server4core14consumer_groupNtB5_13ConsumerGroup5state
FNDA:0,_RNvMs0_NtNtCsitBd8PkZ0O7_12synap_server4core14consumer_groupNtB5_13ConsumerGroup5stats
FNDA:0,_RNvMs0_NtNtCsitBd8PkZ0O7_12synap_server4core14consumer_groupNtB5_13ConsumerGroup7members
FNDA:0,_RNvMs0_NtNtCsitBd8PkZ0O7_12synap_server4core14consumer_groupNtB5_13ConsumerGroup9heartbeat
FNDA:5,_RNvMs0_NtNtCsitBd8PkZ0O7_12synap_server4core14consumer_groupNtB5_13ConsumerGroup9rebalance
FNDA:0,_RNvMs1_NtNtCsitBd8PkZ0O7_12synap_server4core14consumer_groupNtB5_20ConsumerGroupManager10get_offset
FNDA:7,_RNvMs1_NtNtCsitBd8PkZ0O7_12synap_server4core14consumer_groupNtB5_20ConsumerGroupManager10join_group
FNDA:0,_RNvMs1_NtNtCsitBd8PkZ0O7_12synap_server4core14consumer_groupNtB5_20ConsumerGroupManager11group_stats
FNDA:1,_RNvMs1_NtNtCsitBd8PkZ0O7_12synap_server4core14consumer_groupNtB5_20ConsumerGroupManager11leave_group
FNDA:0,_RNvMs1_NtNtCsitBd8PkZ0O7_12synap_server4core14consumer_groupNtB5_20ConsumerGroupManager11list_groups
FNDA:4,_RNvMs1_NtNtCsitBd8PkZ0O7_12synap_server4core14consumer_groupNtB5_20ConsumerGroupManager12create_group
FNDA:0,_RNvMs1_NtNtCsitBd8PkZ0O7_12synap_server4core14consumer_groupNtB5_20ConsumerGroupManager12delete_group
FNDA:1,_RNvMs1_NtNtCsitBd8PkZ0O7_12synap_server4core14consumer_groupNtB5_20ConsumerGroupManager13commit_offset
FNDA:8,_RNvMs1_NtNtCsitBd8PkZ0O7_12synap_server4core14consumer_groupNtB5_20ConsumerGroupManager14get_assignment
FNDA:5,_RNvMs1_NtNtCsitBd8PkZ0O7_12synap_server4core14consumer_groupNtB5_20ConsumerGroupManager15rebalance_group
FNDA:0,_RNvMs1_NtNtCsitBd8PkZ0O7_12synap_server4core14consumer_groupNtB5_20ConsumerGroupManager20start_rebalance_task
FNDA:3,_RNvMs1_NtNtCsitBd8PkZ0O7_12synap_server4core14consumer_groupNtB5_20ConsumerGroupManager3new
FNDA:0,_RNvMs1_NtNtCsitBd8PkZ0O7_12synap_server4core14consumer_groupNtB5_20ConsumerGroupManager9heartbeat
FNDA:3,_RNvXs_NtNtCsitBd8PkZ0O7_12synap_server4core14consumer_groupNtB4_19ConsumerGroupConfigNtNtCsluXpZPV6FGj_4core7default7Default7default
FNDA:0,_RNCNCNvMs0_NtNtCsfrV5S290jXb_12synap_server4core14consumer_groupNtB9_13ConsumerGroup13assign_stickys0_00Bd_
FNDA:0,_RNCNCNvMs1_NtNtCsfrV5S290jXb_12synap_server4core14consumer_groupNtB9_20ConsumerGroupManager10get_offset00Bd_
FNDA:0,_RNCNCNvMs1_NtNtCsfrV5S290jXb_12synap_server4core14consumer_groupNtB9_20ConsumerGroupManager10join_group00Bd_
FNDA:0,_RNCNCNvMs1_NtNtCsfrV5S290jXb_12synap_server4core14consumer_groupNtB9_20ConsumerGroupManager11group_stats00Bd_
FNDA:0,_RNCNCNvMs1_NtNtCsfrV5S290jXb_12synap_server4core14consumer_groupNtB9_20ConsumerGroupManager11group_stats0s_0Bd_
FNDA:0,_RNCNCNvMs1_NtNtCsfrV5S290jXb_12synap_server4core14consumer_groupNtB9_20ConsumerGroupManager11leave_group00Bd_
FNDA:14,_RNCNCNvMs1_NtNtCsfrV5S290jXb_12synap_server4core14consumer_groupNtB9_20ConsumerGroupManager12create_group00Bd_
FNDA:0,_RNCNCNvMs1_NtNtCsfrV5S290jXb_12synap_server4core14consumer_groupNtB9_20ConsumerGroupManager13commit_offset00Bd_
FNDA:0,_RNCNCNvMs1_NtNtCsfrV5S290jXb_12synap_server4core14consumer_groupNtB9_20ConsumerGroupManager14get_assignment00Bd_
FNDA:0,_RNCNCNvMs1_NtNtCsfrV5S290jXb_12synap_server4core14consumer_groupNtB9_20ConsumerGroupManager15rebalance_group00Bd_
FNDA:0,_RNCNCNvMs1_NtNtCsfrV5S290jXb_12synap_server4core14consumer_groupNtB9_20ConsumerGroupManager9heartbeat00Bd_
FNDA:0,_RNCNvMs0_NtNtCsfrV5S290jXb_12synap_server4core14consumer_groupNtB7_13ConsumerGroup13assign_sticky0Bb_
FNDA:0,_RNCNvMs0_NtNtCsfrV5S290jXb_12synap_server4core14consumer_groupNtB7_13ConsumerGroup13assign_stickys0_0Bb_
FNDA:0,_RNCNvMs0_NtNtCsfrV5S290jXb_12synap_server4core14consumer_groupNtB7_13ConsumerGroup13assign_stickys_0Bb_
FNDA:14,_RNCNvMs0_NtNtCsfrV5S290jXb_12synap_server4core14consumer_groupNtB7_13ConsumerGroup14get_assignment0Bb_
FNDA:0,_RNCNvMs0_NtNtCsfrV5S290jXb_12synap_server4core14consumer_groupNtB7_13ConsumerGroup14get_assignments_0Bb_
FNDA:18,_RNCNvMs0_NtNtCsfrV5S290jXb_12synap_server4core14consumer_groupNtB7_13ConsumerGroup9rebalance0Bb_
FNDA:4,_RNCNvMs1_NtNtCsfrV5S290jXb_12synap_server4core14consumer_groupNtB7_20ConsumerGroupManager10get_offset0Bb_
FNDA:20,_RNCNvMs1_NtNtCsfrV5S290jXb_12synap_server4core14consumer_groupNtB7_20ConsumerGroupManager10join_group0Bb_
FNDA:0,_RNCNvMs1_NtNtCsfrV5S290jXb_12synap_server4core14consumer_groupNtB7_20ConsumerGroupManager11group_stats0Bb_
FNDA:4,_RNCNvMs1_NtNtCsfrV5S290jXb_12synap_server4core14consumer_groupNtB7_20ConsumerGroupManager11leave_group0Bb_
FNDA:2,_RNCNvMs1_NtNtCsfrV5S290jXb_12synap_server4core14consumer_groupNtB7_20ConsumerGroupManager11list_groups0Bb_
FNDA:14,_RNCNvMs1_NtNtCsfrV5S290jXb_12synap_server4core14consumer_groupNtB7_20ConsumerGroupManager12create_group0Bb_
FNDA:4,_RNCNvMs1_NtNtCsfrV5S290jXb_12synap_server4core14consumer_groupNtB7_20ConsumerGroupManager13commit_offset0Bb_
FNDA:14,_RNCNvMs1_NtNtCsfrV5S290jXb_12synap_server4core14consumer_groupNtB7_20ConsumerGroupManager14get_assignment0Bb_
FNDA:8,_RNCNvMs1_NtNtCsfrV5S290jXb_12synap_server4core14consumer_groupNtB7_20ConsumerGroupManager15rebalance_group0Bb_
FNDA:2,_RNCNvMs1_NtNtCsfrV5S290jXb_12synap_server4core14consumer_groupNtB7_20ConsumerGroupManager9heartbeat0Bb_
FNDA:2,_RNCNvNtNtNtCsfrV5S290jXb_12synap_server4core14consumer_group5testss_14test_heartbeat0B9_
FNDA:2,_RNCNvNtNtNtCsfrV5S290jXb_12synap_server4core14consumer_group5testss_18test_offset_commit0B9_
FNDA:2,_RNCNvNtNtNtCsfrV5S290jXb_12synap_server4core14consumer_group5testss_21test_range_assignment0B9_
FNDA:2,_RNCNvNtNtNtCsfrV5S290jXb_12synap_server4core14consumer_group5testss_24test_consumer_join_leave0B9_
FNDA:2,_RNCNvNtNtNtCsfrV5S290jXb_12synap_server4core14consumer_group5testss_27test_round_robin_assignment0B9_
FNDA:2,_RNCNvNtNtNtCsfrV5S290jXb_12synap_server4core14consumer_group5testss_28test_consumer_group_creation0B9_
FNDA:2,_RNCNvNtNtNtCsfrV5S290jXb_12synap_server4core14consumer_group5testss_30test_rebalance_on_member_leave0B9_
FNDA:20,_RNvMNtNtCsfrV5S290jXb_12synap_server4core14consumer_groupNtB2_14ConsumerMember3new
FNDA:18,_RNvMNtNtCsfrV5S290jXb_12synap_server4core14consumer_groupNtB2_14ConsumerMember8is_alive
FNDA:22,_RNvMNtNtCsfrV5S290jXb_12synap_server4core14consumer_groupNtB2_14ConsumerMember9heartbeat
FNDA:4,_RNvMs0_NtNtCsfrV5S290jXb_12synap_server4core14consumer_groupNtB5_13ConsumerGroup10get_offset
FNDA:2,_RNvMs0_NtNtCsfrV5S290jXb_12synap_server4core14consumer_groupNtB5_13ConsumerGroup12assign_range
FNDA:0,_RNvMs0_NtNtCsfrV5S290jXb_12synap_server4core14consumer_groupNtB5_13ConsumerGroup13assign_sticky
FNDA:4,_RNvMs0_NtNtCsfrV5S290jXb_12synap_server4core14consumer_groupNtB5_13ConsumerGroup13commit_offset
FNDA:14,_RNvMs0_NtNtCsfrV5S290jXb_12synap_server4core14consumer_groupNtB5_13ConsumerGroup14get_assignment
FNDA:6,_RNvMs0_NtNtCsfrV5S290jXb_12synap_server4core14consumer_groupNtB5_13ConsumerGroup18assign_round_robin
FNDA:14,_RNvMs0_NtNtCsfrV5S290jXb_12synap_server4core14consumer_groupNtB5_13ConsumerGroup3new
FNDA:20,_RNvMs0_NtNtCsfrV5S290jXb_12synap_server4core14consumer_groupNtB5_13ConsumerGroup4join
FNDA:4,_RNvMs0_NtNtCsfrV5S290jXb_12synap_server4core14consumer_groupNtB5_13ConsumerGroup5leave
FNDA:0,_RNvMs0_NtNtCsfrV5S290jXb_12synap_server4core14consumer_groupNtB5_13ConsumerGroup5stats
FNDA:2,_RNvMs0_NtNtCsfrV5S290jXb_12synap_server4core14consumer_groupNtB5_13ConsumerGroup9heartbeat
FNDA:8,_RNvMs0_NtNtCsfrV5S290jXb_12synap_server4core14consumer_groupNtB5_13ConsumerGroup9rebalance
FNDA:4,_RNvMs1_NtNtCsfrV5S290jXb_12synap_server4core14consumer_groupNtB5_20ConsumerGroupManager10get_offset
FNDA:20,_RNvMs1_NtNtCsfrV5S290jXb_12synap_server4core14consumer_groupNtB5_20ConsumerGroupManager10join_group
FNDA:0,_RNvMs1_NtNtCsfrV5S290jXb_12synap_server4core14consumer_groupNtB5_20ConsumerGroupManager11group_stats
FNDA:4,_RNvMs1_NtNtCsfrV5S290jXb_12synap_server4core14consumer_groupNtB5_20ConsumerGroupManager11leave_group
FNDA:2,_RNvMs1_NtNtCsfrV5S290jXb_12synap_server4core14consumer_groupNtB5_20ConsumerGroupManager11list_groups
FNDA:14,_RNvMs1_NtNtCsfrV5S290jXb_12synap_server4core14consumer_groupNtB5_20ConsumerGroupManager12create_group
FNDA:4,_RNvMs1_NtNtCsfrV5S290jXb_12synap_server4core14consumer_groupNtB5_20ConsumerGroupManager13commit_offset
FNDA:14,_RNvMs1_NtNtCsfrV5S290jXb_12synap_server4core14consumer_groupNtB5_20ConsumerGroupManager14get_assignment
FNDA:8,_RNvMs1_NtNtCsfrV5S290jXb_12synap_server4core14consumer_groupNtB5_20ConsumerGroupManager15rebalance_group
FNDA:14,_RNvMs1_NtNtCsfrV5S290jXb_12synap_server4core14consumer_groupNtB5_20ConsumerGroupManager3new
FNDA:2,_RNvMs1_NtNtCsfrV5S290jXb_12synap_server4core14consumer_groupNtB5_20ConsumerGroupManager9heartbeat
FNDA:14,_RNvXs_NtNtCsfrV5S290jXb_12synap_server4core14consumer_groupNtB4_19ConsumerGroupConfigNtNtCsluXpZPV6FGj_4core7default7Default7default
FNDA:0,_RNCNCNvMs1_NtNtCsfrV5S290jXb_12synap_server4core14consumer_groupNtB9_20ConsumerGroupManager20start_rebalance_task00Bd_
FNDA:0,_RNCNvMs1_NtNtCsfrV5S290jXb_12synap_server4core14consumer_groupNtB7_20ConsumerGroupManager12delete_group0Bb_
FNDA:0,_RNCNvMs1_NtNtCsfrV5S290jXb_12synap_server4core14consumer_groupNtB7_20ConsumerGroupManager20start_rebalance_task0Bb_
FNDA:0,_RNvMs0_NtNtCsfrV5S290jXb_12synap_server4core14consumer_groupNtB5_13ConsumerGroup15needs_rebalance
FNDA:0,_RNvMs0_NtNtCsfrV5S290jXb_12synap_server4core14consumer_groupNtB5_13ConsumerGroup5state
FNDA:0,_RNvMs0_NtNtCsfrV5S290jXb_12synap_server4core14consumer_groupNtB5_13ConsumerGroup7members
FNDA:0,_RNvMs1_NtNtCsfrV5S290jXb_12synap_server4core14consumer_groupNtB5_20ConsumerGroupManager12delete_group
FNDA:0,_RNvMs1_NtNtCsfrV5S290jXb_12synap_server4core14consumer_groupNtB5_20ConsumerGroupManager20start_rebalance_task
FNDA:2,_RNvNtNtNtCsfrV5S290jXb_12synap_server4core14consumer_group5testss_14test_heartbeat
FNDA:2,_RNvNtNtNtCsfrV5S290jXb_12synap_server4core14consumer_group5testss_18test_offset_commit
FNDA:2,_RNvNtNtNtCsfrV5S290jXb_12synap_server4core14consumer_group5testss_21test_range_assignment
FNDA:2,_RNvNtNtNtCsfrV5S290jXb_12synap_server4core14consumer_group5testss_24test_consumer_join_leave
FNDA:2,_RNvNtNtNtCsfrV5S290jXb_12synap_server4core14consumer_group5testss_27test_round_robin_assignment
FNDA:2,_RNvNtNtNtCsfrV5S290jXb_12synap_server4core14consumer_group5testss_28test_consumer_group_creation
FNDA:2,_RNvNtNtNtCsfrV5S290jXb_12synap_server4core14consumer_group5testss_30test_rebalance_on_member_leave
FNF:76
FNH:50
DA:28,27
DA:29,27
DA:30,27
DA:31,27
DA:32,27
DA:33,27
DA:34,27
DA:35,27
DA:36,27
DA:37,27
DA:40,26
DA:41,26
DA:42,26
DA:45,29
DA:46,29
DA:47,29
DA:78,17
DA:79,17
DA:80,17
DA:81,17
DA:82,17
DA:83,17
DA:84,17
DA:85,17
DA:86,17
DA:134,18
DA:135,18
DA:136,18
DA:137,18
DA:138,18
DA:139,18
DA:140,18
DA:141,18
DA:142,18
DA:143,18
DA:144,18
DA:145,18
DA:146,18
DA:147,18
DA:148,18
DA:149,18
DA:150,18
DA:151,18
DA:154,27
DA:155,27
DA:156,27
DA:158,27
DA:159,27
DA:161,27
DA:162,27
DA:165,5
DA:166,5
DA:167,5
DA:168,5
DA:170,0
DA:172,5
DA:175,2
DA:176,2
DA:177,2
DA:178,2
DA:180,0
DA:182,2
DA:185,13
DA:187,26
DA:189,13
DA:190,0
DA:191,0
DA:192,0
DA:193,13
DA:195,13
DA:198,13
DA:199,11
DA:200,2
DA:201,0
DA:204,13
DA:205,13
DA:206,13
DA:208,13
DA:209,13
DA:212,11
DA:213,11
DA:214,11
DA:217,20
DA:218,20
DA:219,20
DA:222,57
DA:223,57
DA:224,57
DA:226,57
DA:227,57
DA:228,57
DA:230,11
DA:233,2
DA:234,2
DA:235,2
DA:238,6
DA:239,6
DA:240,6
DA:242,2
DA:243,2
DA:245,2
DA:247,6
DA:248,6
DA:249,2
DA:251,4
DA:254,6
DA:255,6
DA:256,14
DA:257,14
DA:258,14
DA:259,14
DA:261,0
DA:263,2
DA:266,0
DA:267,0
DA:268,0
DA:271,0
DA:272,0
DA:273,0
DA:274,0
DA:275,0
DA:276,0
DA:281,0
DA:282,0
DA:283,0
DA:286,0
DA:287,0
DA:288,0
DA:290,0
DA:291,0
DA:292,0
DA:296,0
DA:297,0
DA:299,0
DA:300,0
DA:301,0
DA:302,0
DA:303,0
DA:307,0
DA:308,0
DA:310,0
DA:311,0
DA:312,0
DA:315,0
DA:316,0
DA:317,0
DA:318,0
DA:319,0
DA:320,0
DA:322,0
DA:323,0
DA:324,0
DA:325,0
DA:326,0
DA:329,0
DA:332,22
DA:333,22
DA:334,22
DA:335,22
DA:336,22
DA:337,22
DA:340,5
DA:341,5
DA:342,5
DA:345,4
DA:346,4
DA:347,4
DA:350,0
DA:351,0
DA:352,0
DA:355,0
DA:356,0
DA:357,0
DA:358,0
DA:359,0
DA:360,0
DA:361,0
DA:362,0
DA:363,0
DA:364,0
DA:365,0
DA:366,0
DA:369,0
DA:370,0
DA:371,0
DA:374,0
DA:376,0
DA:377,0
DA:378,0
DA:379,0
DA:383,0
DA:384,0
DA:408,17
DA:409,17
DA:410,17
DA:411,17
DA:412,17
DA:413,17
DA:416,18
DA:417,18
DA:418,18
DA:419,18
DA:420,18
DA:421,18
DA:422,18
DA:423,18
DA:425,18
DA:426,0
DA:427,18
DA:429,18
DA:430,18
DA:431,18
DA:432,18
DA:433,18
DA:434,18
DA:435,18
DA:436,18
DA:437,18
DA:438,18
DA:440,18
DA:441,18
DA:444,27
DA:445,27
DA:446,27
DA:447,27
DA:448,27
DA:449,27
DA:451,27
DA:452,27
DA:453,27
DA:455,27
DA:456,27
DA:459,5
DA:460,5
DA:462,5
DA:463,5
DA:464,5
DA:466,5
DA:467,5
DA:470,2
DA:471,2
DA:473,2
DA:474,2
DA:475,2
DA:477,2
DA:478,2
DA:481,13
DA:482,13
DA:484,13
DA:485,13
DA:486,13
DA:488,13
DA:489,13
DA:492,22
DA:493,22
DA:494,22
DA:495,22
DA:496,22
DA:497,22
DA:499,22
DA:500,22
DA:501,22
DA:503,22
DA:504,22
DA:507,5
DA:508,5
DA:509,5
DA:510,5
DA:511,5
DA:512,5
DA:513,5
DA:515,5
DA:516,5
DA:517,5
DA:519,5
DA:520,5
DA:521,5
DA:524,4
DA:525,4
DA:526,4
DA:527,4
DA:528,4
DA:529,4
DA:531,4
DA:532,4
DA:533,4
DA:535,4
DA:536,4
DA:539,0
DA:540,0
DA:542,0
DA:543,0
DA:544,0
DA:545,0
DA:546,0
DA:549,2
DA:550,2
DA:551,2
DA:552,2
DA:555,0
DA:556,0
DA:558,0
DA:559,0
DA:561,0
DA:563,0
DA:566,0
DA:567,0
DA:568,0
DA:571,0
DA:573,0
DA:574,0
DA:575,0
DA:578,0
DA:579,0
DA:580,0
DA:581,0
DA:582,0
DA:583,0
DA:584,0
DA:587,0
DA:588,0
DA:589,0
DA:593,0
DA:601,2
DA:602,2
DA:604,2
DA:605,2
DA:606,2
DA:607,2
DA:609,2
DA:610,2
DA:611,2
DA:614,2
DA:615,2
DA:616,2
DA:617,2
DA:618,2
DA:619,2
DA:621,2
DA:622,2
DA:624,2
DA:625,2
DA:628,2
DA:629,2
DA:630,2
DA:631,2
DA:632,2
DA:634,2
DA:635,2
DA:636,2
DA:637,2
DA:638,2
DA:641,2
DA:642,2
DA:643,2
DA:646,2
DA:649,2
DA:650,2
DA:651,2
DA:653,2
DA:654,2
DA:655,2
DA:656,2
DA:659,2
DA:660,2
DA:661,2
DA:662,2
DA:663,2
DA:665,2
DA:666,2
DA:667,2
DA:668,2
DA:669,2
DA:672,2
DA:673,2
DA:674,2
DA:676,2
DA:678,2
DA:679,2
DA:680,2
DA:683,2
DA:684,2
DA:687,2
DA:688,2
DA:689,2
DA:690,2
DA:691,2
DA:692,2
DA:695,2
DA:696,2
DA:699,2
DA:700,2
DA:702,2
DA:703,2
DA:704,2
DA:707,2
DA:708,2
DA:709,2
DA:710,2
DA:711,2
DA:712,2
DA:714,2
DA:717,2
DA:718,2
DA:721,2
DA:722,2
DA:723,2
DA:724,2
DA:725,2
DA:726,2
DA:728,2
DA:729,2
DA:731,2
DA:734,2
DA:735,2
DA:738,2
DA:739,2
DA:740,2
BRF:0
BRH:0
LF:462
LH:338
end_of_record
SF:/mnt/f/Node/hivellm/synap/synap-server/src/core/error.rs
FN:60,_RNvMNtNtCsitBd8PkZ0O7_12synap_server4core5errorNtB2_10SynapError11status_code
FN:84,_RNvXs_NtNtCsitBd8PkZ0O7_12synap_server4core5errorNtB4_10SynapErrorNtNtNtCsaV8IMKGUuL8_9axum_core8response13into_response12IntoResponse13into_response
FN:60,_RNvMNtNtCsfrV5S290jXb_12synap_server4core5errorNtB2_10SynapError11status_code
FN:84,_RNvXs_NtNtCsfrV5S290jXb_12synap_server4core5errorNtB4_10SynapErrorNtNtNtCsaV8IMKGUuL8_9axum_core8response13into_response12IntoResponse13into_response
FN:135,_RNvNtNtNtCsfrV5S290jXb_12synap_server4core5error5testss_18test_error_display
FN:154,_RNvNtNtNtCsfrV5S290jXb_12synap_server4core5error5testss_23test_all_error_variants
FN:103,_RNvNtNtNtCsfrV5S290jXb_12synap_server4core5error5testss_23test_error_status_codes
FN:147,_RNvNtNtNtCsfrV5S290jXb_12synap_server4core5error5testss_24test_error_into_response
FNDA:36,_RNvMNtNtCsitBd8PkZ0O7_12synap_server4core5errorNtB2_10SynapError11status_code
FNDA:8,_RNvXs_NtNtCsitBd8PkZ0O7_12synap_server4core5errorNtB4_10SynapErrorNtNtNtCsaV8IMKGUuL8_9axum_core8response13into_response12IntoResponse13into_response
FNDA:14,_RNvMNtNtCsfrV5S290jXb_12synap_server4core5errorNtB2_10SynapError11status_code
FNDA:2,_RNvXs_NtNtCsfrV5S290jXb_12synap_server4core5errorNtB4_10SynapErrorNtNtNtCsaV8IMKGUuL8_9axum_core8response13into_response12IntoResponse13into_response
FNDA:2,_RNvNtNtNtCsfrV5S290jXb_12synap_server4core5error5testss_18test_error_display
FNDA:2,_RNvNtNtNtCsfrV5S290jXb_12synap_server4core5error5testss_23test_all_error_variants
FNDA:2,_RNvNtNtNtCsfrV5S290jXb_12synap_server4core5error5testss_23test_error_status_codes
FNDA:2,_RNvNtNtNtCsfrV5S290jXb_12synap_server4core5error5testss_24test_error_into_response
FNF:6
FNH:6
DA:60,50
DA:61,50
DA:62,7
DA:63,4
DA:65,8
DA:67,4
DA:68,4
DA:69,2
DA:71,4
DA:74,12
DA:76,5
DA:77,0
DA:79,50
DA:84,10
DA:85,10
DA:86,10
DA:87,10
DA:88,10
DA:89,10
DA:91,10
DA:92,10
DA:103,2
DA:104,2
DA:105,2
DA:108,2
DA:109,2
DA:112,2
DA:113,2
DA:116,2
DA:117,2
DA:120,2
DA:121,2
DA:122,2
DA:123,2
DA:124,2
DA:125,2
DA:128,2
DA:129,2
DA:132,2
DA:135,2
DA:136,2
DA:137,2
DA:139,2
DA:140,2
DA:141,2
DA:142,2
DA:143,2
DA:144,2
DA:147,2
DA:148,2
DA:149,2
DA:150,2
DA:151,2
DA:154,2
DA:156,2
DA:157,2
DA:158,2
DA:159,2
DA:160,2
DA:161,2
DA:162,2
DA:163,2
DA:164,2
DA:165,2
DA:166,2
DA:167,2
DA:168,2
DA:169,2
DA:170,2
DA:171,2
DA:172,2
DA:173,2
BRF:0
BRH:0
LF:72
LH:71
end_of_record
SF:/mnt/f/Node/hivellm/synap/synap-server/src/core/kv_store.rs
FN:95,_RNvMNtNtCsitBd8PkZ0O7_12synap_server4core8kv_storeNtB2_12ShardStorage15get_prefix_keys
FN:114,_RNvMNtNtCsitBd8PkZ0O7_12synap_server4core8kv_storeNtB2_12ShardStorage15upgrade_to_trie
FN:38,_RNvMNtNtCsitBd8PkZ0O7_12synap_server4core8kv_storeNtB2_12ShardStorage3get
FN:25,_RNvMNtNtCsitBd8PkZ0O7_12synap_server4core8kv_storeNtB2_12ShardStorage3new
FN:73,_RNvMNtNtCsitBd8PkZ0O7_12synap_server4core8kv_storeNtB2_12ShardStorage4iter
FN:80,_RNvMNtNtCsitBd8PkZ0O7_12synap_server4core8kv_storeNtB2_12ShardStorage4keys
FN:87,_RNvMNtNtCsitBd8PkZ0O7_12synap_server4core8kv_storeNtB2_12ShardStorage5clear
FN:52,_RNvMNtNtCsitBd8PkZ0O7_12synap_server4core8kv_storeNtB2_12ShardStorage6insert
FN:66,_RNvMNtNtCsitBd8PkZ0O7_12synap_server4core8kv_storeNtB2_12ShardStorage6remove
FN:45,_RNvMNtNtCsitBd8PkZ0O7_12synap_server4core8kv_storeNtB2_12ShardStorage7get_mut
FN:185,_RNvMs0_NtNtCsitBd8PkZ0O7_12synap_server4core8kv_storeNtB5_7KVStore13shard_for_keyB9_
FN:160,_RNvMs0_NtNtCsitBd8PkZ0O7_12synap_server4core8kv_storeNtB5_7KVStore14new_with_cache
FN:472,_RNvMs0_NtNtCsitBd8PkZ0O7_12synap_server4core8kv_storeNtB5_7KVStore15cleanup_expired
FN:199,_RNvMs0_NtNtCsitBd8PkZ0O7_12synap_server4core8kv_storeNtB5_7KVStore17start_ttl_cleanup
FN:528,_RNvMs0_NtNtCsitBd8PkZ0O7_12synap_server4core8kv_storeNtB5_7KVStore19estimate_entry_size
FN:263,_RNvMs0_NtNtCsitBd8PkZ0O7_12synap_server4core8kv_storeNtB5_7KVStore3get
FN:155,_RNvMs0_NtNtCsitBd8PkZ0O7_12synap_server4core8kv_storeNtB5_7KVStore3new
FN:215,_RNvMs0_NtNtCsitBd8PkZ0O7_12synap_server4core8kv_storeNtB5_7KVStore3set
FN:353,_RNvMs0_NtNtCsitBd8PkZ0O7_12synap_server4core8kv_storeNtB5_7KVStore3ttl
FN:401,_RNvMs0_NtNtCsitBd8PkZ0O7_12synap_server4core8kv_storeNtB5_7KVStore4decr
FN:626,_RNvMs0_NtNtCsitBd8PkZ0O7_12synap_server4core8kv_storeNtB5_7KVStore4dump
FN:368,_RNvMs0_NtNtCsitBd8PkZ0O7_12synap_server4core8kv_storeNtB5_7KVStore4incr
FN:533,_RNvMs0_NtNtCsitBd8PkZ0O7_12synap_server4core8kv_storeNtB5_7KVStore4keys
FN:429,_RNvMs0_NtNtCsitBd8PkZ0O7_12synap_server4core8kv_storeNtB5_7KVStore4mdel
FN:417,_RNvMs0_NtNtCsitBd8PkZ0O7_12synap_server4core8kv_storeNtB5_7KVStore4mget
FN:406,_RNvMs0_NtNtCsitBd8PkZ0O7_12synap_server4core8kv_storeNtB5_7KVStore4mset
FN:443,_RNvMs0_NtNtCsitBd8PkZ0O7_12synap_server4core8kv_storeNtB5_7KVStore4scan
FN:348,_RNvMs0_NtNtCsitBd8PkZ0O7_12synap_server4core8kv_storeNtB5_7KVStore5stats
FN:546,_RNvMs0_NtNtCsitBd8PkZ0O7_12synap_server4core8kv_storeNtB5_7KVStore6dbsize
FN:314,_RNvMs0_NtNtCsitBd8PkZ0O7_12synap_server4core8kv_storeNtB5_7KVStore6delete
FN:337,_RNvMs0_NtNtCsitBd8PkZ0O7_12synap_server4core8kv_storeNtB5_7KVStore6exists
FN:592,_RNvMs0_NtNtCsitBd8PkZ0O7_12synap_server4core8kv_storeNtB5_7KVStore6expire
FN:551,_RNvMs0_NtNtCsitBd8PkZ0O7_12synap_server4core8kv_storeNtB5_7KVStore7flushdb
FN:609,_RNvMs0_NtNtCsitBd8PkZ0O7_12synap_server4core8kv_storeNtB5_7KVStore7persist
FN:582,_RNvMs0_NtNtCsitBd8PkZ0O7_12synap_server4core8kv_storeNtB5_7KVStore8flushall
FN:193,_RNvMs0_NtNtCsitBd8PkZ0O7_12synap_server4core8kv_storeNtB5_7KVStore9get_shardB9_
FN:135,_RNvMs_NtNtCsitBd8PkZ0O7_12synap_server4core8kv_storeNtB4_7KVShard3new
FN:31,_RNvMNtNtCsitBd8PkZ0O7_12synap_server4core8kv_storeNtB2_12ShardStorage3len
FN:491,_RNCNCNvMs0_NtNtCsitBd8PkZ0O7_12synap_server4core8kv_storeNtB9_7KVStore15cleanup_expired00Bd_
FN:249,_RNCNCNvMs0_NtNtCsitBd8PkZ0O7_12synap_server4core8kv_storeNtB9_7KVStore3set00Bd_
FN:380,_RNCNCNvMs0_NtNtCsitBd8PkZ0O7_12synap_server4core8kv_storeNtB9_7KVStore4incr00Bd_
FN:381,_RNCNCNvMs0_NtNtCsitBd8PkZ0O7_12synap_server4core8kv_storeNtB9_7KVStore4incr0s_0Bd_
FN:100,_RNCNvMNtNtCsitBd8PkZ0O7_12synap_server4core8kv_storeNtB4_12ShardStorage15get_prefix_keys0B8_
FN:107,_RNCNvMNtNtCsitBd8PkZ0O7_12synap_server4core8kv_storeNtB4_12ShardStorage15get_prefix_keyss0_0B8_
FN:101,_RNCNvMNtNtCsitBd8PkZ0O7_12synap_server4core8kv_storeNtB4_12ShardStorage15get_prefix_keyss_0B8_
FN:75,_RNCNvMNtNtCsitBd8PkZ0O7_12synap_server4core8kv_storeNtB4_12ShardStorage4iter0B8_
FN:76,_RNCNvMNtNtCsitBd8PkZ0O7_12synap_server4core8kv_storeNtB4_12ShardStorage4iters_0B8_
FN:167,_RNCNvMs0_NtNtCsitBd8PkZ0O7_12synap_server4core8kv_storeNtB7_7KVStore14new_with_cache0Bb_
FN:170,_RNCNvMs0_NtNtCsitBd8PkZ0O7_12synap_server4core8kv_storeNtB7_7KVStore14new_with_caches_0Bb_
FN:472,_RNCNvMs0_NtNtCsitBd8PkZ0O7_12synap_server4core8kv_storeNtB7_7KVStore15cleanup_expired0Bb_
FN:204,_RNCNvMs0_NtNtCsitBd8PkZ0O7_12synap_server4core8kv_storeNtB7_7KVStore17start_ttl_cleanup0Bb_
FN:263,_RNCNvMs0_NtNtCsitBd8PkZ0O7_12synap_server4core8kv_storeNtB7_7KVStore3get0Bb_
FN:215,_RNCNvMs0_NtNtCsitBd8PkZ0O7_12synap_server4core8kv_storeNtB7_7KVStore3set0Bb_
FN:353,_RNCNvMs0_NtNtCsitBd8PkZ0O7_12synap_server4core8kv_storeNtB7_7KVStore3ttl0Bb_
FN:401,_RNCNvMs0_NtNtCsitBd8PkZ0O7_12synap_server4core8kv_storeNtB7_7KVStore4decr0Bb_
FN:626,_RNCNvMs0_NtNtCsitBd8PkZ0O7_12synap_server4core8kv_storeNtB7_7KVStore4dump0Bb_
FN:368,_RNCNvMs0_NtNtCsitBd8PkZ0O7_12synap_server4core8kv_storeNtB7_7KVStore4incr0Bb_
FN:533,_RNCNvMs0_NtNtCsitBd8PkZ0O7_12synap_server4core8kv_storeNtB7_7KVStore4keys0Bb_
FN:429,_RNCNvMs0_NtNtCsitBd8PkZ0O7_12synap_server4core8kv_storeNtB7_7KVStore4mdel0Bb_
FN:417,_RNCNvMs0_NtNtCsitBd8PkZ0O7_12synap_server4core8kv_storeNtB7_7KVStore4mget0Bb_
FN:406,_RNCNvMs0_NtNtCsitBd8PkZ0O7_12synap_server4core8kv_storeNtB7_7KVStore4mset0Bb_
FN:443,_RNCNvMs0_NtNtCsitBd8PkZ0O7_12synap_server4core8kv_storeNtB7_7KVStore4scan0Bb_
FN:348,_RNCNvMs0_NtNtCsitBd8PkZ0O7_12synap_server4core8kv_storeNtB7_7KVStore5stats0Bb_
FN:546,_RNCNvMs0_NtNtCsitBd8PkZ0O7_12synap_server4core8kv_storeNtB7_7KVStore6dbsize0Bb_
FN:314,_RNCNvMs0_NtNtCsitBd8PkZ0O7_12synap_server4core8kv_storeNtB7_7KVStore6delete0Bb_
FN:337,_RNCNvMs0_NtNtCsitBd8PkZ0O7_12synap_server4core8kv_storeNtB7_7KVStore6exists0Bb_
FN:592,_RNCNvMs0_NtNtCsitBd8PkZ0O7_12synap_server4core8kv_storeNtB7_7KVStore6expire0Bb_
FN:551,_RNCNvMs0_NtNtCsitBd8PkZ0O7_12synap_server4core8kv_storeNtB7_7KVStore7flushdb0Bb_
FN:609,_RNCNvMs0_NtNtCsitBd8PkZ0O7_12synap_server4core8kv_storeNtB7_7KVStore7persist0Bb_
FN:582,_RNCNvMs0_NtNtCsitBd8PkZ0O7_12synap_server4core8kv_storeNtB7_7KVStore8flushall0Bb_
FN:793,_RNCNvNtNtNtCsfrV5S290jXb_12synap_server4core8kv_store5testss_10test_stats0B9_
FN:824,_RNCNvNtNtNtCsfrV5S290jXb_12synap_server4core8kv_store5testss_11test_dbsize0B9_
FN:672,_RNCNvNtNtNtCsfrV5S290jXb_12synap_server4core8kv_store5testss_11test_delete0B9_
FN:707,_RNCNvNtNtNtCsfrV5S290jXb_12synap_server4core8kv_store5testss_11test_exists0B9_
FN:837,_RNCNvNtNtNtCsfrV5S290jXb_12synap_server4core8kv_store5testss_12test_flushdb0B9_
FN:652,_RNCNvNtNtNtCsfrV5S290jXb_12synap_server4core8kv_store5testss_12test_set_get0B9_
FN:739,_RNCNvNtNtNtCsfrV5S290jXb_12synap_server4core8kv_store5testss_14test_mset_mget0B9_
FN:685,_RNCNvNtNtNtCsfrV5S290jXb_12synap_server4core8kv_store5testss_19test_ttl_expiration0B9_
FN:664,_RNCNvNtNtNtCsfrV5S290jXb_12synap_server4core8kv_store5testss_20test_get_nonexistent0B9_
FN:854,_RNCNvNtNtNtCsfrV5S290jXb_12synap_server4core8kv_store5testss_23test_expire_and_persist0B9_
FN:728,_RNCNvNtNtNtCsfrV5S290jXb_12synap_server4core8kv_store5testss_9test_decr0B9_
FN:717,_RNCNvNtNtNtCsfrV5S290jXb_12synap_server4core8kv_store5testss_9test_incr0B9_
FN:809,_RNCNvNtNtNtCsfrV5S290jXb_12synap_server4core8kv_store5testss_9test_keys0B9_
FN:759,_RNCNvNtNtNtCsfrV5S290jXb_12synap_server4core8kv_store5testss_9test_mdel0B9_
FN:776,_RNCNvNtNtNtCsfrV5S290jXb_12synap_server4core8kv_store5testss_9test_scan0B9_
FN:491,_RNCNCNvMs0_NtNtCsfrV5S290jXb_12synap_server4core8kv_storeNtB9_7KVStore15cleanup_expired00Bd_
FN:472,_RNCNvMs0_NtNtCsfrV5S290jXb_12synap_server4core8kv_storeNtB7_7KVStore15cleanup_expired0Bb_
FN:204,_RNCNvMs0_NtNtCsfrV5S290jXb_12synap_server4core8kv_storeNtB7_7KVStore17start_ttl_cleanup0Bb_
FN:31,_RNvMNtNtCsfrV5S290jXb_12synap_server4core8kv_storeNtB2_12ShardStorage3len
FN:472,_RNvMs0_NtNtCsfrV5S290jXb_12synap_server4core8kv_storeNtB5_7KVStore15cleanup_expired
FN:199,_RNvMs0_NtNtCsfrV5S290jXb_12synap_server4core8kv_storeNtB5_7KVStore17start_ttl_cleanup
FN:249,_RNCNCNvMs0_NtNtCsfrV5S290jXb_12synap_server4core8kv_storeNtB9_7KVStore3set00Bd_
FN:380,_RNCNCNvMs0_NtNtCsfrV5S290jXb_12synap_server4core8kv_storeNtB9_7KVStore4incr00Bd_
FN:381,_RNCNCNvMs0_NtNtCsfrV5S290jXb_12synap_server4core8kv_storeNtB9_7KVStore4incr0s_0Bd_
FN:100,_RNCNvMNtNtCsfrV5S290jXb_12synap_server4core8kv_storeNtB4_12ShardStorage15get_prefix_keys0B8_
FN:107,_RNCNvMNtNtCsfrV5S290jXb_12synap_server4core8kv_storeNtB4_12ShardStorage15get_prefix_keyss0_0B8_
FN:101,_RNCNvMNtNtCsfrV5S290jXb_12synap_server4core8kv_storeNtB4_12ShardStorage15get_prefix_keyss_0B8_
FN:75,_RNCNvMNtNtCsfrV5S290jXb_12synap_server4core8kv_storeNtB4_12ShardStorage4iter0B8_
FN:76,_RNCNvMNtNtCsfrV5S290jXb_12synap_server4core8kv_storeNtB4_12ShardStorage4iters_0B8_
FN:167,_RNCNvMs0_NtNtCsfrV5S290jXb_12synap_server4core8kv_storeNtB7_7KVStore14new_with_cache0Bb_
FN:170,_RNCNvMs0_NtNtCsfrV5S290jXb_12synap_server4core8kv_storeNtB7_7KVStore14new_with_caches_0Bb_
FN:263,_RNCNvMs0_NtNtCsfrV5S290jXb_12synap_server4core8kv_storeNtB7_7KVStore3get0Bb_
FN:215,_RNCNvMs0_NtNtCsfrV5S290jXb_12synap_server4core8kv_storeNtB7_7KVStore3set0Bb_
FN:353,_RNCNvMs0_NtNtCsfrV5S290jXb_12synap_server4core8kv_storeNtB7_7KVStore3ttl0Bb_
FN:401,_RNCNvMs0_NtNtCsfrV5S290jXb_12synap_server4core8kv_storeNtB7_7KVStore4decr0Bb_
FN:626,_RNCNvMs0_NtNtCsfrV5S290jXb_12synap_server4core8kv_storeNtB7_7KVStore4dump0Bb_
FN:368,_RNCNvMs0_NtNtCsfrV5S290jXb_12synap_server4core8kv_storeNtB7_7KVStore4incr0Bb_
FN:533,_RNCNvMs0_NtNtCsfrV5S290jXb_12synap_server4core8kv_storeNtB7_7KVStore4keys0Bb_
FN:429,_RNCNvMs0_NtNtCsfrV5S290jXb_12synap_server4core8kv_storeNtB7_7KVStore4mdel0Bb_
FN:417,_RNCNvMs0_NtNtCsfrV5S290jXb_12synap_server4core8kv_storeNtB7_7KVStore4mget0Bb_
FN:406,_RNCNvMs0_NtNtCsfrV5S290jXb_12synap_server4core8kv_storeNtB7_7KVStore4mset0Bb_
FN:443,_RNCNvMs0_NtNtCsfrV5S290jXb_12synap_server4core8kv_storeNtB7_7KVStore4scan0Bb_
FN:348,_RNCNvMs0_NtNtCsfrV5S290jXb_12synap_server4core8kv_storeNtB7_7KVStore5stats0Bb_
FN:546,_RNCNvMs0_NtNtCsfrV5S290jXb_12synap_server4core8kv_storeNtB7_7KVStore6dbsize0Bb_
FN:314,_RNCNvMs0_NtNtCsfrV5S290jXb_12synap_server4core8kv_storeNtB7_7KVStore6delete0Bb_
FN:337,_RNCNvMs0_NtNtCsfrV5S290jXb_12synap_server4core8kv_storeNtB7_7KVStore6exists0Bb_
FN:592,_RNCNvMs0_NtNtCsfrV5S290jXb_12synap_server4core8kv_storeNtB7_7KVStore6expire0Bb_
FN:551,_RNCNvMs0_NtNtCsfrV5S290jXb_12synap_server4core8kv_storeNtB7_7KVStore7flushdb0Bb_
FN:609,_RNCNvMs0_NtNtCsfrV5S290jXb_12synap_server4core8kv_storeNtB7_7KVStore7persist0Bb_
FN:582,_RNCNvMs0_NtNtCsfrV5S290jXb_12synap_server4core8kv_storeNtB7_7KVStore8flushall0Bb_
FN:793,_RNvNtNtNtCsfrV5S290jXb_12synap_server4core8kv_store5testss_10test_stats
FN:824,_RNvNtNtNtCsfrV5S290jXb_12synap_server4core8kv_store5testss_11test_dbsize
FN:672,_RNvNtNtNtCsfrV5S290jXb_12synap_server4core8kv_store5testss_11test_delete
FN:707,_RNvNtNtNtCsfrV5S290jXb_12synap_server4core8kv_store5testss_11test_exists
FN:837,_RNvNtNtNtCsfrV5S290jXb_12synap_server4core8kv_store5testss_12test_flushdb
FN:652,_RNvNtNtNtCsfrV5S290jXb_12synap_server4core8kv_store5testss_12test_set_get
FN:739,_RNvNtNtNtCsfrV5S290jXb_12synap_server4core8kv_store5testss_14test_mset_mget
FN:685,_RNvNtNtNtCsfrV5S290jXb_12synap_server4core8kv_store5testss_19test_ttl_expiration
FN:664,_RNvNtNtNtCsfrV5S290jXb_12synap_server4core8kv_store5testss_20test_get_nonexistent
FN:854,_RNvNtNtNtCsfrV5S290jXb_12synap_server4core8kv_store5testss_23test_expire_and_persist
FN:728,_RNvNtNtNtCsfrV5S290jXb_12synap_server4core8kv_store5testss_9test_decr
FN:717,_RNvNtNtNtCsfrV5S290jXb_12synap_server4core8kv_store5testss_9test_incr
FN:809,_RNvNtNtNtCsfrV5S290jXb_12synap_server4core8kv_store5testss_9test_keys
FN:759,_RNvNtNtNtCsfrV5S290jXb_12synap_server4core8kv_store5testss_9test_mdel
FN:776,_RNvNtNtNtCsfrV5S290jXb_12synap_server4core8kv_store5testss_9test_scan
FN:95,_RNvMNtNtCsfrV5S290jXb_12synap_server4core8kv_storeNtB2_12ShardStorage15get_prefix_keys
FN:114,_RNvMNtNtCsfrV5S290jXb_12synap_server4core8kv_storeNtB2_12ShardStorage15upgrade_to_trie
FN:38,_RNvMNtNtCsfrV5S290jXb_12synap_server4core8kv_storeNtB2_12ShardStorage3get
FN:25,_RNvMNtNtCsfrV5S290jXb_12synap_server4core8kv_storeNtB2_12ShardStorage3new
FN:73,_RNvMNtNtCsfrV5S290jXb_12synap_server4core8kv_storeNtB2_12ShardStorage4iter
FN:80,_RNvMNtNtCsfrV5S290jXb_12synap_server4core8kv_storeNtB2_12ShardStorage4keys
FN:87,_RNvMNtNtCsfrV5S290jXb_12synap_server4core8kv_storeNtB2_12ShardStorage5clear
FN:52,_RNvMNtNtCsfrV5S290jXb_12synap_server4core8kv_storeNtB2_12ShardStorage6insert
FN:66,_RNvMNtNtCsfrV5S290jXb_12synap_server4core8kv_storeNtB2_12ShardStorage6remove
FN:45,_RNvMNtNtCsfrV5S290jXb_12synap_server4core8kv_storeNtB2_12ShardStorage7get_mut
FN:185,_RNvMs0_NtNtCsfrV5S290jXb_12synap_server4core8kv_storeNtB5_7KVStore13shard_for_keyB9_
FN:160,_RNvMs0_NtNtCsfrV5S290jXb_12synap_server4core8kv_storeNtB5_7KVStore14new_with_cache
FN:528,_RNvMs0_NtNtCsfrV5S290jXb_12synap_server4core8kv_storeNtB5_7KVStore19estimate_entry_size
FN:263,_RNvMs0_NtNtCsfrV5S290jXb_12synap_server4core8kv_storeNtB5_7KVStore3get
FN:155,_RNvMs0_NtNtCsfrV5S290jXb_12synap_server4core8kv_storeNtB5_7KVStore3new
FN:215,_RNvMs0_NtNtCsfrV5S290jXb_12synap_server4core8kv_storeNtB5_7KVStore3set
FN:353,_RNvMs0_NtNtCsfrV5S290jXb_12synap_server4core8kv_storeNtB5_7KVStore3ttl
FN:401,_RNvMs0_NtNtCsfrV5S290jXb_12synap_server4core8kv_storeNtB5_7KVStore4decr
FN:626,_RNvMs0_NtNtCsfrV5S290jXb_12synap_server4core8kv_storeNtB5_7KVStore4dump
FN:368,_RNvMs0_NtNtCsfrV5S290jXb_12synap_server4core8kv_storeNtB5_7KVStore4incr
FN:533,_RNvMs0_NtNtCsfrV5S290jXb_12synap_server4core8kv_storeNtB5_7KVStore4keys
FN:429,_RNvMs0_NtNtCsfrV5S290jXb_12synap_server4core8kv_storeNtB5_7KVStore4mdel
FN:417,_RNvMs0_NtNtCsfrV5S290jXb_12synap_server4core8kv_storeNtB5_7KVStore4mget
FN:406,_RNvMs0_NtNtCsfrV5S290jXb_12synap_server4core8kv_storeNtB5_7KVStore4mset
FN:443,_RNvMs0_NtNtCsfrV5S290jXb_12synap_server4core8kv_storeNtB5_7KVStore4scan
FN:348,_RNvMs0_NtNtCsfrV5S290jXb_12synap_server4core8kv_storeNtB5_7KVStore5stats
FN:546,_RNvMs0_NtNtCsfrV5S290jXb_12synap_server4core8kv_storeNtB5_7KVStore6dbsize
FN:314,_RNvMs0_NtNtCsfrV5S290jXb_12synap_server4core8kv_storeNtB5_7KVStore6delete
FN:337,_RNvMs0_NtNtCsfrV5S290jXb_12synap_server4core8kv_storeNtB5_7KVStore6exists
FN:592,_RNvMs0_NtNtCsfrV5S290jXb_12synap_server4core8kv_storeNtB5_7KVStore6expire
FN:551,_RNvMs0_NtNtCsfrV5S290jXb_12synap_server4core8kv_storeNtB5_7KVStore7flushdb
FN:609,_RNvMs0_NtNtCsfrV5S290jXb_12synap_server4core8kv_storeNtB5_7KVStore7persist
FN:582,_RNvMs0_NtNtCsfrV5S290jXb_12synap_server4core8kv_storeNtB5_7KVStore8flushall
FN:193,_RNvMs0_NtNtCsfrV5S290jXb_12synap_server4core8kv_storeNtB5_7KVStore9get_shardB9_
FN:135,_RNvMs_NtNtCsfrV5S290jXb_12synap_server4core8kv_storeNtB4_7KVShard3new
FNDA:577,_RNvMNtNtCsitBd8PkZ0O7_12synap_server4core8kv_storeNtB2_12ShardStorage15get_prefix_keys
FNDA:37,_RNvMNtNtCsitBd8PkZ0O7_12synap_server4core8kv_storeNtB2_12ShardStorage15upgrade_to_trie
FNDA:11,_RNvMNtNtCsitBd8PkZ0O7_12synap_server4core8kv_storeNtB2_12ShardStorage3get
FNDA:14400,_RNvMNtNtCsitBd8PkZ0O7_12synap_server4core8kv_storeNtB2_12ShardStorage3new
FNDA:128,_RNvMNtNtCsitBd8PkZ0O7_12synap_server4core8kv_storeNtB2_12ShardStorage4iter
FNDA:3264,_RNvMNtNtCsitBd8PkZ0O7_12synap_server4core8kv_storeNtB2_12ShardStorage4keys
FNDA:192,_RNvMNtNtCsitBd8PkZ0O7_12synap_server4core8kv_storeNtB2_12ShardStorage5clear
FNDA:804328,_RNvMNtNtCsitBd8PkZ0O7_12synap_server4core8kv_storeNtB2_12ShardStorage6insert
FNDA:212,_RNvMNtNtCsitBd8PkZ0O7_12synap_server4core8kv_storeNtB2_12ShardStorage6remove
FNDA:18233,_RNvMNtNtCsitBd8PkZ0O7_12synap_server4core8kv_storeNtB2_12ShardStorage7get_mut
FNDA:822673,_RNvMs0_NtNtCsitBd8PkZ0O7_12synap_server4core8kv_storeNtB5_7KVStore13shard_for_keyB9_
FNDA:225,_RNvMs0_NtNtCsitBd8PkZ0O7_12synap_server4core8kv_storeNtB5_7KVStore14new_with_cache
FNDA:0,_RNvMs0_NtNtCsitBd8PkZ0O7_12synap_server4core8kv_storeNtB5_7KVStore15cleanup_expired
FNDA:0,_RNvMs0_NtNtCsitBd8PkZ0O7_12synap_server4core8kv_storeNtB5_7KVStore17start_ttl_cleanup
FNDA:804321,_RNvMs0_NtNtCsitBd8PkZ0O7_12synap_server4core8kv_storeNtB5_7KVStore19estimate_entry_size
FNDA:18247,_RNvMs0_NtNtCsitBd8PkZ0O7_12synap_server4core8kv_storeNtB5_7KVStore3get
FNDA:220,_RNvMs0_NtNtCsitBd8PkZ0O7_12synap_server4core8kv_storeNtB5_7KVStore3new
FNDA:804321,_RNvMs0_NtNtCsitBd8PkZ0O7_12synap_server4core8kv_storeNtB5_7KVStore3set
FNDA:2,_RNvMs0_NtNtCsitBd8PkZ0O7_12synap_server4core8kv_storeNtB5_7KVStore3ttl
FNDA:2,_RNvMs0_NtNtCsitBd8PkZ0O7_12synap_server4core8kv_storeNtB5_7KVStore4decr
FNDA:2,_RNvMs0_NtNtCsitBd8PkZ0O7_12synap_server4core8kv_storeNtB5_7KVStore4dump
FNDA:5,_RNvMs0_NtNtCsitBd8PkZ0O7_12synap_server4core8kv_storeNtB5_7KVStore4incr
FNDA:51,_RNvMs0_NtNtCsitBd8PkZ0O7_12synap_server4core8kv_storeNtB5_7KVStore4keys
FNDA:84,_RNvMs0_NtNtCsitBd8PkZ0O7_12synap_server4core8kv_storeNtB5_7KVStore4mdel
FNDA:3,_RNvMs0_NtNtCsitBd8PkZ0O7_12synap_server4core8kv_storeNtB5_7KVStore4mget
FNDA:3,_RNvMs0_NtNtCsitBd8PkZ0O7_12synap_server4core8kv_storeNtB5_7KVStore4mset
FNDA:10,_RNvMs0_NtNtCsitBd8PkZ0O7_12synap_server4core8kv_storeNtB5_7KVStore4scan
FNDA:11,_RNvMs0_NtNtCsitBd8PkZ0O7_12synap_server4core8kv_storeNtB5_7KVStore5stats
FNDA:14,_RNvMs0_NtNtCsitBd8PkZ0O7_12synap_server4core8kv_storeNtB5_7KVStore6dbsize
FNDA:106,_RNvMs0_NtNtCsitBd8PkZ0O7_12synap_server4core8kv_storeNtB5_7KVStore6delete
FNDA:4,_RNvMs0_NtNtCsitBd8PkZ0O7_12synap_server4core8kv_storeNtB5_7KVStore6exists
FNDA:1,_RNvMs0_NtNtCsitBd8PkZ0O7_12synap_server4core8kv_storeNtB5_7KVStore6expire
FNDA:3,_RNvMs0_NtNtCsitBd8PkZ0O7_12synap_server4core8kv_storeNtB5_7KVStore7flushdb
FNDA:1,_RNvMs0_NtNtCsitBd8PkZ0O7_12synap_server4core8kv_storeNtB5_7KVStore7persist
FNDA:0,_RNvMs0_NtNtCsitBd8PkZ0O7_12synap_server4core8kv_storeNtB5_7KVStore8flushall
FNDA:822673,_RNvMs0_NtNtCsitBd8PkZ0O7_12synap_server4core8kv_storeNtB5_7KVStore9get_shardB9_
FNDA:14400,_RNvMs_NtNtCsitBd8PkZ0O7_12synap_server4core8kv_storeNtB4_7KVShard3new
FNDA:0,_RNvMNtNtCsitBd8PkZ0O7_12synap_server4core8kv_storeNtB2_12ShardStorage3len
FNDA:0,_RNCNCNvMs0_NtNtCsitBd8PkZ0O7_12synap_server4core8kv_storeNtB9_7KVStore15cleanup_expired00Bd_
FNDA:1,_RNCNCNvMs0_NtNtCsitBd8PkZ0O7_12synap_server4core8kv_storeNtB9_7KVStore3set00Bd_
FNDA:3,_RNCNCNvMs0_NtNtCsitBd8PkZ0O7_12synap_server4core8kv_storeNtB9_7KVStore4incr00Bd_
FNDA:0,_RNCNCNvMs0_NtNtCsitBd8PkZ0O7_12synap_server4core8kv_storeNtB9_7KVStore4incr0s_0Bd_
FNDA:4442,_RNCNvMNtNtCsitBd8PkZ0O7_12synap_server4core8kv_storeNtB4_12ShardStorage15get_prefix_keys0B8_
FNDA:0,_RNCNvMNtNtCsitBd8PkZ0O7_12synap_server4core8kv_storeNtB4_12ShardStorage15get_prefix_keyss0_0B8_
FNDA:2234,_RNCNvMNtNtCsitBd8PkZ0O7_12synap_server4core8kv_storeNtB4_12ShardStorage15get_prefix_keyss_0B8_
FNDA:10100,_RNCNvMNtNtCsitBd8PkZ0O7_12synap_server4core8kv_storeNtB4_12ShardStorage4iter0B8_
FNDA:0,_RNCNvMNtNtCsitBd8PkZ0O7_12synap_server4core8kv_storeNtB4_12ShardStorage4iters_0B8_
FNDA:14400,_RNCNvMs0_NtNtCsitBd8PkZ0O7_12synap_server4core8kv_storeNtB7_7KVStore14new_with_cache0Bb_
FNDA:5,_RNCNvMs0_NtNtCsitBd8PkZ0O7_12synap_server4core8kv_storeNtB7_7KVStore14new_with_caches_0Bb_
FNDA:0,_RNCNvMs0_NtNtCsitBd8PkZ0O7_12synap_server4core8kv_storeNtB7_7KVStore15cleanup_expired0Bb_
FNDA:0,_RNCNvMs0_NtNtCsitBd8PkZ0O7_12synap_server4core8kv_storeNtB7_7KVStore17start_ttl_cleanup0Bb_
FNDA:18247,_RNCNvMs0_NtNtCsitBd8PkZ0O7_12synap_server4core8kv_storeNtB7_7KVStore3get0Bb_
FNDA:804321,_RNCNvMs0_NtNtCsitBd8PkZ0O7_12synap_server4core8kv_storeNtB7_7KVStore3set0Bb_
FNDA:2,_RNCNvMs0_NtNtCsitBd8PkZ0O7_12synap_server4core8kv_storeNtB7_7KVStore3ttl0Bb_
FNDA:2,_RNCNvMs0_NtNtCsitBd8PkZ0O7_12synap_server4core8kv_storeNtB7_7KVStore4decr0Bb_
FNDA:2,_RNCNvMs0_NtNtCsitBd8PkZ0O7_12synap_server4core8kv_storeNtB7_7KVStore4dump0Bb_
FNDA:5,_RNCNvMs0_NtNtCsitBd8PkZ0O7_12synap_server4core8kv_storeNtB7_7KVStore4incr0Bb_
FNDA:51,_RNCNvMs0_NtNtCsitBd8PkZ0O7_12synap_server4core8kv_storeNtB7_7KVStore4keys0Bb_
FNDA:84,_RNCNvMs0_NtNtCsitBd8PkZ0O7_12synap_server4core8kv_storeNtB7_7KVStore4mdel0Bb_
FNDA:3,_RNCNvMs0_NtNtCsitBd8PkZ0O7_12synap_server4core8kv_storeNtB7_7KVStore4mget0Bb_
FNDA:3,_RNCNvMs0_NtNtCsitBd8PkZ0O7_12synap_server4core8kv_storeNtB7_7KVStore4mset0Bb_
FNDA:10,_RNCNvMs0_NtNtCsitBd8PkZ0O7_12synap_server4core8kv_storeNtB7_7KVStore4scan0Bb_
FNDA:11,_RNCNvMs0_NtNtCsitBd8PkZ0O7_12synap_server4core8kv_storeNtB7_7KVStore5stats0Bb_
FNDA:14,_RNCNvMs0_NtNtCsitBd8PkZ0O7_12synap_server4core8kv_storeNtB7_7KVStore6dbsize0Bb_
FNDA:106,_RNCNvMs0_NtNtCsitBd8PkZ0O7_12synap_server4core8kv_storeNtB7_7KVStore6delete0Bb_
FNDA:4,_RNCNvMs0_NtNtCsitBd8PkZ0O7_12synap_server4core8kv_storeNtB7_7KVStore6exists0Bb_
FNDA:1,_RNCNvMs0_NtNtCsitBd8PkZ0O7_12synap_server4core8kv_storeNtB7_7KVStore6expire0Bb_
FNDA:3,_RNCNvMs0_NtNtCsitBd8PkZ0O7_12synap_server4core8kv_storeNtB7_7KVStore7flushdb0Bb_
FNDA:1,_RNCNvMs0_NtNtCsitBd8PkZ0O7_12synap_server4core8kv_storeNtB7_7KVStore7persist0Bb_
FNDA:0,_RNCNvMs0_NtNtCsitBd8PkZ0O7_12synap_server4core8kv_storeNtB7_7KVStore8flushall0Bb_
FNDA:2,_RNCNvNtNtNtCsfrV5S290jXb_12synap_server4core8kv_store5testss_10test_stats0B9_
FNDA:2,_RNCNvNtNtNtCsfrV5S290jXb_12synap_server4core8kv_store5testss_11test_dbsize0B9_
FNDA:2,_RNCNvNtNtNtCsfrV5S290jXb_12synap_server4core8kv_store5testss_11test_delete0B9_
FNDA:2,_RNCNvNtNtNtCsfrV5S290jXb_12synap_server4core8kv_store5testss_11test_exists0B9_
FNDA:2,_RNCNvNtNtNtCsfrV5S290jXb_12synap_server4core8kv_store5testss_12test_flushdb0B9_
FNDA:2,_RNCNvNtNtNtCsfrV5S290jXb_12synap_server4core8kv_store5testss_12test_set_get0B9_
FNDA:2,_RNCNvNtNtNtCsfrV5S290jXb_12synap_server4core8kv_store5testss_14test_mset_mget0B9_
FNDA:2,_RNCNvNtNtNtCsfrV5S290jXb_12synap_server4core8kv_store5testss_19test_ttl_expiration0B9_
FNDA:2,_RNCNvNtNtNtCsfrV5S290jXb_12synap_server4core8kv_store5testss_20test_get_nonexistent0B9_
FNDA:2,_RNCNvNtNtNtCsfrV5S290jXb_12synap_server4core8kv_store5testss_23test_expire_and_persist0B9_
FNDA:2,_RNCNvNtNtNtCsfrV5S290jXb_12synap_server4core8kv_store5testss_9test_decr0B9_
FNDA:2,_RNCNvNtNtNtCsfrV5S290jXb_12synap_server4core8kv_store5testss_9test_incr0B9_
FNDA:2,_RNCNvNtNtNtCsfrV5S290jXb_12synap_server4core8kv_store5testss_9test_keys0B9_
FNDA:2,_RNCNvNtNtNtCsfrV5S290jXb_12synap_server4core8kv_store5testss_9test_mdel0B9_
FNDA:2,_RNCNvNtNtNtCsfrV5S290jXb_12synap_server4core8kv_store5testss_9test_scan0B9_
FNDA:0,_RNCNCNvMs0_NtNtCsfrV5S290jXb_12synap_server4core8kv_storeNtB9_7KVStore15cleanup_expired00Bd_
FNDA:0,_RNCNvMs0_NtNtCsfrV5S290jXb_12synap_server4core8kv_storeNtB7_7KVStore15cleanup_expired0Bb_
FNDA:0,_RNCNvMs0_NtNtCsfrV5S290jXb_12synap_server4core8kv_storeNtB7_7KVStore17start_ttl_cleanup0Bb_
FNDA:0,_RNvMNtNtCsfrV5S290jXb_12synap_server4core8kv_storeNtB2_12ShardStorage3len
FNDA:0,_RNvMs0_NtNtCsfrV5S290jXb_12synap_server4core8kv_storeNtB5_7KVStore15cleanup_expired
FNDA:0,_RNvMs0_NtNtCsfrV5S290jXb_12synap_server4core8kv_storeNtB5_7KVStore17start_ttl_cleanup
FNDA:0,_RNCNCNvMs0_NtNtCsfrV5S290jXb_12synap_server4core8kv_storeNtB9_7KVStore3set00Bd_
FNDA:4,_RNCNCNvMs0_NtNtCsfrV5S290jXb_12synap_server4core8kv_storeNtB9_7KVStore4incr00Bd_
FNDA:0,_RNCNCNvMs0_NtNtCsfrV5S290jXb_12synap_server4core8kv_storeNtB9_7KVStore4incr0s_0Bd_
FNDA:6,_RNCNvMNtNtCsfrV5S290jXb_12synap_server4core8kv_storeNtB4_12ShardStorage15get_prefix_keys0B8_
FNDA:0,_RNCNvMNtNtCsfrV5S290jXb_12synap_server4core8kv_storeNtB4_12ShardStorage15get_prefix_keyss0_0B8_
FNDA:4,_RNCNvMNtNtCsfrV5S290jXb_12synap_server4core8kv_storeNtB4_12ShardStorage15get_prefix_keyss_0B8_
FNDA:34,_RNCNvMNtNtCsfrV5S290jXb_12synap_server4core8kv_storeNtB4_12ShardStorage4iter0B8_
FNDA:0,_RNCNvMNtNtCsfrV5S290jXb_12synap_server4core8kv_storeNtB4_12ShardStorage4iters_0B8_
FNDA:4096,_RNCNvMs0_NtNtCsfrV5S290jXb_12synap_server4core8kv_storeNtB7_7KVStore14new_with_cache0Bb_
FNDA:0,_RNCNvMs0_NtNtCsfrV5S290jXb_12synap_server4core8kv_storeNtB7_7KVStore14new_with_caches_0Bb_
FNDA:48,_RNCNvMs0_NtNtCsfrV5S290jXb_12synap_server4core8kv_storeNtB7_7KVStore3get0Bb_
FNDA:98,_RNCNvMs0_NtNtCsfrV5S290jXb_12synap_server4core8kv_storeNtB7_7KVStore3set0Bb_
FNDA:4,_RNCNvMs0_NtNtCsfrV5S290jXb_12synap_server4core8kv_storeNtB7_7KVStore3ttl0Bb_
FNDA:2,_RNCNvMs0_NtNtCsfrV5S290jXb_12synap_server4core8kv_storeNtB7_7KVStore4decr0Bb_
FNDA:12,_RNCNvMs0_NtNtCsfrV5S290jXb_12synap_server4core8kv_storeNtB7_7KVStore4dump0Bb_
FNDA:8,_RNCNvMs0_NtNtCsfrV5S290jXb_12synap_server4core8kv_storeNtB7_7KVStore4incr0Bb_
FNDA:8,_RNCNvMs0_NtNtCsfrV5S290jXb_12synap_server4core8kv_storeNtB7_7KVStore4keys0Bb_
FNDA:2,_RNCNvMs0_NtNtCsfrV5S290jXb_12synap_server4core8kv_storeNtB7_7KVStore4mdel0Bb_
FNDA:2,_RNCNvMs0_NtNtCsfrV5S290jXb_12synap_server4core8kv_storeNtB7_7KVStore4mget0Bb_
FNDA:2,_RNCNvMs0_NtNtCsfrV5S290jXb_12synap_server4core8kv_storeNtB7_7KVStore4mset0Bb_
FNDA:2,_RNCNvMs0_NtNtCsfrV5S290jXb_12synap_server4core8kv_storeNtB7_7KVStore4scan0Bb_
FNDA:2,_RNCNvMs0_NtNtCsfrV5S290jXb_12synap_server4core8kv_storeNtB7_7KVStore5stats0Bb_
FNDA:12,_RNCNvMs0_NtNtCsfrV5S290jXb_12synap_server4core8kv_storeNtB7_7KVStore6dbsize0Bb_
FNDA:8,_RNCNvMs0_NtNtCsfrV5S290jXb_12synap_server4core8kv_storeNtB7_7KVStore6delete0Bb_
FNDA:10,_RNCNvMs0_NtNtCsfrV5S290jXb_12synap_server4core8kv_storeNtB7_7KVStore6exists0Bb_
FNDA:2,_RNCNvMs0_NtNtCsfrV5S290jXb_12synap_server4core8kv_storeNtB7_7KVStore6expire0Bb_
FNDA:2,_RNCNvMs0_NtNtCsfrV5S290jXb_12synap_server4core8kv_storeNtB7_7KVStore7flushdb0Bb_
FNDA:2,_RNCNvMs0_NtNtCsfrV5S290jXb_12synap_server4core8kv_storeNtB7_7KVStore7persist0Bb_
FNDA:0,_RNCNvMs0_NtNtCsfrV5S290jXb_12synap_server4core8kv_storeNtB7_7KVStore8flushall0Bb_
FNDA:2,_RNvNtNtNtCsfrV5S290jXb_12synap_server4core8kv_store5testss_10test_stats
FNDA:2,_RNvNtNtNtCsfrV5S290jXb_12synap_server4core8kv_store5testss_11test_dbsize
FNDA:2,_RNvNtNtNtCsfrV5S290jXb_12synap_server4core8kv_store5testss_11test_delete
FNDA:2,_RNvNtNtNtCsfrV5S290jXb_12synap_server4core8kv_store5testss_11test_exists
FNDA:2,_RNvNtNtNtCsfrV5S290jXb_12synap_server4core8kv_store5testss_12test_flushdb
FNDA:2,_RNvNtNtNtCsfrV5S290jXb_12synap_server4core8kv_store5testss_12test_set_get
FNDA:2,_RNvNtNtNtCsfrV5S290jXb_12synap_server4core8kv_store5testss_14test_mset_mget
FNDA:2,_RNvNtNtNtCsfrV5S290jXb_12synap_server4core8kv_store5testss_19test_ttl_expiration
FNDA:2,_RNvNtNtNtCsfrV5S290jXb_12synap_server4core8kv_store5testss_20test_get_nonexistent
FNDA:2,_RNvNtNtNtCsfrV5S290jXb_12synap_server4core8kv_store5testss_23test_expire_and_persist
FNDA:2,_RNvNtNtNtCsfrV5S290jXb_12synap_server4core8kv_store5testss_9test_decr
FNDA:2,_RNvNtNtNtCsfrV5S290jXb_12synap_server4core8kv_store5testss_9test_incr
FNDA:2,_RNvNtNtNtCsfrV5S290jXb_12synap_server4core8kv_store5testss_9test_keys
FNDA:2,_RNvNtNtNtCsfrV5S290jXb_12synap_server4core8kv_store5testss_9test_mdel
FNDA:2,_RNvNtNtNtCsfrV5S290jXb_12synap_server4core8kv_store5testss_9test_scan
FNDA:128,_RNvMNtNtCsfrV5S290jXb_12synap_server4core8kv_storeNtB2_12ShardStorage15get_prefix_keys
FNDA:0,_RNvMNtNtCsfrV5S290jXb_12synap_server4core8kv_storeNtB2_12ShardStorage15upgrade_to_trie
FNDA:22,_RNvMNtNtCsfrV5S290jXb_12synap_server4core8kv_storeNtB2_12ShardStorage3get
FNDA:4096,_RNvMNtNtCsfrV5S290jXb_12synap_server4core8kv_storeNtB2_12ShardStorage3new
FNDA:768,_RNvMNtNtCsfrV5S290jXb_12synap_server4core8kv_storeNtB2_12ShardStorage4iter
FNDA:512,_RNvMNtNtCsfrV5S290jXb_12synap_server4core8kv_storeNtB2_12ShardStorage4keys
FNDA:128,_RNvMNtNtCsfrV5S290jXb_12synap_server4core8kv_storeNtB2_12ShardStorage5clear
FNDA:110,_RNvMNtNtCsfrV5S290jXb_12synap_server4core8kv_storeNtB2_12ShardStorage6insert
FNDA:14,_RNvMNtNtCsfrV5S290jXb_12synap_server4core8kv_storeNtB2_12ShardStorage6remove
FNDA:48,_RNvMNtNtCsfrV5S290jXb_12synap_server4core8kv_storeNtB2_12ShardStorage7get_mut
FNDA:180,_RNvMs0_NtNtCsfrV5S290jXb_12synap_server4core8kv_storeNtB5_7KVStore13shard_for_keyB9_
FNDA:64,_RNvMs0_NtNtCsfrV5S290jXb_12synap_server4core8kv_storeNtB5_7KVStore14new_with_cache
FNDA:98,_RNvMs0_NtNtCsfrV5S290jXb_12synap_server4core8kv_storeNtB5_7KVStore19estimate_entry_size
FNDA:48,_RNvMs0_NtNtCsfrV5S290jXb_12synap_server4core8kv_storeNtB5_7KVStore3get
FNDA:64,_RNvMs0_NtNtCsfrV5S290jXb_12synap_server4core8kv_storeNtB5_7KVStore3new
FNDA:98,_RNvMs0_NtNtCsfrV5S290jXb_12synap_server4core8kv_storeNtB5_7KVStore3set
FNDA:4,_RNvMs0_NtNtCsfrV5S290jXb_12synap_server4core8kv_storeNtB5_7KVStore3ttl
FNDA:2,_RNvMs0_NtNtCsfrV5S290jXb_12synap_server4core8kv_storeNtB5_7KVStore4decr
FNDA:12,_RNvMs0_NtNtCsfrV5S290jXb_12synap_server4core8kv_storeNtB5_7KVStore4dump
FNDA:8,_RNvMs0_NtNtCsfrV5S290jXb_12synap_server4core8kv_storeNtB5_7KVStore4incr
FNDA:8,_RNvMs0_NtNtCsfrV5S290jXb_12synap_server4core8kv_storeNtB5_7KVStore4keys
FNDA:2,_RNvMs0_NtNtCsfrV5S290jXb_12synap_server4core8kv_storeNtB5_7KVStore4mdel
FNDA:2,_RNvMs0_NtNtCsfrV5S290jXb_12synap_server4core8kv_storeNtB5_7KVStore4mget
FNDA:2,_RNvMs0_NtNtCsfrV5S290jXb_12synap_server4core8kv_storeNtB5_7KVStore4mset
FNDA:2,_RNvMs0_NtNtCsfrV5S290jXb_12synap_server4core8kv_storeNtB5_7KVStore4scan
FNDA:2,_RNvMs0_NtNtCsfrV5S290jXb_12synap_server4core8kv_storeNtB5_7KVStore5stats
FNDA:12,_RNvMs0_NtNtCsfrV5S290jXb_12synap_server4core8kv_storeNtB5_7KVStore6dbsize
FNDA:8,_RNvMs0_NtNtCsfrV5S290jXb_12synap_server4core8kv_storeNtB5_7KVStore6delete
FNDA:10,_RNvMs0_NtNtCsfrV5S290jXb_12synap_server4core8kv_storeNtB5_7KVStore6exists
FNDA:2,_RNvMs0_NtNtCsfrV5S290jXb_12synap_server4core8kv_storeNtB5_7KVStore6expire
FNDA:2,_RNvMs0_NtNtCsfrV5S290jXb_12synap_server4core8kv_storeNtB5_7KVStore7flushdb
FNDA:2,_RNvMs0_NtNtCsfrV5S290jXb_12synap_server4core8kv_storeNtB5_7KVStore7persist
FNDA:0,_RNvMs0_NtNtCsfrV5S290jXb_12synap_server4core8kv_storeNtB5_7KVStore8flushall
FNDA:180,_RNvMs0_NtNtCsfrV5S290jXb_12synap_server4core8kv_storeNtB5_7KVStore9get_shardB9_
FNDA:4096,_RNvMs_NtNtCsfrV5S290jXb_12synap_server4core8kv_storeNtB4_7KVShard3new
FNF:100
FNH:89
DA:25,18496
DA:27,18496
DA:28,18496
DA:31,0
DA:32,0
DA:33,0
DA:34,0
DA:36,0
DA:38,33
DA:39,33
DA:40,33
DA:41,0
DA:43,33
DA:45,18281
DA:46,18281
DA:47,18245
DA:48,36
DA:50,18281
DA:52,804438
DA:53,804438
DA:54,802077
DA:55,802077
DA:57,802077
DA:58,37
DA:59,802040
DA:60,802077
DA:62,2361
DA:64,804438
DA:66,226
DA:67,226
DA:68,226
DA:69,0
DA:71,226
DA:73,896
DA:74,896
DA:75,10134
DA:76,0
DA:78,896
DA:80,3776
DA:81,3776
DA:82,3776
DA:83,0
DA:85,3776
DA:87,320
DA:88,320
DA:89,320
DA:90,0
DA:92,320
DA:95,705
DA:96,705
DA:97,705
DA:99,705
DA:100,4448
DA:101,2238
DA:102,705
DA:104,0
DA:106,0
DA:107,0
DA:108,0
DA:111,705
DA:114,37
DA:115,37
DA:116,37
DA:117,0
DA:120,37
DA:121,370000
DA:122,370000
DA:123,370000
DA:124,37
DA:125,0
DA:126,37
DA:135,18496
DA:136,18496
DA:137,18496
DA:138,18496
DA:139,18496
DA:155,284
DA:156,284
DA:157,284
DA:160,289
DA:161,289
DA:162,0
DA:167,18496
DA:170,289
DA:171,5
DA:172,5
DA:173,5
DA:175,289
DA:176,289
DA:177,289
DA:178,289
DA:179,289
DA:180,289
DA:181,289
DA:185,822853
DA:186,822853
DA:187,822853
DA:188,822853
DA:189,822853
DA:193,822853
DA:194,822853
DA:195,822853
DA:196,822853
DA:199,0
DA:200,0
DA:201,0
DA:203,0
DA:204,0
DA:205,0
DA:208,0
DA:209,0
DA:212,0
DA:215,804419
DA:216,804419
DA:218,804419
DA:219,804419
DA:223,804419
DA:224,804419
DA:225,804419
DA:226,0
DA:227,0
DA:228,0
DA:230,0
DA:231,804419
DA:235,804419
DA:236,804419
DA:237,804419
DA:240,804419
DA:241,804419
DA:242,804419
DA:243,804180
DA:244,804180
DA:245,804180
DA:248,804419
DA:249,13
DA:250,1
DA:251,1
DA:252,1
DA:253,1
DA:254,1
DA:255,1
DA:256,13
DA:257,804406
DA:259,804419
DA:260,804419
DA:263,18295
DA:264,18295
DA:267,18295
DA:268,28
DA:269,14
DA:270,14
DA:271,14
DA:272,14
DA:273,14
DA:274,14
DA:275,18267
DA:278,18281
DA:279,18281
DA:281,18281
DA:282,18281
DA:284,18281
DA:286,18210
DA:287,106
DA:288,106
DA:289,106
DA:290,106
DA:291,106
DA:292,18104
DA:295,18104
DA:296,18104
DA:298,18104
DA:301,18104
DA:302,0
DA:303,0
DA:304,18104
DA:306,18104
DA:308,71
DA:309,71
DA:311,18295
DA:314,114
DA:315,114
DA:318,114
DA:319,1
DA:320,113
DA:322,114
DA:323,114
DA:324,114
DA:326,114
DA:327,109
DA:328,109
DA:329,109
DA:330,109
DA:332,5
DA:334,114
DA:337,14
DA:338,14
DA:339,14
DA:340,14
DA:341,6
DA:343,8
DA:345,14
DA:348,13
DA:349,13
DA:350,13
DA:353,6
DA:354,6
DA:355,6
DA:356,6
DA:357,6
DA:358,0
DA:360,6
DA:363,0
DA:365,6
DA:368,13
DA:369,13
DA:371,13
DA:372,13
DA:374,13
DA:375,7
DA:376,0
DA:378,7
DA:379,7
DA:380,7
DA:381,7
DA:382,0
DA:383,0
DA:386,6
DA:389,13
DA:390,13
DA:392,13
DA:394,13
DA:395,13
DA:397,13
DA:398,13
DA:401,4
DA:402,4
DA:403,4
DA:406,5
DA:407,5
DA:409,117
DA:410,112
DA:413,5
DA:414,5
DA:417,5
DA:418,5
DA:420,5
DA:421,119
DA:422,114
DA:425,5
DA:426,5
DA:429,86
DA:430,86
DA:432,86
DA:433,184
DA:434,98
DA:435,94
DA:436,94
DA:439,86
DA:440,86
DA:443,12
DA:444,12
DA:446,12
DA:449,705
DA:450,705
DA:452,705
DA:453,705
DA:455,0
DA:458,705
DA:461,705
DA:462,1
DA:463,1
DA:464,704
DA:467,12
DA:468,12
DA:472,0
DA:476,0
DA:479,0
DA:480,0
DA:481,0
DA:484,0
DA:487,0
DA:488,0
DA:489,0
DA:490,0
DA:491,0
DA:492,0
DA:494,0
DA:495,0
DA:496,0
DA:497,0
DA:502,0
DA:503,0
DA:504,0
DA:505,0
DA:506,0
DA:507,0
DA:508,0
DA:511,0
DA:512,0
DA:513,0
DA:517,0
DA:518,0
DA:519,0
DA:522,0
DA:523,0
DA:524,0
DA:525,0
DA:528,804419
DA:529,804419
DA:530,804419
DA:533,59
DA:534,59
DA:537,3776
DA:538,3776
DA:539,3776
DA:540,3776
DA:542,59
DA:543,59
DA:546,26
DA:547,26
DA:548,26
DA:551,5
DA:552,5
DA:555,5
DA:556,0
DA:557,0
DA:558,0
DA:559,5
DA:561,5
DA:564,5
DA:565,1
DA:566,4
DA:569,320
DA:570,320
DA:571,320
DA:572,320
DA:574,5
DA:575,5
DA:576,5
DA:578,5
DA:579,5
DA:582,0
DA:583,0
DA:584,0
DA:585,0
DA:586,0
DA:587,0
DA:588,0
DA:589,0
DA:592,3
DA:593,3
DA:595,3
DA:596,3
DA:598,3
DA:600,3
DA:601,3
DA:602,3
DA:604,0
DA:606,3
DA:609,3
DA:610,3
DA:612,3
DA:613,3
DA:615,3
DA:617,3
DA:618,3
DA:619,3
DA:621,0
DA:623,3
DA:626,14
DA:627,14
DA:630,896
DA:631,896
DA:632,896
DA:633,896
DA:636,11030
DA:637,10134
DA:638,10134
DA:639,10134
DA:643,14
DA:644,14
DA:652,2
DA:653,2
DA:656,2
DA:659,2
DA:660,2
DA:661,2
DA:664,2
DA:665,2
DA:667,2
DA:668,2
DA:669,2
DA:672,2
DA:673,2
DA:675,2
DA:677,2
DA:678,2
DA:680,2
DA:681,2
DA:682,2
DA:685,2
DA:686,2
DA:689,2
DA:690,2
DA:691,2
DA:692,2
DA:695,2
DA:696,2
DA:699,2
DA:702,2
DA:703,2
DA:704,2
DA:707,2
DA:708,2
DA:710,2
DA:712,2
DA:713,2
DA:714,2
DA:717,2
DA:718,2
DA:720,2
DA:721,2
DA:723,2
DA:724,2
DA:725,2
DA:728,2
DA:729,2
DA:731,2
DA:732,2
DA:734,2
DA:735,2
DA:736,2
DA:739,2
DA:740,2
DA:742,2
DA:743,2
DA:744,2
DA:745,2
DA:748,2
DA:750,2
DA:751,2
DA:753,2
DA:754,2
DA:755,2
DA:756,2
DA:759,2
DA:760,2
DA:762,2
DA:763,2
DA:764,2
DA:766,2
DA:767,2
DA:769,2
DA:770,2
DA:771,2
DA:772,2
DA:773,2
DA:776,2
DA:777,2
DA:779,2
DA:780,2
DA:781,2
DA:782,2
DA:783,2
DA:784,2
DA:786,2
DA:787,2
DA:788,2
DA:789,2
DA:790,2
DA:793,2
DA:794,2
DA:796,2
DA:797,2
DA:798,2
DA:800,2
DA:801,2
DA:802,2
DA:803,2
DA:804,2
DA:805,2
DA:806,2
DA:809,2
DA:810,2
DA:812,2
DA:813,2
DA:814,2
DA:816,2
DA:817,2
DA:818,2
DA:819,2
DA:820,2
DA:821,2
DA:824,2
DA:825,2
DA:827,2
DA:829,2
DA:830,2
DA:832,2
DA:833,2
DA:834,2
DA:837,2
DA:838,2
DA:839,2
DA:840,2
DA:842,2
DA:843,2
DA:844,2
DA:846,2
DA:848,2
DA:849,2
DA:850,2
DA:851,2
DA:854,2
DA:855,2
DA:857,2
DA:860,2
DA:861,2
DA:863,2
DA:864,2
DA:865,2
DA:868,2
DA:869,2
DA:871,2
DA:872,2
DA:873,2
BRF:0
BRH:0
LF:589
LH:497
end_of_record
SF:/mnt/f/Node/hivellm/synap/synap-server/src/core/partition.rs
FN:525,_RNCNCNvMs3_NtNtCsitBd8PkZ0O7_12synap_server4core9partitionNtB9_16PartitionManager11consume_all00Bd_
FN:526,_RNCNCNvMs3_NtNtCsitBd8PkZ0O7_12synap_server4core9partitionNtB9_16PartitionManager11consume_all0s_0Bd_
FN:520,_RNCNvMs3_NtNtCsitBd8PkZ0O7_12synap_server4core9partitionNtB7_16PartitionManager11consume_all0Bb_
FN:581,_RNCNvMs3_NtNtCsitBd8PkZ0O7_12synap_server4core9partitionNtB7_16PartitionManager14get_all_events0Bb_
FN:535,_RNCNCNvMs3_NtNtCsitBd8PkZ0O7_12synap_server4core9partitionNtB9_16PartitionManager11topic_stats00Bd_
FN:536,_RNCNCNvMs3_NtNtCsitBd8PkZ0O7_12synap_server4core9partitionNtB9_16PartitionManager11topic_stats0s_0Bd_
FN:471,_RNCNCNvMs3_NtNtCsitBd8PkZ0O7_12synap_server4core9partitionNtB9_16PartitionManager12create_topic00Bd_
FN:510,_RNCNCNvMs3_NtNtCsitBd8PkZ0O7_12synap_server4core9partitionNtB9_16PartitionManager17consume_partition00Bd_
FN:492,_RNCNCNvMs3_NtNtCsitBd8PkZ0O7_12synap_server4core9partitionNtB9_16PartitionManager7publish00Bd_
FN:106,_RNCNvMs0_NtNtCsitBd8PkZ0O7_12synap_server4core9partitionNtB7_14PartitionEvent3new0Bb_
FN:271,_RNCNvMs1_NtNtCsitBd8PkZ0O7_12synap_server4core9partitionNtB7_9Partition15compact_by_time0Bb_
FN:179,_RNCNvMs1_NtNtCsitBd8PkZ0O7_12synap_server4core9partitionNtB7_9Partition4read0Bb_
FN:420,_RNCNvMs2_NtNtCsitBd8PkZ0O7_12synap_server4core9partitionNtB7_16PartitionedTopic11compact_all0Bb_
FN:439,_RNCNvMs2_NtNtCsitBd8PkZ0O7_12synap_server4core9partitionNtB7_16PartitionedTopic14get_all_events0Bb_
FN:368,_RNCNvMs2_NtNtCsitBd8PkZ0O7_12synap_server4core9partitionNtB7_16PartitionedTopic16select_partition0Bb_
FN:391,_RNCNvMs2_NtNtCsitBd8PkZ0O7_12synap_server4core9partitionNtB7_16PartitionedTopic17consume_partition0Bb_
FN:392,_RNCNvMs2_NtNtCsitBd8PkZ0O7_12synap_server4core9partitionNtB7_16PartitionedTopic17consume_partitions_0Bb_
FN:412,_RNCNvMs2_NtNtCsitBd8PkZ0O7_12synap_server4core9partitionNtB7_16PartitionedTopic5stats0Bb_
FN:557,_RNCNvMs3_NtNtCsitBd8PkZ0O7_12synap_server4core9partitionNtB7_16PartitionManager11compact_all0Bb_
FN:540,_RNCNvMs3_NtNtCsitBd8PkZ0O7_12synap_server4core9partitionNtB7_16PartitionManager11list_topics0Bb_
FN:530,_RNCNvMs3_NtNtCsitBd8PkZ0O7_12synap_server4core9partitionNtB7_16PartitionManager11topic_stats0Bb_
FN:464,_RNCNvMs3_NtNtCsitBd8PkZ0O7_12synap_server4core9partitionNtB7_16PartitionManager12create_topic0Bb_
FN:546,_RNCNvMs3_NtNtCsitBd8PkZ0O7_12synap_server4core9partitionNtB7_16PartitionManager12delete_topic0Bb_
FN:505,_RNCNvMs3_NtNtCsitBd8PkZ0O7_12synap_server4core9partitionNtB7_16PartitionManager17consume_partition0Bb_
FN:570,_RNCNvMs3_NtNtCsitBd8PkZ0O7_12synap_server4core9partitionNtB7_16PartitionManager21start_compaction_task0Bb_
FN:487,_RNCNvMs3_NtNtCsitBd8PkZ0O7_12synap_server4core9partitionNtB7_16PartitionManager7publish0Bb_
FN:104,_RNvMs0_NtNtCsitBd8PkZ0O7_12synap_server4core9partitionNtB5_14PartitionEvent3new
FN:260,_RNvMs1_NtNtCsitBd8PkZ0O7_12synap_server4core9partitionNtB5_9Partition13maybe_compact
FN:309,_RNvMs1_NtNtCsitBd8PkZ0O7_12synap_server4core9partitionNtB5_9Partition14get_all_events
FN:289,_RNvMs1_NtNtCsitBd8PkZ0O7_12synap_server4core9partitionNtB5_9Partition15compact_by_size
FN:267,_RNvMs1_NtNtCsitBd8PkZ0O7_12synap_server4core9partitionNtB5_9Partition15compact_by_time
FN:299,_RNvMs1_NtNtCsitBd8PkZ0O7_12synap_server4core9partitionNtB5_9Partition16compact_by_count
FN:147,_RNvMs1_NtNtCsitBd8PkZ0O7_12synap_server4core9partitionNtB5_9Partition3new
FN:176,_RNvMs1_NtNtCsitBd8PkZ0O7_12synap_server4core9partitionNtB5_9Partition4read
FN:186,_RNvMs1_NtNtCsitBd8PkZ0O7_12synap_server4core9partitionNtB5_9Partition5stats
FN:161,_RNvMs1_NtNtCsitBd8PkZ0O7_12synap_server4core9partitionNtB5_9Partition6append
FN:203,_RNvMs1_NtNtCsitBd8PkZ0O7_12synap_server4core9partitionNtB5_9Partition7compact
FN:416,_RNvMs2_NtNtCsitBd8PkZ0O7_12synap_server4core9partitionNtB5_16PartitionedTopic11compact_all
FN:396,_RNvMs2_NtNtCsitBd8PkZ0O7_12synap_server4core9partitionNtB5_16PartitionedTopic11consume_all
FN:435,_RNvMs2_NtNtCsitBd8PkZ0O7_12synap_server4core9partitionNtB5_16PartitionedTopic14get_all_events
FN:425,_RNvMs2_NtNtCsitBd8PkZ0O7_12synap_server4core9partitionNtB5_16PartitionedTopic15partition_count
FN:356,_RNvMs2_NtNtCsitBd8PkZ0O7_12synap_server4core9partitionNtB5_16PartitionedTopic16select_partition
FN:383,_RNvMs2_NtNtCsitBd8PkZ0O7_12synap_server4core9partitionNtB5_16PartitionedTopic17consume_partition
FN:342,_RNvMs2_NtNtCsitBd8PkZ0O7_12synap_server4core9partitionNtB5_16PartitionedTopic3new
FN:430,_RNvMs2_NtNtCsitBd8PkZ0O7_12synap_server4core9partitionNtB5_16PartitionedTopic4name
FN:411,_RNvMs2_NtNtCsitBd8PkZ0O7_12synap_server4core9partitionNtB5_16PartitionedTopic5stats
FN:376,_RNvMs2_NtNtCsitBd8PkZ0O7_12synap_server4core9partitionNtB5_16PartitionedTopic7publish
FN:557,_RNvMs3_NtNtCsitBd8PkZ0O7_12synap_server4core9partitionNtB5_16PartitionManager11compact_all
FN:515,_RNvMs3_NtNtCsitBd8PkZ0O7_12synap_server4core9partitionNtB5_16PartitionManager11consume_all
FN:540,_RNvMs3_NtNtCsitBd8PkZ0O7_12synap_server4core9partitionNtB5_16PartitionManager11list_topics
FN:530,_RNvMs3_NtNtCsitBd8PkZ0O7_12synap_server4core9partitionNtB5_16PartitionManager11topic_stats
FN:460,_RNvMs3_NtNtCsitBd8PkZ0O7_12synap_server4core9partitionNtB5_16PartitionManager12create_topic
FN:546,_RNvMs3_NtNtCsitBd8PkZ0O7_12synap_server4core9partitionNtB5_16PartitionManager12delete_topic
FN:581,_RNvMs3_NtNtCsitBd8PkZ0O7_12synap_server4core9partitionNtB5_16PartitionManager14get_all_events
FN:499,_RNvMs3_NtNtCsitBd8PkZ0O7_12synap_server4core9partitionNtB5_16PartitionManager17consume_partition
FN:569,_RNvMs3_NtNtCsitBd8PkZ0O7_12synap_server4core9partitionNtB5_16PartitionManager21start_compaction_task
FN:452,_RNvMs3_NtNtCsitBd8PkZ0O7_12synap_server4core9partitionNtB5_16PartitionManager3new
FN:481,_RNvMs3_NtNtCsitBd8PkZ0O7_12synap_server4core9partitionNtB5_16PartitionManager7publish
FN:37,_RNvXNtNtCsitBd8PkZ0O7_12synap_server4core9partitionNtB2_15RetentionPolicyNtNtCsluXpZPV6FGj_4core7default7Default7default
FN:64,_RNvXs_NtNtCsitBd8PkZ0O7_12synap_server4core9partitionNtB4_15PartitionConfigNtNtCsluXpZPV6FGj_4core7default7Default7default
FN:525,_RNCNCNvMs3_NtNtCsfrV5S290jXb_12synap_server4core9partitionNtB9_16PartitionManager11consume_all00Bd_
FN:526,_RNCNCNvMs3_NtNtCsfrV5S290jXb_12synap_server4core9partitionNtB9_16PartitionManager11consume_all0s_0Bd_
FN:535,_RNCNCNvMs3_NtNtCsfrV5S290jXb_12synap_server4core9partitionNtB9_16PartitionManager11topic_stats00Bd_
FN:536,_RNCNCNvMs3_NtNtCsfrV5S290jXb_12synap_server4core9partitionNtB9_16PartitionManager11topic_stats0s_0Bd_
FN:471,_RNCNCNvMs3_NtNtCsfrV5S290jXb_12synap_server4core9partitionNtB9_16PartitionManager12create_topic00Bd_
FN:510,_RNCNCNvMs3_NtNtCsfrV5S290jXb_12synap_server4core9partitionNtB9_16PartitionManager17consume_partition00Bd_
FN:492,_RNCNCNvMs3_NtNtCsfrV5S290jXb_12synap_server4core9partitionNtB9_16PartitionManager7publish00Bd_
FN:106,_RNCNvMs0_NtNtCsfrV5S290jXb_12synap_server4core9partitionNtB7_14PartitionEvent3new0Bb_
FN:271,_RNCNvMs1_NtNtCsfrV5S290jXb_12synap_server4core9partitionNtB7_9Partition15compact_by_time0Bb_
FN:179,_RNCNvMs1_NtNtCsfrV5S290jXb_12synap_server4core9partitionNtB7_9Partition4read0Bb_
FN:420,_RNCNvMs2_NtNtCsfrV5S290jXb_12synap_server4core9partitionNtB7_16PartitionedTopic11compact_all0Bb_
FN:368,_RNCNvMs2_NtNtCsfrV5S290jXb_12synap_server4core9partitionNtB7_16PartitionedTopic16select_partition0Bb_
FN:391,_RNCNvMs2_NtNtCsfrV5S290jXb_12synap_server4core9partitionNtB7_16PartitionedTopic17consume_partition0Bb_
FN:392,_RNCNvMs2_NtNtCsfrV5S290jXb_12synap_server4core9partitionNtB7_16PartitionedTopic17consume_partitions_0Bb_
FN:412,_RNCNvMs2_NtNtCsfrV5S290jXb_12synap_server4core9partitionNtB7_16PartitionedTopic5stats0Bb_
FN:557,_RNCNvMs3_NtNtCsfrV5S290jXb_12synap_server4core9partitionNtB7_16PartitionManager11compact_all0Bb_
FN:520,_RNCNvMs3_NtNtCsfrV5S290jXb_12synap_server4core9partitionNtB7_16PartitionManager11consume_all0Bb_
FN:540,_RNCNvMs3_NtNtCsfrV5S290jXb_12synap_server4core9partitionNtB7_16PartitionManager11list_topics0Bb_
FN:530,_RNCNvMs3_NtNtCsfrV5S290jXb_12synap_server4core9partitionNtB7_16PartitionManager11topic_stats0Bb_
FN:464,_RNCNvMs3_NtNtCsfrV5S290jXb_12synap_server4core9partitionNtB7_16PartitionManager12create_topic0Bb_
FN:546,_RNCNvMs3_NtNtCsfrV5S290jXb_12synap_server4core9partitionNtB7_16PartitionManager12delete_topic0Bb_
FN:505,_RNCNvMs3_NtNtCsfrV5S290jXb_12synap_server4core9partitionNtB7_16PartitionManager17consume_partition0Bb_
FN:487,_RNCNvMs3_NtNtCsfrV5S290jXb_12synap_server4core9partitionNtB7_16PartitionManager7publish0Bb_
FN:702,_RNCNvNtNtNtCsfrV5S290jXb_12synap_server4core9partition5testss_22test_retention_by_size0B9_
FN:675,_RNCNvNtNtNtCsfrV5S290jXb_12synap_server4core9partition5testss_22test_retention_by_time0B9_
FN:598,_RNCNvNtNtNtCsfrV5S290jXb_12synap_server4core9partition5testss_23test_partition_creation0B9_
FN:728,_RNCNvNtNtNtCsfrV5S290jXb_12synap_server4core9partition5testss_23test_retention_by_count0B9_
FN:784,_RNCNvNtNtNtCsfrV5S290jXb_12synap_server4core9partition5testss_27test_consume_all_partitions0B9_
FN:754,_RNCNvNtNtNtCsfrV5S290jXb_12synap_server4core9partition5testss_30test_combined_retention_policy0B9_
FN:613,_RNCNvNtNtNtCsfrV5S290jXb_12synap_server4core9partition5testss_30test_partition_publish_consume0B9_
FN:641,_RNCNvNtNtNtCsfrV5S290jXb_12synap_server4core9partition5testss_32test_partition_key_based_routing0B9_
FN:702,_RNvNtNtNtCsfrV5S290jXb_12synap_server4core9partition5testss_22test_retention_by_size
FN:675,_RNvNtNtNtCsfrV5S290jXb_12synap_server4core9partition5testss_22test_retention_by_time
FN:598,_RNvNtNtNtCsfrV5S290jXb_12synap_server4core9partition5testss_23test_partition_creation
FN:728,_RNvNtNtNtCsfrV5S290jXb_12synap_server4core9partition5testss_23test_retention_by_count
FN:784,_RNvNtNtNtCsfrV5S290jXb_12synap_server4core9partition5testss_27test_consume_all_partitions
FN:754,_RNvNtNtNtCsfrV5S290jXb_12synap_server4core9partition5testss_30test_combined_retention_policy
FN:613,_RNvNtNtNtCsfrV5S290jXb_12synap_server4core9partition5testss_30test_partition_publish_consume
FN:641,_RNvNtNtNtCsfrV5S290jXb_12synap_server4core9partition5testss_32test_partition_key_based_routing
FN:439,_RNCNvMs2_NtNtCsfrV5S290jXb_12synap_server4core9partitionNtB7_16PartitionedTopic14get_all_events0Bb_
FN:581,_RNCNvMs3_NtNtCsfrV5S290jXb_12synap_server4core9partitionNtB7_16PartitionManager14get_all_events0Bb_
FN:570,_RNCNvMs3_NtNtCsfrV5S290jXb_12synap_server4core9partitionNtB7_16PartitionManager21start_compaction_task0Bb_
FN:309,_RNvMs1_NtNtCsfrV5S290jXb_12synap_server4core9partitionNtB5_9Partition14get_all_events
FN:435,_RNvMs2_NtNtCsfrV5S290jXb_12synap_server4core9partitionNtB5_16PartitionedTopic14get_all_events
FN:425,_RNvMs2_NtNtCsfrV5S290jXb_12synap_server4core9partitionNtB5_16PartitionedTopic15partition_count
FN:430,_RNvMs2_NtNtCsfrV5S290jXb_12synap_server4core9partitionNtB5_16PartitionedTopic4name
FN:581,_RNvMs3_NtNtCsfrV5S290jXb_12synap_server4core9partitionNtB5_16PartitionManager14get_all_events
FN:569,_RNvMs3_NtNtCsfrV5S290jXb_12synap_server4core9partitionNtB5_16PartitionManager21start_compaction_task
FN:104,_RNvMs0_NtNtCsfrV5S290jXb_12synap_server4core9partitionNtB5_14PartitionEvent3new
FN:260,_RNvMs1_NtNtCsfrV5S290jXb_12synap_server4core9partitionNtB5_9Partition13maybe_compact
FN:289,_RNvMs1_NtNtCsfrV5S290jXb_12synap_server4core9partitionNtB5_9Partition15compact_by_size
FN:267,_RNvMs1_NtNtCsfrV5S290jXb_12synap_server4core9partitionNtB5_9Partition15compact_by_time
FN:299,_RNvMs1_NtNtCsfrV5S290jXb_12synap_server4core9partitionNtB5_9Partition16compact_by_count
FN:147,_RNvMs1_NtNtCsfrV5S290jXb_12synap_server4core9partitionNtB5_9Partition3new
FN:176,_RNvMs1_NtNtCsfrV5S290jXb_12synap_server4core9partitionNtB5_9Partition4read
FN:186,_RNvMs1_NtNtCsfrV5S290jXb_12synap_server4core9partitionNtB5_9Partition5stats
FN:161,_RNvMs1_NtNtCsfrV5S290jXb_12synap_server4core9partitionNtB5_9Partition6append
FN:203,_RNvMs1_NtNtCsfrV5S290jXb_12synap_server4core9partitionNtB5_9Partition7compact
FN:416,_RNvMs2_NtNtCsfrV5S290jXb_12synap_server4core9partitionNtB5_16PartitionedTopic11compact_all
FN:396,_RNvMs2_NtNtCsfrV5S290jXb_12synap_server4core9partitionNtB5_16PartitionedTopic11consume_all
FN:356,_RNvMs2_NtNtCsfrV5S290jXb_12synap_server4core9partitionNtB5_16PartitionedTopic16select_partition
FN:383,_RNvMs2_NtNtCsfrV5S290jXb_12synap_server4core9partitionNtB5_16PartitionedTopic17consume_partition
FN:342,_RNvMs2_NtNtCsfrV5S290jXb_12synap_server4core9partitionNtB5_16PartitionedTopic3new
FN:411,_RNvMs2_NtNtCsfrV5S290jXb_12synap_server4core9partitionNtB5_16PartitionedTopic5stats
FN:376,_RNvMs2_NtNtCsfrV5S290jXb_12synap_server4core9partitionNtB5_16PartitionedTopic7publish
FN:557,_RNvMs3_NtNtCsfrV5S290jXb_12synap_server4core9partitionNtB5_16PartitionManager11compact_all
FN:515,_RNvMs3_NtNtCsfrV5S290jXb_12synap_server4core9partitionNtB5_16PartitionManager11consume_all
FN:540,_RNvMs3_NtNtCsfrV5S290jXb_12synap_server4core9partitionNtB5_16PartitionManager11list_topics
FN:530,_RNvMs3_NtNtCsfrV5S290jXb_12synap_server4core9partitionNtB5_16PartitionManager11topic_stats
FN:460,_RNvMs3_NtNtCsfrV5S290jXb_12synap_server4core9partitionNtB5_16PartitionManager12create_topic
FN:546,_RNvMs3_NtNtCsfrV5S290jXb_12synap_server4core9partitionNtB5_16PartitionManager12delete_topic
FN:499,_RNvMs3_NtNtCsfrV5S290jXb_12synap_server4core9partitionNtB5_16PartitionManager17consume_partition
FN:452,_RNvMs3_NtNtCsfrV5S290jXb_12synap_server4core9partitionNtB5_16PartitionManager3new
FN:481,_RNvMs3_NtNtCsfrV5S290jXb_12synap_server4core9partitionNtB5_16PartitionManager7publish
FN:37,_RNvXNtNtCsfrV5S290jXb_12synap_server4core9partitionNtB2_15RetentionPolicyNtNtCsluXpZPV6FGj_4core7default7Default7default
FN:64,_RNvXs_NtNtCsfrV5S290jXb_12synap_server4core9partitionNtB4_15PartitionConfigNtNtCsluXpZPV6FGj_4core7default7Default7default
FNDA:0,_RNCNCNvMs3_NtNtCsitBd8PkZ0O7_12synap_server4core9partitionNtB9_16PartitionManager11consume_all00Bd_
FNDA:0,_RNCNCNvMs3_NtNtCsitBd8PkZ0O7_12synap_server4core9partitionNtB9_16PartitionManager11consume_all0s_0Bd_
FNDA:0,_RNCNvMs3_NtNtCsitBd8PkZ0O7_12synap_server4core9partitionNtB7_16PartitionManager11consume_all0Bb_
FNDA:0,_RNCNvMs3_NtNtCsitBd8PkZ0O7_12synap_server4core9partitionNtB7_16PartitionManager14get_all_events0Bb_
FNDA:0,_RNCNCNvMs3_NtNtCsitBd8PkZ0O7_12synap_server4core9partitionNtB9_16PartitionManager11topic_stats00Bd_
FNDA:4,_RNCNCNvMs3_NtNtCsitBd8PkZ0O7_12synap_server4core9partitionNtB9_16PartitionManager11topic_stats0s_0Bd_
FNDA:7,_RNCNCNvMs3_NtNtCsitBd8PkZ0O7_12synap_server4core9partitionNtB9_16PartitionManager12create_topic00Bd_
FNDA:0,_RNCNCNvMs3_NtNtCsitBd8PkZ0O7_12synap_server4core9partitionNtB9_16PartitionManager17consume_partition00Bd_
FNDA:0,_RNCNCNvMs3_NtNtCsitBd8PkZ0O7_12synap_server4core9partitionNtB9_16PartitionManager7publish00Bd_
FNDA:40,_RNCNvMs0_NtNtCsitBd8PkZ0O7_12synap_server4core9partitionNtB7_14PartitionEvent3new0Bb_
FNDA:30,_RNCNvMs1_NtNtCsitBd8PkZ0O7_12synap_server4core9partitionNtB7_9Partition15compact_by_time0Bb_
FNDA:12,_RNCNvMs1_NtNtCsitBd8PkZ0O7_12synap_server4core9partitionNtB7_9Partition4read0Bb_
FNDA:3,_RNCNvMs2_NtNtCsitBd8PkZ0O7_12synap_server4core9partitionNtB7_16PartitionedTopic11compact_all0Bb_
FNDA:0,_RNCNvMs2_NtNtCsitBd8PkZ0O7_12synap_server4core9partitionNtB7_16PartitionedTopic14get_all_events0Bb_
FNDA:95,_RNCNvMs2_NtNtCsitBd8PkZ0O7_12synap_server4core9partitionNtB7_16PartitionedTopic16select_partition0Bb_
FNDA:1,_RNCNvMs2_NtNtCsitBd8PkZ0O7_12synap_server4core9partitionNtB7_16PartitionedTopic17consume_partition0Bb_
FNDA:0,_RNCNvMs2_NtNtCsitBd8PkZ0O7_12synap_server4core9partitionNtB7_16PartitionedTopic17consume_partitions_0Bb_
FNDA:4,_RNCNvMs2_NtNtCsitBd8PkZ0O7_12synap_server4core9partitionNtB7_16PartitionedTopic5stats0Bb_
FNDA:3,_RNCNvMs3_NtNtCsitBd8PkZ0O7_12synap_server4core9partitionNtB7_16PartitionManager11compact_all0Bb_
FNDA:0,_RNCNvMs3_NtNtCsitBd8PkZ0O7_12synap_server4core9partitionNtB7_16PartitionManager11list_topics0Bb_
FNDA:4,_RNCNvMs3_NtNtCsitBd8PkZ0O7_12synap_server4core9partitionNtB7_16PartitionManager11topic_stats0Bb_
FNDA:7,_RNCNvMs3_NtNtCsitBd8PkZ0O7_12synap_server4core9partitionNtB7_16PartitionManager12create_topic0Bb_
FNDA:0,_RNCNvMs3_NtNtCsitBd8PkZ0O7_12synap_server4core9partitionNtB7_16PartitionManager12delete_topic0Bb_
FNDA:1,_RNCNvMs3_NtNtCsitBd8PkZ0O7_12synap_server4core9partitionNtB7_16PartitionManager17consume_partition0Bb_
FNDA:0,_RNCNvMs3_NtNtCsitBd8PkZ0O7_12synap_server4core9partitionNtB7_16PartitionManager21start_compaction_task0Bb_
FNDA:105,_RNCNvMs3_NtNtCsitBd8PkZ0O7_12synap_server4core9partitionNtB7_16PartitionManager7publish0Bb_
FNDA:105,_RNvMs0_NtNtCsitBd8PkZ0O7_12synap_server4core9partitionNtB5_14PartitionEvent3new
FNDA:105,_RNvMs1_NtNtCsitBd8PkZ0O7_12synap_server4core9partitionNtB5_9Partition13maybe_compact
FNDA:0,_RNvMs1_NtNtCsitBd8PkZ0O7_12synap_server4core9partitionNtB5_9Partition14get_all_events
FNDA:2,_RNvMs1_NtNtCsitBd8PkZ0O7_12synap_server4core9partitionNtB5_9Partition15compact_by_size
FNDA:2,_RNvMs1_NtNtCsitBd8PkZ0O7_12synap_server4core9partitionNtB5_9Partition15compact_by_time
FNDA:1,_RNvMs1_NtNtCsitBd8PkZ0O7_12synap_server4core9partitionNtB5_9Partition16compact_by_count
FNDA:18,_RNvMs1_NtNtCsitBd8PkZ0O7_12synap_server4core9partitionNtB5_9Partition3new
FNDA:1,_RNvMs1_NtNtCsitBd8PkZ0O7_12synap_server4core9partitionNtB5_9Partition4read
FNDA:4,_RNvMs1_NtNtCsitBd8PkZ0O7_12synap_server4core9partitionNtB5_9Partition5stats
FNDA:105,_RNvMs1_NtNtCsitBd8PkZ0O7_12synap_server4core9partitionNtB5_9Partition6append
FNDA:3,_RNvMs1_NtNtCsitBd8PkZ0O7_12synap_server4core9partitionNtB5_9Partition7compact
FNDA:3,_RNvMs2_NtNtCsitBd8PkZ0O7_12synap_server4core9partitionNtB5_16PartitionedTopic11compact_all
FNDA:0,_RNvMs2_NtNtCsitBd8PkZ0O7_12synap_server4core9partitionNtB5_16PartitionedTopic11consume_all
FNDA:0,_RNvMs2_NtNtCsitBd8PkZ0O7_12synap_server4core9partitionNtB5_16PartitionedTopic14get_all_events
FNDA:0,_RNvMs2_NtNtCsitBd8PkZ0O7_12synap_server4core9partitionNtB5_16PartitionedTopic15partition_count
FNDA:105,_RNvMs2_NtNtCsitBd8PkZ0O7_12synap_server4core9partitionNtB5_16PartitionedTopic16select_partition
FNDA:1,_RNvMs2_NtNtCsitBd8PkZ0O7_12synap_server4core9partitionNtB5_16PartitionedTopic17consume_partition
FNDA:7,_RNvMs2_NtNtCsitBd8PkZ0O7_12synap_server4core9partitionNtB5_16PartitionedTopic3new
FNDA:0,_RNvMs2_NtNtCsitBd8PkZ0O7_12synap_server4core9partitionNtB5_16PartitionedTopic4name
FNDA:4,_RNvMs2_NtNtCsitBd8PkZ0O7_12synap_server4core9partitionNtB5_16PartitionedTopic5stats
FNDA:105,_RNvMs2_NtNtCsitBd8PkZ0O7_12synap_server4core9partitionNtB5_16PartitionedTopic7publish
FNDA:3,_RNvMs3_NtNtCsitBd8PkZ0O7_12synap_server4core9partitionNtB5_16PartitionManager11compact_all
FNDA:0,_RNvMs3_NtNtCsitBd8PkZ0O7_12synap_server4core9partitionNtB5_16PartitionManager11consume_all
FNDA:0,_RNvMs3_NtNtCsitBd8PkZ0O7_12synap_server4core9partitionNtB5_16PartitionManager11list_topics
FNDA:4,_RNvMs3_NtNtCsitBd8PkZ0O7_12synap_server4core9partitionNtB5_16PartitionManager11topic_stats
FNDA:7,_RNvMs3_NtNtCsitBd8PkZ0O7_12synap_server4core9partitionNtB5_16PartitionManager12create_topic
FNDA:0,_RNvMs3_NtNtCsitBd8PkZ0O7_12synap_server4core9partitionNtB5_16PartitionManager12delete_topic
FNDA:0,_RNvMs3_NtNtCsitBd8PkZ0O7_12synap_server4core9partitionNtB5_16PartitionManager14get_all_events
FNDA:1,_RNvMs3_NtNtCsitBd8PkZ0O7_12synap_server4core9partitionNtB5_16PartitionManager17consume_partition
FNDA:0,_RNvMs3_NtNtCsitBd8PkZ0O7_12synap_server4core9partitionNtB5_16PartitionManager21start_compaction_task
FNDA:7,_RNvMs3_NtNtCsitBd8PkZ0O7_12synap_server4core9partitionNtB5_16PartitionManager3new
FNDA:105,_RNvMs3_NtNtCsitBd8PkZ0O7_12synap_server4core9partitionNtB5_16PartitionManager7publish
FNDA:7,_RNvXNtNtCsitBd8PkZ0O7_12synap_server4core9partitionNtB2_15RetentionPolicyNtNtCsluXpZPV6FGj_4core7default7Default7default
FNDA:7,_RNvXs_NtNtCsitBd8PkZ0O7_12synap_server4core9partitionNtB4_15PartitionConfigNtNtCsluXpZPV6FGj_4core7default7Default7default
FNDA:0,_RNCNCNvMs3_NtNtCsfrV5S290jXb_12synap_server4core9partitionNtB9_16PartitionManager11consume_all00Bd_
FNDA:2,_RNCNCNvMs3_NtNtCsfrV5S290jXb_12synap_server4core9partitionNtB9_16PartitionManager11consume_all0s_0Bd_
FNDA:0,_RNCNCNvMs3_NtNtCsfrV5S290jXb_12synap_server4core9partitionNtB9_16PartitionManager11topic_stats00Bd_
FNDA:8,_RNCNCNvMs3_NtNtCsfrV5S290jXb_12synap_server4core9partitionNtB9_16PartitionManager11topic_stats0s_0Bd_
FNDA:16,_RNCNCNvMs3_NtNtCsfrV5S290jXb_12synap_server4core9partitionNtB9_16PartitionManager12create_topic00Bd_
FNDA:0,_RNCNCNvMs3_NtNtCsfrV5S290jXb_12synap_server4core9partitionNtB9_16PartitionManager17consume_partition00Bd_
FNDA:0,_RNCNCNvMs3_NtNtCsfrV5S290jXb_12synap_server4core9partitionNtB9_16PartitionManager7publish00Bd_
FNDA:24,_RNCNvMs0_NtNtCsfrV5S290jXb_12synap_server4core9partitionNtB7_14PartitionEvent3new0Bb_
FNDA:42,_RNCNvMs1_NtNtCsfrV5S290jXb_12synap_server4core9partitionNtB7_9Partition15compact_by_time0Bb_
FNDA:20,_RNCNvMs1_NtNtCsfrV5S290jXb_12synap_server4core9partitionNtB7_9Partition4read0Bb_
FNDA:8,_RNCNvMs2_NtNtCsfrV5S290jXb_12synap_server4core9partitionNtB7_16PartitionedTopic11compact_all0Bb_
FNDA:82,_RNCNvMs2_NtNtCsfrV5S290jXb_12synap_server4core9partitionNtB7_16PartitionedTopic16select_partition0Bb_
FNDA:2,_RNCNvMs2_NtNtCsfrV5S290jXb_12synap_server4core9partitionNtB7_16PartitionedTopic17consume_partition0Bb_
FNDA:0,_RNCNvMs2_NtNtCsfrV5S290jXb_12synap_server4core9partitionNtB7_16PartitionedTopic17consume_partitions_0Bb_
FNDA:8,_RNCNvMs2_NtNtCsfrV5S290jXb_12synap_server4core9partitionNtB7_16PartitionedTopic5stats0Bb_
FNDA:8,_RNCNvMs3_NtNtCsfrV5S290jXb_12synap_server4core9partitionNtB7_16PartitionManager11compact_all0Bb_
FNDA:2,_RNCNvMs3_NtNtCsfrV5S290jXb_12synap_server4core9partitionNtB7_16PartitionManager11consume_all0Bb_
FNDA:2,_RNCNvMs3_NtNtCsfrV5S290jXb_12synap_server4core9partitionNtB7_16PartitionManager11list_topics0Bb_
FNDA:8,_RNCNvMs3_NtNtCsfrV5S290jXb_12synap_server4core9partitionNtB7_16PartitionManager11topic_stats0Bb_
FNDA:16,_RNCNvMs3_NtNtCsfrV5S290jXb_12synap_server4core9partitionNtB7_16PartitionManager12create_topic0Bb_
FNDA:0,_RNCNvMs3_NtNtCsfrV5S290jXb_12synap_server4core9partitionNtB7_16PartitionManager12delete_topic0Bb_
FNDA:2,_RNCNvMs3_NtNtCsfrV5S290jXb_12synap_server4core9partitionNtB7_16PartitionManager17consume_partition0Bb_
FNDA:106,_RNCNvMs3_NtNtCsfrV5S290jXb_12synap_server4core9partitionNtB7_16PartitionManager7publish0Bb_
FNDA:2,_RNCNvNtNtNtCsfrV5S290jXb_12synap_server4core9partition5testss_22test_retention_by_size0B9_
FNDA:2,_RNCNvNtNtNtCsfrV5S290jXb_12synap_server4core9partition5testss_22test_retention_by_time0B9_
FNDA:2,_RNCNvNtNtNtCsfrV5S290jXb_12synap_server4core9partition5testss_23test_partition_creation0B9_
FNDA:2,_RNCNvNtNtNtCsfrV5S290jXb_12synap_server4core9partition5testss_23test_retention_by_count0B9_
FNDA:2,_RNCNvNtNtNtCsfrV5S290jXb_12synap_server4core9partition5testss_27test_consume_all_partitions0B9_
FNDA:2,_RNCNvNtNtNtCsfrV5S290jXb_12synap_server4core9partition5testss_30test_combined_retention_policy0B9_
FNDA:2,_RNCNvNtNtNtCsfrV5S290jXb_12synap_server4core9partition5testss_30test_partition_publish_consume0B9_
FNDA:2,_RNCNvNtNtNtCsfrV5S290jXb_12synap_server4core9partition5testss_32test_partition_key_based_routing0B9_
FNDA:2,_RNvNtNtNtCsfrV5S290jXb_12synap_server4core9partition5testss_22test_retention_by_size
FNDA:2,_RNvNtNtNtCsfrV5S290jXb_12synap_server4core9partition5testss_22test_retention_by_time
FNDA:2,_RNvNtNtNtCsfrV5S290jXb_12synap_server4core9partition5testss_23test_partition_creation
FNDA:2,_RNvNtNtNtCsfrV5S290jXb_12synap_server4core9partition5testss_23test_retention_by_count
FNDA:2,_RNvNtNtNtCsfrV5S290jXb_12synap_server4core9partition5testss_27test_consume_all_partitions
FNDA:2,_RNvNtNtNtCsfrV5S290jXb_12synap_server4core9partition5testss_30test_combined_retention_policy
FNDA:2,_RNvNtNtNtCsfrV5S290jXb_12synap_server4core9partition5testss_30test_partition_publish_consume
FNDA:2,_RNvNtNtNtCsfrV5S290jXb_12synap_server4core9partition5testss_32test_partition_key_based_routing
FNDA:0,_RNCNvMs2_NtNtCsfrV5S290jXb_12synap_server4core9partitionNtB7_16PartitionedTopic14get_all_events0Bb_
FNDA:0,_RNCNvMs3_NtNtCsfrV5S290jXb_12synap_server4core9partitionNtB7_16PartitionManager14get_all_events0Bb_
FNDA:0,_RNCNvMs3_NtNtCsfrV5S290jXb_12synap_server4core9partitionNtB7_16PartitionManager21start_compaction_task0Bb_
FNDA:0,_RNvMs1_NtNtCsfrV5S290jXb_12synap_server4core9partitionNtB5_9Partition14get_all_events
FNDA:0,_RNvMs2_NtNtCsfrV5S290jXb_12synap_server4core9partitionNtB5_16PartitionedTopic14get_all_events
FNDA:0,_RNvMs2_NtNtCsfrV5S290jXb_12synap_server4core9partitionNtB5_16PartitionedTopic15partition_count
FNDA:0,_RNvMs2_NtNtCsfrV5S290jXb_12synap_server4core9partitionNtB5_16PartitionedTopic4name
FNDA:0,_RNvMs3_NtNtCsfrV5S290jXb_12synap_server4core9partitionNtB5_16PartitionManager14get_all_events
FNDA:0,_RNvMs3_NtNtCsfrV5S290jXb_12synap_server4core9partitionNtB5_16PartitionManager21start_compaction_task
FNDA:106,_RNvMs0_NtNtCsfrV5S290jXb_12synap_server4core9partitionNtB5_14PartitionEvent3new
FNDA:106,_RNvMs1_NtNtCsfrV5S290jXb_12synap_server4core9partitionNtB5_9Partition13maybe_compact
FNDA:4,_RNvMs1_NtNtCsfrV5S290jXb_12synap_server4core9partitionNtB5_9Partition15compact_by_size
FNDA:4,_RNvMs1_NtNtCsfrV5S290jXb_12synap_server4core9partitionNtB5_9Partition15compact_by_time
FNDA:4,_RNvMs1_NtNtCsfrV5S290jXb_12synap_server4core9partitionNtB5_9Partition16compact_by_count
FNDA:36,_RNvMs1_NtNtCsfrV5S290jXb_12synap_server4core9partitionNtB5_9Partition3new
FNDA:8,_RNvMs1_NtNtCsfrV5S290jXb_12synap_server4core9partitionNtB5_9Partition4read
FNDA:8,_RNvMs1_NtNtCsfrV5S290jXb_12synap_server4core9partitionNtB5_9Partition5stats
FNDA:106,_RNvMs1_NtNtCsfrV5S290jXb_12synap_server4core9partitionNtB5_9Partition6append
FNDA:8,_RNvMs1_NtNtCsfrV5S290jXb_12synap_server4core9partitionNtB5_9Partition7compact
FNDA:8,_RNvMs2_NtNtCsfrV5S290jXb_12synap_server4core9partitionNtB5_16PartitionedTopic11compact_all
FNDA:2,_RNvMs2_NtNtCsfrV5S290jXb_12synap_server4core9partitionNtB5_16PartitionedTopic11consume_all
FNDA:106,_RNvMs2_NtNtCsfrV5S290jXb_12synap_server4core9partitionNtB5_16PartitionedTopic16select_partition
FNDA:2,_RNvMs2_NtNtCsfrV5S290jXb_12synap_server4core9partitionNtB5_16PartitionedTopic17consume_partition
FNDA:16,_RNvMs2_NtNtCsfrV5S290jXb_12synap_server4core9partitionNtB5_16PartitionedTopic3new
FNDA:8,_RNvMs2_NtNtCsfrV5S290jXb_12synap_server4core9partitionNtB5_16PartitionedTopic5stats
FNDA:106,_RNvMs2_NtNtCsfrV5S290jXb_12synap_server4core9partitionNtB5_16PartitionedTopic7publish
FNDA:8,_RNvMs3_NtNtCsfrV5S290jXb_12synap_server4core9partitionNtB5_16PartitionManager11compact_all
FNDA:2,_RNvMs3_NtNtCsfrV5S290jXb_12synap_server4core9partitionNtB5_16PartitionManager11consume_all
FNDA:2,_RNvMs3_NtNtCsfrV5S290jXb_12synap_server4core9partitionNtB5_16PartitionManager11list_topics
FNDA:8,_RNvMs3_NtNtCsfrV5S290jXb_12synap_server4core9partitionNtB5_16PartitionManager11topic_stats
FNDA:16,_RNvMs3_NtNtCsfrV5S290jXb_12synap_server4core9partitionNtB5_16PartitionManager12create_topic
FNDA:0,_RNvMs3_NtNtCsfrV5S290jXb_12synap_server4core9partitionNtB5_16PartitionManager12delete_topic
FNDA:2,_RNvMs3_NtNtCsfrV5S290jXb_12synap_server4core9partitionNtB5_16PartitionManager17consume_partition
FNDA:16,_RNvMs3_NtNtCsfrV5S290jXb_12synap_server4core9partitionNtB5_16PartitionManager3new
FNDA:106,_RNvMs3_NtNtCsfrV5S290jXb_12synap_server4core9partitionNtB5_16PartitionManager7publish
FNDA:16,_RNvXNtNtCsfrV5S290jXb_12synap_server4core9partitionNtB2_15RetentionPolicyNtNtCsluXpZPV6FGj_4core7default7Default7default
FNDA:16,_RNvXs_NtNtCsfrV5S290jXb_12synap_server4core9partitionNtB4_15PartitionConfigNtNtCsluXpZPV6FGj_4core7default7Default7default
FNF:76
FNH:60
DA:37,23
DA:38,23
DA:39,23
DA:40,23
DA:41,23
DA:64,23
DA:65,23
DA:66,23
DA:67,23
DA:68,23
DA:69,23
DA:70,23
DA:71,23
DA:72,23
DA:73,23
DA:74,23
DA:104,211
DA:105,211
DA:106,211
DA:107,211
DA:108,211
DA:110,211
DA:111,211
DA:112,211
DA:113,211
DA:114,211
DA:115,211
DA:116,211
DA:117,211
DA:118,211
DA:119,211
DA:120,211
DA:121,211
DA:122,211
DA:123,211
DA:124,211
DA:125,211
DA:147,54
DA:148,54
DA:149,54
DA:150,54
DA:151,54
DA:152,54
DA:153,54
DA:154,54
DA:155,54
DA:156,54
DA:157,54
DA:158,54
DA:161,211
DA:162,211
DA:163,211
DA:165,211
DA:166,211
DA:167,211
DA:170,211
DA:172,211
DA:173,211
DA:176,9
DA:177,9
DA:178,9
DA:179,32
DA:180,9
DA:181,9
DA:182,9
DA:183,9
DA:186,12
DA:188,12
DA:189,12
DA:190,12
DA:191,12
DA:192,12
DA:193,12
DA:194,12
DA:196,0
DA:198,12
DA:200,12
DA:203,11
DA:204,11
DA:205,11
DA:208,11
DA:210,11
DA:211,3
DA:212,3
DA:213,3
DA:214,3
DA:215,3
DA:216,3
DA:217,3
DA:218,3
DA:219,3
DA:220,3
DA:221,3
DA:222,3
DA:223,2
DA:224,2
DA:225,2
DA:227,3
DA:228,3
DA:229,3
DA:231,3
DA:232,3
DA:233,3
DA:234,3
DA:235,3
DA:236,3
DA:237,3
DA:238,3
DA:239,3
DA:240,3
DA:241,3
DA:242,3
DA:243,3
DA:244,3
DA:246,0
DA:247,0
DA:248,0
DA:251,11
DA:253,11
DA:254,11
DA:255,11
DA:256,11
DA:257,11
DA:260,211
DA:261,211
DA:262,0
DA:263,211
DA:264,211
DA:267,6
DA:268,6
DA:269,6
DA:271,72
DA:272,72
DA:273,72
DA:274,12
DA:275,60
DA:276,72
DA:277,72
DA:279,6
DA:281,6
DA:282,3
DA:283,0
DA:284,3
DA:285,3
DA:286,6
DA:289,6
DA:290,47
DA:291,41
DA:292,41
DA:293,41
DA:294,41
DA:296,6
DA:299,5
DA:300,40
DA:301,35
DA:302,35
DA:303,35
DA:304,35
DA:306,5
DA:309,0
DA:310,0
DA:311,0
DA:342,23
DA:343,23
DA:344,54
DA:345,54
DA:346,54
DA:348,23
DA:349,23
DA:350,23
DA:351,23
DA:352,23
DA:353,23
DA:356,211
DA:357,211
DA:358,64
DA:360,64
DA:361,64
DA:365,147
DA:366,147
DA:367,147
DA:368,177
DA:369,147
DA:370,147
DA:373,211
DA:376,211
DA:377,211
DA:378,211
DA:379,211
DA:380,211
DA:383,3
DA:384,3
DA:385,3
DA:386,3
DA:387,3
DA:388,3
DA:389,3
DA:390,3
DA:391,3
DA:392,3
DA:393,3
DA:396,2
DA:397,2
DA:399,8
DA:400,6
DA:401,6
DA:402,6
DA:405,2
DA:406,2
DA:407,2
DA:408,2
DA:411,12
DA:412,12
DA:413,12
DA:416,11
DA:417,11
DA:418,11
DA:419,11
DA:420,11
DA:421,11
DA:422,11
DA:425,0
DA:426,0
DA:427,0
DA:430,0
DA:431,0
DA:432,0
DA:435,0
DA:436,0
DA:437,0
DA:438,0
DA:439,0
DA:440,0
DA:441,0
DA:452,23
DA:453,23
DA:454,23
DA:455,23
DA:456,23
DA:457,23
DA:460,23
DA:461,23
DA:462,23
DA:463,23
DA:464,23
DA:465,23
DA:467,23
DA:468,0
DA:469,23
DA:471,23
DA:472,23
DA:473,23
DA:474,23
DA:475,23
DA:477,23
DA:478,23
DA:481,211
DA:482,211
DA:483,211
DA:484,211
DA:485,211
DA:486,211
DA:487,211
DA:488,211
DA:490,211
DA:491,211
DA:492,211
DA:494,211
DA:495,211
DA:496,211
DA:499,3
DA:500,3
DA:501,3
DA:502,3
DA:503,3
DA:504,3
DA:505,3
DA:506,3
DA:508,3
DA:509,3
DA:510,3
DA:511,3
DA:512,3
DA:515,2
DA:516,2
DA:517,2
DA:518,2
DA:519,2
DA:520,2
DA:521,2
DA:523,2
DA:524,2
DA:525,2
DA:526,2
DA:527,2
DA:530,12
DA:531,12
DA:533,12
DA:534,12
DA:535,12
DA:536,12
DA:537,12
DA:540,2
DA:541,2
DA:542,2
DA:543,2
DA:546,0
DA:547,0
DA:549,0
DA:550,0
DA:552,0
DA:554,0
DA:557,11
DA:558,11
DA:559,11
DA:561,11
DA:562,11
DA:563,11
DA:565,11
DA:566,11
DA:569,0
DA:570,0
DA:571,0
DA:574,0
DA:575,0
DA:578,0
DA:581,0
DA:582,0
DA:583,0
DA:585,0
DA:586,0
DA:587,0
DA:589,0
DA:590,0
DA:598,2
DA:599,2
DA:600,2
DA:601,2
DA:602,2
DA:604,2
DA:605,2
DA:607,2
DA:608,2
DA:609,2
DA:610,2
DA:613,2
DA:614,2
DA:615,2
DA:618,2
DA:619,2
DA:620,2
DA:621,2
DA:622,2
DA:623,2
DA:624,2
DA:625,2
DA:626,2
DA:628,2
DA:631,2
DA:632,2
DA:633,2
DA:634,2
DA:636,2
DA:637,2
DA:638,2
DA:641,2
DA:642,2
DA:643,2
DA:644,2
DA:645,2
DA:647,2
DA:648,2
DA:651,2
DA:652,2
DA:653,2
DA:654,2
DA:655,2
DA:656,2
DA:657,2
DA:658,2
DA:659,2
DA:661,2
DA:662,2
DA:663,2
DA:664,2
DA:665,2
DA:666,2
DA:667,2
DA:668,2
DA:669,2
DA:671,2
DA:672,2
DA:675,2
DA:676,2
DA:677,2
DA:678,2
DA:679,2
DA:680,2
DA:682,2
DA:683,2
DA:686,2
DA:687,2
DA:688,2
DA:689,2
DA:691,2
DA:694,2
DA:697,2
DA:698,2
DA:699,2
DA:702,2
DA:703,2
DA:704,2
DA:705,2
DA:706,2
DA:707,2
DA:709,2
DA:710,2
DA:713,22
DA:714,20
DA:715,20
DA:716,20
DA:717,20
DA:721,2
DA:723,2
DA:724,2
DA:725,2
DA:728,2
DA:729,2
DA:730,2
DA:731,2
DA:732,2
DA:733,2
DA:735,2
DA:736,2
DA:739,22
DA:740,20
DA:741,20
DA:742,20
DA:743,20
DA:747,2
DA:749,2
DA:750,2
DA:751,2
DA:754,2
DA:755,2
DA:756,2
DA:757,2
DA:758,2
DA:759,2
DA:760,2
DA:761,2
DA:762,2
DA:763,2
DA:765,2
DA:766,2
DA:769,42
DA:770,40
DA:771,40
DA:772,40
DA:773,40
DA:776,2
DA:778,2
DA:780,2
DA:781,2
DA:784,2
DA:785,2
DA:786,2
DA:787,2
DA:788,2
DA:790,2
DA:791,2
DA:794,20
DA:795,18
DA:796,18
DA:797,18
DA:798,18
DA:799,18
DA:800,18
DA:801,18
DA:802,18
DA:803,18
DA:807,2
DA:808,2
DA:809,2
BRF:0
BRH:0
LF:526
LH:474
end_of_record
SF:/mnt/f/Node/hivellm/synap/synap-server/src/core/pubsub.rs
FN:335,_RNCNvMNtNtCsitBd8PkZ0O7_12synap_server4core6pubsubNtB4_12PubSubRouter11list_topics0B8_
FN:220,_RNCNvMNtNtCsitBd8PkZ0O7_12synap_server4core6pubsubNtB4_12PubSubRouter11unsubscribe0B8_
FN:249,_RNCNvMNtNtCsitBd8PkZ0O7_12synap_server4core6pubsubNtB4_12PubSubRouter11unsubscribes_0B8_
FN:416,_RNCNvMNtNtCsitBd8PkZ0O7_12synap_server4core6pubsubNtB4_12PubSubRouter12update_stats0B8_
FN:417,_RNCNvMNtNtCsitBd8PkZ0O7_12synap_server4core6pubsubNtB4_12PubSubRouter12update_statss_0B8_
FN:342,_RNCNvMNtNtCsitBd8PkZ0O7_12synap_server4core6pubsubNtB4_12PubSubRouter14get_topic_info0B8_
FN:360,_RNCNvMNtNtCsitBd8PkZ0O7_12synap_server4core6pubsubNtB4_12PubSubRouter15compile_pattern0B8_
FN:370,_RNCNvMNtNtCsitBd8PkZ0O7_12synap_server4core6pubsubNtB4_12PubSubRouter15compile_patterns_0B8_
FN:392,_RNCNvMNtNtCsitBd8PkZ0O7_12synap_server4core6pubsubNtB4_12PubSubRouter22find_exact_subscribers0B8_
FN:403,_RNCNvMNtNtCsitBd8PkZ0O7_12synap_server4core6pubsubNtB4_12PubSubRouter25find_wildcard_subscribers0B8_
FN:404,_RNCNvMNtNtCsitBd8PkZ0O7_12synap_server4core6pubsubNtB4_12PubSubRouter25find_wildcard_subscriberss_0B8_
FN:333,_RNvMNtNtCsitBd8PkZ0O7_12synap_server4core6pubsubNtB2_12PubSubRouter11list_topics
FN:206,_RNvMNtNtCsitBd8PkZ0O7_12synap_server4core6pubsubNtB2_12PubSubRouter11unsubscribe
FN:409,_RNvMNtNtCsitBd8PkZ0O7_12synap_server4core6pubsubNtB2_12PubSubRouter12update_stats
FN:339,_RNvMNtNtCsitBd8PkZ0O7_12synap_server4core6pubsubNtB2_12PubSubRouter14get_topic_info
FN:357,_RNvMNtNtCsitBd8PkZ0O7_12synap_server4core6pubsubNtB2_12PubSubRouter15compile_pattern
FN:435,_RNvMNtNtCsitBd8PkZ0O7_12synap_server4core6pubsubNtB2_12PubSubRouter15deliver_message
FN:427,_RNvMNtNtCsitBd8PkZ0O7_12synap_server4core6pubsubNtB2_12PubSubRouter17current_timestamp
FN:352,_RNvMNtNtCsitBd8PkZ0O7_12synap_server4core6pubsubNtB2_12PubSubRouter19is_wildcard_pattern
FN:124,_RNvMNtNtCsitBd8PkZ0O7_12synap_server4core6pubsubNtB2_12PubSubRouter19register_connection
FN:134,_RNvMNtNtCsitBd8PkZ0O7_12synap_server4core6pubsubNtB2_12PubSubRouter21unregister_connection
FN:388,_RNvMNtNtCsitBd8PkZ0O7_12synap_server4core6pubsubNtB2_12PubSubRouter22find_exact_subscribers
FN:397,_RNvMNtNtCsitBd8PkZ0O7_12synap_server4core6pubsubNtB2_12PubSubRouter25find_wildcard_subscribers
FN:108,_RNvMNtNtCsitBd8PkZ0O7_12synap_server4core6pubsubNtB2_12PubSubRouter3new
FN:264,_RNvMNtNtCsitBd8PkZ0O7_12synap_server4core6pubsubNtB2_12PubSubRouter7publish
FN:328,_RNvMNtNtCsitBd8PkZ0O7_12synap_server4core6pubsubNtB2_12PubSubRouter9get_stats
FN:144,_RNvMNtNtCsitBd8PkZ0O7_12synap_server4core6pubsubNtB2_12PubSubRouter9subscribe
FN:456,_RNvMs_NtNtCsitBd8PkZ0O7_12synap_server4core6pubsubNtB4_15WildcardMatcher7matches
FN:497,_RNvXs0_NtNtCsitBd8PkZ0O7_12synap_server4core6pubsubNtB5_12PubSubRouterNtNtCsluXpZPV6FGj_4core7default7Default7default
FN:333,_RNvMNtNtCsfrV5S290jXb_12synap_server4core6pubsubNtB2_12PubSubRouter11list_topics
FN:206,_RNvMNtNtCsfrV5S290jXb_12synap_server4core6pubsubNtB2_12PubSubRouter11unsubscribe
FN:409,_RNvMNtNtCsfrV5S290jXb_12synap_server4core6pubsubNtB2_12PubSubRouter12update_stats
FN:339,_RNvMNtNtCsfrV5S290jXb_12synap_server4core6pubsubNtB2_12PubSubRouter14get_topic_info
FN:357,_RNvMNtNtCsfrV5S290jXb_12synap_server4core6pubsubNtB2_12PubSubRouter15compile_pattern
FN:435,_RNvMNtNtCsfrV5S290jXb_12synap_server4core6pubsubNtB2_12PubSubRouter15deliver_message
FN:427,_RNvMNtNtCsfrV5S290jXb_12synap_server4core6pubsubNtB2_12PubSubRouter17current_timestamp
FN:352,_RNvMNtNtCsfrV5S290jXb_12synap_server4core6pubsubNtB2_12PubSubRouter19is_wildcard_pattern
FN:124,_RNvMNtNtCsfrV5S290jXb_12synap_server4core6pubsubNtB2_12PubSubRouter19register_connection
FN:134,_RNvMNtNtCsfrV5S290jXb_12synap_server4core6pubsubNtB2_12PubSubRouter21unregister_connection
FN:388,_RNvMNtNtCsfrV5S290jXb_12synap_server4core6pubsubNtB2_12PubSubRouter22find_exact_subscribers
FN:397,_RNvMNtNtCsfrV5S290jXb_12synap_server4core6pubsubNtB2_12PubSubRouter25find_wildcard_subscribers
FN:108,_RNvMNtNtCsfrV5S290jXb_12synap_server4core6pubsubNtB2_12PubSubRouter3new
FN:264,_RNvMNtNtCsfrV5S290jXb_12synap_server4core6pubsubNtB2_12PubSubRouter7publish
FN:328,_RNvMNtNtCsfrV5S290jXb_12synap_server4core6pubsubNtB2_12PubSubRouter9get_stats
FN:144,_RNvMNtNtCsfrV5S290jXb_12synap_server4core6pubsubNtB2_12PubSubRouter9subscribe
FN:456,_RNvMs_NtNtCsfrV5S290jXb_12synap_server4core6pubsubNtB4_15WildcardMatcher7matches
FN:497,_RNvXs0_NtNtCsfrV5S290jXb_12synap_server4core6pubsubNtB5_12PubSubRouterNtNtCsluXpZPV6FGj_4core7default7Default7default
FN:594,_RNvNtNtNtCsfrV5S290jXb_12synap_server4core6pubsub5testss_16test_unsubscribe
FN:621,_RNvNtNtNtCsfrV5S290jXb_12synap_server4core6pubsub5testss_21test_wildcard_matcher
FN:507,_RNvNtNtNtCsfrV5S290jXb_12synap_server4core6pubsub5testss_23test_exact_subscription
FN:579,_RNvNtNtNtCsfrV5S290jXb_12synap_server4core6pubsub5testss_24test_pattern_compilation
FN:549,_RNvNtNtNtCsfrV5S290jXb_12synap_server4core6pubsub5testss_25test_wildcard_multi_level
FN:519,_RNvNtNtNtCsfrV5S290jXb_12synap_server4core6pubsub5testss_26test_wildcard_single_level
FN:335,_RNCNvMNtNtCsfrV5S290jXb_12synap_server4core6pubsubNtB4_12PubSubRouter11list_topics0B8_
FN:220,_RNCNvMNtNtCsfrV5S290jXb_12synap_server4core6pubsubNtB4_12PubSubRouter11unsubscribe0B8_
FN:249,_RNCNvMNtNtCsfrV5S290jXb_12synap_server4core6pubsubNtB4_12PubSubRouter11unsubscribes_0B8_
FN:416,_RNCNvMNtNtCsfrV5S290jXb_12synap_server4core6pubsubNtB4_12PubSubRouter12update_stats0B8_
FN:417,_RNCNvMNtNtCsfrV5S290jXb_12synap_server4core6pubsubNtB4_12PubSubRouter12update_statss_0B8_
FN:342,_RNCNvMNtNtCsfrV5S290jXb_12synap_server4core6pubsubNtB4_12PubSubRouter14get_topic_info0B8_
FN:360,_RNCNvMNtNtCsfrV5S290jXb_12synap_server4core6pubsubNtB4_12PubSubRouter15compile_pattern0B8_
FN:370,_RNCNvMNtNtCsfrV5S290jXb_12synap_server4core6pubsubNtB4_12PubSubRouter15compile_patterns_0B8_
FN:392,_RNCNvMNtNtCsfrV5S290jXb_12synap_server4core6pubsubNtB4_12PubSubRouter22find_exact_subscribers0B8_
FN:403,_RNCNvMNtNtCsfrV5S290jXb_12synap_server4core6pubsubNtB4_12PubSubRouter25find_wildcard_subscribers0B8_
FN:404,_RNCNvMNtNtCsfrV5S290jXb_12synap_server4core6pubsubNtB4_12PubSubRouter25find_wildcard_subscriberss_0B8_
FNDA:6,_RNCNvMNtNtCsitBd8PkZ0O7_12synap_server4core6pubsubNtB4_12PubSubRouter11list_topics0B8_
FNDA:0,_RNCNvMNtNtCsitBd8PkZ0O7_12synap_server4core6pubsubNtB4_12PubSubRouter11unsubscribe0B8_
FNDA:0,_RNCNvMNtNtCsitBd8PkZ0O7_12synap_server4core6pubsubNtB4_12PubSubRouter11unsubscribes_0B8_
FNDA:35,_RNCNvMNtNtCsitBd8PkZ0O7_12synap_server4core6pubsubNtB4_12PubSubRouter12update_stats0B8_
FNDA:35,_RNCNvMNtNtCsitBd8PkZ0O7_12synap_server4core6pubsubNtB4_12PubSubRouter12update_statss_0B8_
FNDA:2,_RNCNvMNtNtCsitBd8PkZ0O7_12synap_server4core6pubsubNtB4_12PubSubRouter14get_topic_info0B8_
FNDA:31,_RNCNvMNtNtCsitBd8PkZ0O7_12synap_server4core6pubsubNtB4_12PubSubRouter15compile_pattern0B8_
FNDA:31,_RNCNvMNtNtCsitBd8PkZ0O7_12synap_server4core6pubsubNtB4_12PubSubRouter15compile_patterns_0B8_
FNDA:15,_RNCNvMNtNtCsitBd8PkZ0O7_12synap_server4core6pubsubNtB4_12PubSubRouter22find_exact_subscribers0B8_
FNDA:25,_RNCNvMNtNtCsitBd8PkZ0O7_12synap_server4core6pubsubNtB4_12PubSubRouter25find_wildcard_subscribers0B8_
FNDA:18,_RNCNvMNtNtCsitBd8PkZ0O7_12synap_server4core6pubsubNtB4_12PubSubRouter25find_wildcard_subscriberss_0B8_
FNDA:2,_RNvMNtNtCsitBd8PkZ0O7_12synap_server4core6pubsubNtB2_12PubSubRouter11list_topics
FNDA:2,_RNvMNtNtCsitBd8PkZ0O7_12synap_server4core6pubsubNtB2_12PubSubRouter11unsubscribe
FNDA:34,_RNvMNtNtCsitBd8PkZ0O7_12synap_server4core6pubsubNtB2_12PubSubRouter12update_stats
FNDA:3,_RNvMNtNtCsitBd8PkZ0O7_12synap_server4core6pubsubNtB2_12PubSubRouter14get_topic_info
FNDA:13,_RNvMNtNtCsitBd8PkZ0O7_12synap_server4core6pubsubNtB2_12PubSubRouter15compile_pattern
FNDA:37,_RNvMNtNtCsitBd8PkZ0O7_12synap_server4core6pubsubNtB2_12PubSubRouter15deliver_message
FNDA:62,_RNvMNtNtCsitBd8PkZ0O7_12synap_server4core6pubsubNtB2_12PubSubRouter17current_timestamp
FNDA:46,_RNvMNtNtCsitBd8PkZ0O7_12synap_server4core6pubsubNtB2_12PubSubRouter19is_wildcard_pattern
FNDA:7,_RNvMNtNtCsitBd8PkZ0O7_12synap_server4core6pubsubNtB2_12PubSubRouter19register_connection
FNDA:0,_RNvMNtNtCsitBd8PkZ0O7_12synap_server4core6pubsubNtB2_12PubSubRouter21unregister_connection
FNDA:37,_RNvMNtNtCsitBd8PkZ0O7_12synap_server4core6pubsubNtB2_12PubSubRouter22find_exact_subscribers
FNDA:37,_RNvMNtNtCsitBd8PkZ0O7_12synap_server4core6pubsubNtB2_12PubSubRouter25find_wildcard_subscribers
FNDA:29,_RNvMNtNtCsitBd8PkZ0O7_12synap_server4core6pubsubNtB2_12PubSubRouter3new
FNDA:37,_RNvMNtNtCsitBd8PkZ0O7_12synap_server4core6pubsubNtB2_12PubSubRouter7publish
FNDA:2,_RNvMNtNtCsitBd8PkZ0O7_12synap_server4core6pubsubNtB2_12PubSubRouter9get_stats
FNDA:32,_RNvMNtNtCsitBd8PkZ0O7_12synap_server4core6pubsubNtB2_12PubSubRouter9subscribe
FNDA:25,_RNvMs_NtNtCsitBd8PkZ0O7_12synap_server4core6pubsubNtB4_15WildcardMatcher7matches
FNDA:0,_RNvXs0_NtNtCsitBd8PkZ0O7_12synap_server4core6pubsubNtB5_12PubSubRouterNtNtCsluXpZPV6FGj_4core7default7Default7default
FNDA:0,_RNvMNtNtCsfrV5S290jXb_12synap_server4core6pubsubNtB2_12PubSubRouter11list_topics
FNDA:2,_RNvMNtNtCsfrV5S290jXb_12synap_server4core6pubsubNtB2_12PubSubRouter11unsubscribe
FNDA:10,_RNvMNtNtCsfrV5S290jXb_12synap_server4core6pubsubNtB2_12PubSubRouter12update_stats
FNDA:0,_RNvMNtNtCsfrV5S290jXb_12synap_server4core6pubsubNtB2_12PubSubRouter14get_topic_info
FNDA:16,_RNvMNtNtCsfrV5S290jXb_12synap_server4core6pubsubNtB2_12PubSubRouter15compile_pattern
FNDA:16,_RNvMNtNtCsfrV5S290jXb_12synap_server4core6pubsubNtB2_12PubSubRouter15deliver_message
FNDA:22,_RNvMNtNtCsfrV5S290jXb_12synap_server4core6pubsubNtB2_12PubSubRouter17current_timestamp
FNDA:12,_RNvMNtNtCsfrV5S290jXb_12synap_server4core6pubsubNtB2_12PubSubRouter19is_wildcard_pattern
FNDA:0,_RNvMNtNtCsfrV5S290jXb_12synap_server4core6pubsubNtB2_12PubSubRouter19register_connection
FNDA:0,_RNvMNtNtCsfrV5S290jXb_12synap_server4core6pubsubNtB2_12PubSubRouter21unregister_connection
FNDA:16,_RNvMNtNtCsfrV5S290jXb_12synap_server4core6pubsubNtB2_12PubSubRouter22find_exact_subscribers
FNDA:16,_RNvMNtNtCsfrV5S290jXb_12synap_server4core6pubsubNtB2_12PubSubRouter25find_wildcard_subscribers
FNDA:8,_RNvMNtNtCsfrV5S290jXb_12synap_server4core6pubsubNtB2_12PubSubRouter3new
FNDA:16,_RNvMNtNtCsfrV5S290jXb_12synap_server4core6pubsubNtB2_12PubSubRouter7publish
FNDA:2,_RNvMNtNtCsfrV5S290jXb_12synap_server4core6pubsubNtB2_12PubSubRouter9get_stats
FNDA:8,_RNvMNtNtCsfrV5S290jXb_12synap_server4core6pubsubNtB2_12PubSubRouter9subscribe
FNDA:28,_RNvMs_NtNtCsfrV5S290jXb_12synap_server4core6pubsubNtB4_15WildcardMatcher7matches
FNDA:0,_RNvXs0_NtNtCsfrV5S290jXb_12synap_server4core6pubsubNtB5_12PubSubRouterNtNtCsluXpZPV6FGj_4core7default7Default7default
FNDA:2,_RNvNtNtNtCsfrV5S290jXb_12synap_server4core6pubsub5testss_16test_unsubscribe
FNDA:2,_RNvNtNtNtCsfrV5S290jXb_12synap_server4core6pubsub5testss_21test_wildcard_matcher
FNDA:2,_RNvNtNtNtCsfrV5S290jXb_12synap_server4core6pubsub5testss_23test_exact_subscription
FNDA:2,_RNvNtNtNtCsfrV5S290jXb_12synap_server4core6pubsub5testss_24test_pattern_compilation
FNDA:2,_RNvNtNtNtCsfrV5S290jXb_12synap_server4core6pubsub5testss_25test_wildcard_multi_level
FNDA:2,_RNvNtNtNtCsfrV5S290jXb_12synap_server4core6pubsub5testss_26test_wildcard_single_level
FNDA:0,_RNCNvMNtNtCsfrV5S290jXb_12synap_server4core6pubsubNtB4_12PubSubRouter11list_topics0B8_
FNDA:0,_RNCNvMNtNtCsfrV5S290jXb_12synap_server4core6pubsubNtB4_12PubSubRouter11unsubscribe0B8_
FNDA:0,_RNCNvMNtNtCsfrV5S290jXb_12synap_server4core6pubsubNtB4_12PubSubRouter11unsubscribes_0B8_
FNDA:10,_RNCNvMNtNtCsfrV5S290jXb_12synap_server4core6pubsubNtB4_12PubSubRouter12update_stats0B8_
FNDA:10,_RNCNvMNtNtCsfrV5S290jXb_12synap_server4core6pubsubNtB4_12PubSubRouter12update_statss_0B8_
FNDA:0,_RNCNvMNtNtCsfrV5S290jXb_12synap_server4core6pubsubNtB4_12PubSubRouter14get_topic_info0B8_
FNDA:38,_RNCNvMNtNtCsfrV5S290jXb_12synap_server4core6pubsubNtB4_12PubSubRouter15compile_pattern0B8_
FNDA:38,_RNCNvMNtNtCsfrV5S290jXb_12synap_server4core6pubsubNtB4_12PubSubRouter15compile_patterns_0B8_
FNDA:4,_RNCNvMNtNtCsfrV5S290jXb_12synap_server4core6pubsubNtB4_12PubSubRouter22find_exact_subscribers0B8_
FNDA:12,_RNCNvMNtNtCsfrV5S290jXb_12synap_server4core6pubsubNtB4_12PubSubRouter25find_wildcard_subscribers0B8_
FNDA:8,_RNCNvMNtNtCsfrV5S290jXb_12synap_server4core6pubsubNtB4_12PubSubRouter25find_wildcard_subscriberss_0B8_
FNF:35
FNH:31
DA:108,37
DA:109,37
DA:110,37
DA:111,37
DA:112,37
DA:113,37
DA:114,37
DA:115,37
DA:116,37
DA:117,37
DA:118,37
DA:119,37
DA:120,37
DA:121,37
DA:124,7
DA:125,7
DA:126,7
DA:127,7
DA:128,0
DA:131,7
DA:134,0
DA:135,0
DA:136,0
DA:137,0
DA:138,0
DA:141,0
DA:144,40
DA:145,40
DA:146,40
DA:148,94
DA:149,54
DA:151,17
DA:152,17
DA:154,17
DA:155,17
DA:156,17
DA:157,17
DA:158,17
DA:160,17
DA:161,17
DA:162,0
DA:167,37
DA:169,37
DA:170,6
DA:171,31
DA:172,31
DA:173,31
DA:174,31
DA:175,31
DA:176,31
DA:177,31
DA:178,31
DA:179,31
DA:180,31
DA:181,31
DA:182,31
DA:183,31
DA:184,31
DA:185,31
DA:187,37
DA:188,37
DA:189,0
DA:196,40
DA:198,40
DA:199,40
DA:200,40
DA:201,40
DA:202,40
DA:203,40
DA:206,4
DA:207,4
DA:208,4
DA:209,4
DA:210,4
DA:211,4
DA:213,4
DA:215,8
DA:216,4
DA:218,0
DA:219,0
DA:220,0
DA:221,0
DA:222,0
DA:223,0
DA:226,4
DA:227,4
DA:228,4
DA:229,4
DA:230,4
DA:231,0
DA:236,0
DA:237,0
DA:238,0
DA:239,0
DA:240,0
DA:241,0
DA:242,0
DA:243,0
DA:247,0
DA:248,0
DA:249,0
DA:250,0
DA:254,4
DA:256,4
DA:257,0
DA:260,4
DA:261,4
DA:264,53
DA:265,53
DA:266,53
DA:267,53
DA:268,53
DA:269,53
DA:271,53
DA:272,0
DA:273,0
DA:274,0
DA:275,53
DA:278,53
DA:279,53
DA:280,53
DA:281,53
DA:282,53
DA:283,53
DA:284,53
DA:287,53
DA:288,53
DA:290,53
DA:294,53
DA:295,53
DA:296,19
DA:297,34
DA:301,53
DA:302,53
DA:303,53
DA:304,53
DA:305,53
DA:307,53
DA:308,0
DA:313,53
DA:315,53
DA:316,0
DA:320,53
DA:321,53
DA:322,53
DA:323,53
DA:324,53
DA:325,53
DA:328,4
DA:329,4
DA:330,4
DA:333,2
DA:334,2
DA:335,6
DA:336,2
DA:339,3
DA:340,3
DA:341,3
DA:342,2
DA:343,2
DA:344,2
DA:345,2
DA:346,2
DA:347,3
DA:352,58
DA:353,58
DA:354,58
DA:357,29
DA:358,29
DA:359,29
DA:360,69
DA:361,69
DA:362,52
DA:363,35
DA:364,69
DA:365,29
DA:368,29
DA:369,29
DA:370,69
DA:371,29
DA:372,29
DA:373,2
DA:374,2
DA:375,2
DA:376,27
DA:378,27
DA:379,4
DA:380,4
DA:381,4
DA:382,23
DA:384,23
DA:385,29
DA:388,53
DA:389,53
DA:390,53
DA:391,53
DA:392,53
DA:393,53
DA:394,53
DA:397,53
DA:398,53
DA:399,53
DA:401,53
DA:402,53
DA:403,53
DA:404,53
DA:405,53
DA:406,53
DA:409,44
DA:410,44
DA:411,44
DA:413,44
DA:414,44
DA:415,44
DA:416,45
DA:417,45
DA:418,44
DA:420,44
DA:421,44
DA:422,44
DA:423,44
DA:424,44
DA:427,84
DA:428,84
DA:429,84
DA:430,84
DA:431,84
DA:432,84
DA:435,53
DA:436,53
DA:437,53
DA:439,98
DA:440,45
DA:442,7
DA:443,7
DA:444,7
DA:445,0
DA:447,38
DA:450,53
DA:451,53
DA:456,53
DA:457,53
DA:459,130
DA:460,130
DA:461,84
DA:462,84
DA:463,8
DA:464,76
DA:465,76
DA:468,22
DA:469,2
DA:470,20
DA:471,20
DA:476,24
DA:477,24
DA:483,19
DA:484,53
DA:497,0
DA:498,0
DA:499,0
DA:507,2
DA:508,2
DA:510,2
DA:511,2
DA:513,2
DA:514,2
DA:515,2
DA:516,2
DA:519,2
DA:520,2
DA:522,2
DA:523,2
DA:524,2
DA:525,2
DA:528,2
DA:529,2
DA:530,2
DA:531,2
DA:532,2
DA:534,2
DA:535,2
DA:538,2
DA:539,2
DA:540,2
DA:541,2
DA:542,2
DA:544,2
DA:545,2
DA:546,2
DA:549,2
DA:550,2
DA:552,2
DA:553,2
DA:556,2
DA:558,2
DA:559,2
DA:562,8
DA:563,6
DA:564,6
DA:566,0
DA:572,2
DA:573,2
DA:574,2
DA:575,2
DA:576,2
DA:579,2
DA:581,2
DA:582,2
DA:583,2
DA:586,2
DA:587,2
DA:590,2
DA:591,2
DA:594,2
DA:595,2
DA:597,2
DA:598,2
DA:599,2
DA:600,2
DA:603,2
DA:604,2
DA:605,2
DA:606,2
DA:609,2
DA:610,2
DA:611,2
DA:612,2
DA:614,2
DA:615,2
DA:616,2
DA:617,2
DA:618,2
DA:621,2
DA:623,2
DA:624,2
DA:625,2
DA:626,2
DA:627,2
DA:628,2
DA:630,2
DA:631,2
DA:632,2
DA:633,2
DA:636,2
DA:637,2
DA:638,2
DA:639,2
DA:640,2
DA:641,2
DA:642,2
DA:644,2
DA:645,2
DA:646,2
DA:647,2
DA:648,2
BRF:0
BRH:0
LF:365
LH:324
end_of_record
SF:/mnt/f/Node/hivellm/synap/synap-server/src/core/queue.rs
FN:43,_RINvNtNtCsitBd8PkZ0O7_12synap_server4core5queue21serialize_arc_payloadQINtNtCs1P7IgVNB6kP_7bincode3ser10SerializerQINtNtCsjftXE05v0h2_5alloc3vec3VechEINtNtB1c_6config14WithOtherLimitINtB2r_17WithOtherTrailingINtB2r_20WithOtherIntEncodingNtB2r_14DefaultOptionsNtNtB2r_3int14FixintEncodingENtNtB2r_8trailing13AllowTrailingENtNtB2r_5limit8InfiniteEEEB6_
FN:43,_RINvNtNtCsitBd8PkZ0O7_12synap_server4core5queue21serialize_arc_payloadQINtNtCs1P7IgVNB6kP_7bincode3ser11SizeCheckerQINtNtB1c_6config14WithOtherLimitINtB1T_17WithOtherTrailingINtB1T_20WithOtherIntEncodingNtB1T_14DefaultOptionsNtNtB1T_3int14FixintEncodingENtNtB1T_8trailing13AllowTrailingENtNtB1T_5limit8InfiniteEEEB6_
FN:43,_RINvNtNtCsitBd8PkZ0O7_12synap_server4core5queue21serialize_arc_payloadQINtNtCs1P7IgVNB6kP_7bincode3ser11SizeCheckerQINtNtB1c_6config17WithOtherTrailingINtB1T_20WithOtherIntEncodingNtB1T_14DefaultOptionsNtNtB1T_3int14FixintEncodingENtNtB1T_8trailing13AllowTrailingEEEB6_
FN:53,_RINvNtNtCsitBd8PkZ0O7_12synap_server4core5queue23deserialize_arc_payloadQINtNtCs1P7IgVNB6kP_7bincode2de12DeserializerNtNtB1c_4read11SliceReaderINtNtB1e_6config14WithOtherLimitINtB2k_17WithOtherTrailingINtB2k_20WithOtherIntEncodingNtB2k_14DefaultOptionsNtNtB2k_3int14FixintEncodingENtNtB2k_8trailing13AllowTrailingENtNtB2k_5limit8InfiniteEEEB6_
FN:329,_RNCNCNvMs2_NtNtCsitBd8PkZ0O7_12synap_server4core5queueNtB9_12QueueManager12create_queue00Bd_
FN:333,_RNCNCNvMs2_NtNtCsitBd8PkZ0O7_12synap_server4core5queueNtB9_12QueueManager12create_queue0s_0Bd_
FN:384,_RNCNCNvMs2_NtNtCsitBd8PkZ0O7_12synap_server4core5queueNtB9_12QueueManager3ack00Bd_
FN:452,_RNCNCNvMs2_NtNtCsitBd8PkZ0O7_12synap_server4core5queueNtB9_12QueueManager4dump00Bd_
FN:399,_RNCNCNvMs2_NtNtCsitBd8PkZ0O7_12synap_server4core5queueNtB9_12QueueManager4nack00Bd_
FN:427,_RNCNCNvMs2_NtNtCsitBd8PkZ0O7_12synap_server4core5queueNtB9_12QueueManager5purge00Bd_
FN:409,_RNCNCNvMs2_NtNtCsitBd8PkZ0O7_12synap_server4core5queueNtB9_12QueueManager5stats00Bd_
FN:372,_RNCNCNvMs2_NtNtCsitBd8PkZ0O7_12synap_server4core5queueNtB9_12QueueManager7consume00Bd_
FN:351,_RNCNCNvMs2_NtNtCsitBd8PkZ0O7_12synap_server4core5queueNtB9_12QueueManager7publish00Bd_
FN:278,_RNCNvMs1_NtNtCsitBd8PkZ0O7_12synap_server4core5queueNtB7_5Queue21check_expired_pending0Bb_
FN:279,_RNCNvMs1_NtNtCsitBd8PkZ0O7_12synap_server4core5queueNtB7_5Queue21check_expired_pendings_0Bb_
FN:190,_RNCNvMs1_NtNtCsitBd8PkZ0O7_12synap_server4core5queueNtB7_5Queue7publish0Bb_
FN:415,_RNCNvMs2_NtNtCsitBd8PkZ0O7_12synap_server4core5queueNtB7_12QueueManager11list_queues0Bb_
FN:325,_RNCNvMs2_NtNtCsitBd8PkZ0O7_12synap_server4core5queueNtB7_12QueueManager12create_queue0Bb_
FN:437,_RNCNvMs2_NtNtCsitBd8PkZ0O7_12synap_server4core5queueNtB7_12QueueManager12delete_queue0Bb_
FN:310,_RNCNvMs2_NtNtCsitBd8PkZ0O7_12synap_server4core5queueNtB7_12QueueManager22start_deadline_checker0Bb_
FN:378,_RNCNvMs2_NtNtCsitBd8PkZ0O7_12synap_server4core5queueNtB7_12QueueManager3ack0Bb_
FN:445,_RNCNvMs2_NtNtCsitBd8PkZ0O7_12synap_server4core5queueNtB7_12QueueManager4dump0Bb_
FN:390,_RNCNvMs2_NtNtCsitBd8PkZ0O7_12synap_server4core5queueNtB7_12QueueManager4nack0Bb_
FN:421,_RNCNvMs2_NtNtCsitBd8PkZ0O7_12synap_server4core5queueNtB7_12QueueManager5purge0Bb_
FN:405,_RNCNvMs2_NtNtCsitBd8PkZ0O7_12synap_server4core5queueNtB7_12QueueManager5stats0Bb_
FN:366,_RNCNvMs2_NtNtCsitBd8PkZ0O7_12synap_server4core5queueNtB7_12QueueManager7consume0Bb_
FN:345,_RNCNvMs2_NtNtCsitBd8PkZ0O7_12synap_server4core5queueNtB7_12QueueManager7publish0Bb_
FN:64,_RNCNvNtNtCsitBd8PkZ0O7_12synap_server4core5queue17current_timestamp0B7_
FN:88,_RNvMNtNtCsitBd8PkZ0O7_12synap_server4core5queueNtB2_12QueueMessage15increment_retry
FN:70,_RNvMNtNtCsitBd8PkZ0O7_12synap_server4core5queueNtB2_12QueueMessage3new
FN:83,_RNvMNtNtCsitBd8PkZ0O7_12synap_server4core5queueNtB2_12QueueMessage7is_dead
FN:274,_RNvMs1_NtNtCsitBd8PkZ0O7_12synap_server4core5queueNtB5_5Queue21check_expired_pending
FN:227,_RNvMs1_NtNtCsitBd8PkZ0O7_12synap_server4core5queueNtB5_5Queue3ack
FN:166,_RNvMs1_NtNtCsitBd8PkZ0O7_12synap_server4core5queueNtB5_5Queue3new
FN:237,_RNvMs1_NtNtCsitBd8PkZ0O7_12synap_server4core5queueNtB5_5Queue4nack
FN:201,_RNvMs1_NtNtCsitBd8PkZ0O7_12synap_server4core5queueNtB5_5Queue7consume
FN:178,_RNvMs1_NtNtCsitBd8PkZ0O7_12synap_server4core5queueNtB5_5Queue7publish
FN:415,_RNvMs2_NtNtCsitBd8PkZ0O7_12synap_server4core5queueNtB5_12QueueManager11list_queues
FN:325,_RNvMs2_NtNtCsitBd8PkZ0O7_12synap_server4core5queueNtB5_12QueueManager12create_queue
FN:437,_RNvMs2_NtNtCsitBd8PkZ0O7_12synap_server4core5queueNtB5_12QueueManager12delete_queue
FN:307,_RNvMs2_NtNtCsitBd8PkZ0O7_12synap_server4core5queueNtB5_12QueueManager22start_deadline_checker
FN:378,_RNvMs2_NtNtCsitBd8PkZ0O7_12synap_server4core5queueNtB5_12QueueManager3ack
FN:298,_RNvMs2_NtNtCsitBd8PkZ0O7_12synap_server4core5queueNtB5_12QueueManager3new
FN:445,_RNvMs2_NtNtCsitBd8PkZ0O7_12synap_server4core5queueNtB5_12QueueManager4dump
FN:390,_RNvMs2_NtNtCsitBd8PkZ0O7_12synap_server4core5queueNtB5_12QueueManager4nack
FN:421,_RNvMs2_NtNtCsitBd8PkZ0O7_12synap_server4core5queueNtB5_12QueueManager5purge
FN:405,_RNvMs2_NtNtCsitBd8PkZ0O7_12synap_server4core5queueNtB5_12QueueManager5stats
FN:362,_RNvMs2_NtNtCsitBd8PkZ0O7_12synap_server4core5queueNtB5_12QueueManager7consume
FN:339,_RNvMs2_NtNtCsitBd8PkZ0O7_12synap_server4core5queueNtB5_12QueueManager7publish
FN:113,_RNvMs_NtNtCsitBd8PkZ0O7_12synap_server4core5queueNtB4_14PendingMessage10is_expired
FN:104,_RNvMs_NtNtCsitBd8PkZ0O7_12synap_server4core5queueNtB4_14PendingMessage3new
FN:61,_RNvNtNtCsitBd8PkZ0O7_12synap_server4core5queue17current_timestamp
FN:132,_RNvXs0_NtNtCsitBd8PkZ0O7_12synap_server4core5queueNtB5_11QueueConfigNtNtCsluXpZPV6FGj_4core7default7Default7default
FN:646,_RNvNtNtNtCsfrV5S290jXb_12synap_server4core5queue5testss_16test_list_queues
FN:624,_RNvNtNtNtCsfrV5S290jXb_12synap_server4core5queue5testss_16test_queue_purge
FN:606,_RNvNtNtNtCsfrV5S290jXb_12synap_server4core5queue5testss_16test_queue_stats
FN:661,_RNvNtNtNtCsfrV5S290jXb_12synap_server4core5queue5testss_17test_delete_queue
FN:530,_RNvNtNtNtCsfrV5S290jXb_12synap_server4core5queue5testss_19test_queue_ack_nack
FN:485,_RNvNtNtNtCsfrV5S290jXb_12synap_server4core5queue5testss_19test_queue_priority
FN:577,_RNvNtNtNtCsfrV5S290jXb_12synap_server4core5queue5testss_22test_queue_dead_letter
FN:554,_RNvNtNtNtCsfrV5S290jXb_12synap_server4core5queue5testss_23test_queue_nack_requeue
FN:466,_RNvNtNtNtCsfrV5S290jXb_12synap_server4core5queue5testss_26test_queue_publish_consume
FN:772,_RNvNtNtNtCsfrV5S290jXb_12synap_server4core5queue5testss_33test_high_concurrency_stress_test
FN:852,_RNvNtNtNtCsfrV5S290jXb_12synap_server4core5queue5testss_35test_concurrent_publish_and_consume
FN:930,_RNvNtNtNtCsfrV5S290jXb_12synap_server4core5queue5testss_37test_no_message_loss_under_contention
FN:677,_RNvNtNtNtCsfrV5S290jXb_12synap_server4core5queue5testss_39test_concurrent_consumers_no_duplicates
FN:1017,_RNvNtNtNtCsfrV5S290jXb_12synap_server4core5queue5testss_39test_priority_with_concurrent_consumers
FN:278,_RNCNvMs1_NtNtCsfrV5S290jXb_12synap_server4core5queueNtB7_5Queue21check_expired_pending0Bb_
FN:279,_RNCNvMs1_NtNtCsfrV5S290jXb_12synap_server4core5queueNtB7_5Queue21check_expired_pendings_0Bb_
FN:310,_RNCNvMs2_NtNtCsfrV5S290jXb_12synap_server4core5queueNtB7_12QueueManager22start_deadline_checker0Bb_
FN:274,_RNvMs1_NtNtCsfrV5S290jXb_12synap_server4core5queueNtB5_5Queue21check_expired_pending
FN:307,_RNvMs2_NtNtCsfrV5S290jXb_12synap_server4core5queueNtB5_12QueueManager22start_deadline_checker
FN:113,_RNvMs_NtNtCsfrV5S290jXb_12synap_server4core5queueNtB4_14PendingMessage10is_expired
FN:88,_RNvMNtNtCsfrV5S290jXb_12synap_server4core5queueNtB2_12QueueMessage15increment_retry
FN:70,_RNvMNtNtCsfrV5S290jXb_12synap_server4core5queueNtB2_12QueueMessage3new
FN:83,_RNvMNtNtCsfrV5S290jXb_12synap_server4core5queueNtB2_12QueueMessage7is_dead
FN:227,_RNvMs1_NtNtCsfrV5S290jXb_12synap_server4core5queueNtB5_5Queue3ack
FN:166,_RNvMs1_NtNtCsfrV5S290jXb_12synap_server4core5queueNtB5_5Queue3new
FN:237,_RNvMs1_NtNtCsfrV5S290jXb_12synap_server4core5queueNtB5_5Queue4nack
FN:201,_RNvMs1_NtNtCsfrV5S290jXb_12synap_server4core5queueNtB5_5Queue7consume
FN:178,_RNvMs1_NtNtCsfrV5S290jXb_12synap_server4core5queueNtB5_5Queue7publish
FN:415,_RNvMs2_NtNtCsfrV5S290jXb_12synap_server4core5queueNtB5_12QueueManager11list_queues
FN:325,_RNvMs2_NtNtCsfrV5S290jXb_12synap_server4core5queueNtB5_12QueueManager12create_queue
FN:437,_RNvMs2_NtNtCsfrV5S290jXb_12synap_server4core5queueNtB5_12QueueManager12delete_queue
FN:378,_RNvMs2_NtNtCsfrV5S290jXb_12synap_server4core5queueNtB5_12QueueManager3ack
FN:298,_RNvMs2_NtNtCsfrV5S290jXb_12synap_server4core5queueNtB5_12QueueManager3new
FN:445,_RNvMs2_NtNtCsfrV5S290jXb_12synap_server4core5queueNtB5_12QueueManager4dump
FN:390,_RNvMs2_NtNtCsfrV5S290jXb_12synap_server4core5queueNtB5_12QueueManager4nack
FN:421,_RNvMs2_NtNtCsfrV5S290jXb_12synap_server4core5queueNtB5_12QueueManager5purge
FN:405,_RNvMs2_NtNtCsfrV5S290jXb_12synap_server4core5queueNtB5_12QueueManager5stats
FN:362,_RNvMs2_NtNtCsfrV5S290jXb_12synap_server4core5queueNtB5_12QueueManager7consume
FN:339,_RNvMs2_NtNtCsfrV5S290jXb_12synap_server4core5queueNtB5_12QueueManager7publish
FN:104,_RNvMs_NtNtCsfrV5S290jXb_12synap_server4core5queueNtB4_14PendingMessage3new
FN:61,_RNvNtNtCsfrV5S290jXb_12synap_server4core5queue17current_timestamp
FN:132,_RNvXs0_NtNtCsfrV5S290jXb_12synap_server4core5queueNtB5_11QueueConfigNtNtCsluXpZPV6FGj_4core7default7Default7default
FN:43,_RINvNtNtCsfrV5S290jXb_12synap_server4core5queue21serialize_arc_payloadQINtNtCs1P7IgVNB6kP_7bincode3ser10SerializerQINtNtCsjftXE05v0h2_5alloc3vec3VechEINtNtB1c_6config14WithOtherLimitINtB2r_17WithOtherTrailingINtB2r_20WithOtherIntEncodingNtB2r_14DefaultOptionsNtNtB2r_3int14FixintEncodingENtNtB2r_8trailing13AllowTrailingENtNtB2r_5limit8InfiniteEEEB6_
FN:43,_RINvNtNtCsfrV5S290jXb_12synap_server4core5queue21serialize_arc_payloadQINtNtCs1P7IgVNB6kP_7bincode3ser11SizeCheckerQINtNtB1c_6config14WithOtherLimitINtB1T_17WithOtherTrailingINtB1T_20WithOtherIntEncodingNtB1T_14DefaultOptionsNtNtB1T_3int14FixintEncodingENtNtB1T_8trailing13AllowTrailingENtNtB1T_5limit8InfiniteEEEB6_
FN:43,_RINvNtNtCsfrV5S290jXb_12synap_server4core5queue21serialize_arc_payloadQINtNtCs1P7IgVNB6kP_7bincode3ser11SizeCheckerQINtNtB1c_6config17WithOtherTrailingINtB1T_20WithOtherIntEncodingNtB1T_14DefaultOptionsNtNtB1T_3int14FixintEncodingENtNtB1T_8trailing13AllowTrailingEEEB6_
FN:53,_RINvNtNtCsfrV5S290jXb_12synap_server4core5queue23deserialize_arc_payloadQINtNtCs1P7IgVNB6kP_7bincode2de12DeserializerNtNtB1c_4read11SliceReaderINtNtB1e_6config14WithOtherLimitINtB2k_17WithOtherTrailingINtB2k_20WithOtherIntEncodingNtB2k_14DefaultOptionsNtNtB2k_3int14FixintEncodingENtNtB2k_8trailing13AllowTrailingENtNtB2k_5limit8InfiniteEEEB6_
FN:329,_RNCNCNvMs2_NtNtCsfrV5S290jXb_12synap_server4core5queueNtB9_12QueueManager12create_queue00Bd_
FN:333,_RNCNCNvMs2_NtNtCsfrV5S290jXb_12synap_server4core5queueNtB9_12QueueManager12create_queue0s_0Bd_
FN:384,_RNCNCNvMs2_NtNtCsfrV5S290jXb_12synap_server4core5queueNtB9_12QueueManager3ack00Bd_
FN:452,_RNCNCNvMs2_NtNtCsfrV5S290jXb_12synap_server4core5queueNtB9_12QueueManager4dump00Bd_
FN:399,_RNCNCNvMs2_NtNtCsfrV5S290jXb_12synap_server4core5queueNtB9_12QueueManager4nack00Bd_
FN:427,_RNCNCNvMs2_NtNtCsfrV5S290jXb_12synap_server4core5queueNtB9_12QueueManager5purge00Bd_
FN:409,_RNCNCNvMs2_NtNtCsfrV5S290jXb_12synap_server4core5queueNtB9_12QueueManager5stats00Bd_
FN:372,_RNCNCNvMs2_NtNtCsfrV5S290jXb_12synap_server4core5queueNtB9_12QueueManager7consume00Bd_
FN:351,_RNCNCNvMs2_NtNtCsfrV5S290jXb_12synap_server4core5queueNtB9_12QueueManager7publish00Bd_
FN:190,_RNCNvMs1_NtNtCsfrV5S290jXb_12synap_server4core5queueNtB7_5Queue7publish0Bb_
FN:415,_RNCNvMs2_NtNtCsfrV5S290jXb_12synap_server4core5queueNtB7_12QueueManager11list_queues0Bb_
FN:325,_RNCNvMs2_NtNtCsfrV5S290jXb_12synap_server4core5queueNtB7_12QueueManager12create_queue0Bb_
FN:437,_RNCNvMs2_NtNtCsfrV5S290jXb_12synap_server4core5queueNtB7_12QueueManager12delete_queue0Bb_
FN:378,_RNCNvMs2_NtNtCsfrV5S290jXb_12synap_server4core5queueNtB7_12QueueManager3ack0Bb_
FN:445,_RNCNvMs2_NtNtCsfrV5S290jXb_12synap_server4core5queueNtB7_12QueueManager4dump0Bb_
FN:390,_RNCNvMs2_NtNtCsfrV5S290jXb_12synap_server4core5queueNtB7_12QueueManager4nack0Bb_
FN:421,_RNCNvMs2_NtNtCsfrV5S290jXb_12synap_server4core5queueNtB7_12QueueManager5purge0Bb_
FN:405,_RNCNvMs2_NtNtCsfrV5S290jXb_12synap_server4core5queueNtB7_12QueueManager5stats0Bb_
FN:366,_RNCNvMs2_NtNtCsfrV5S290jXb_12synap_server4core5queueNtB7_12QueueManager7consume0Bb_
FN:345,_RNCNvMs2_NtNtCsfrV5S290jXb_12synap_server4core5queueNtB7_12QueueManager7publish0Bb_
FN:64,_RNCNvNtNtCsfrV5S290jXb_12synap_server4core5queue17current_timestamp0B7_
FN:802,_RNCNCNvNtNtNtCsfrV5S290jXb_12synap_server4core5queue5testss_33test_high_concurrency_stress_test00Bb_
FN:869,_RNCNCNvNtNtNtCsfrV5S290jXb_12synap_server4core5queue5testss_35test_concurrent_publish_and_consume00Bb_
FN:888,_RNCNCNvNtNtNtCsfrV5S290jXb_12synap_server4core5queue5testss_35test_concurrent_publish_and_consume0s_0Bb_
FN:960,_RNCNCNvNtNtNtCsfrV5S290jXb_12synap_server4core5queue5testss_37test_no_message_loss_under_contention00Bb_
FN:711,_RNCNCNvNtNtNtCsfrV5S290jXb_12synap_server4core5queue5testss_39test_concurrent_consumers_no_duplicates00Bb_
FN:1051,_RNCNCNvNtNtNtCsfrV5S290jXb_12synap_server4core5queue5testss_39test_priority_with_concurrent_consumers00Bb_
FN:1106,_RNCNCNvNtNtNtCsfrV5S290jXb_12synap_server4core5queue5testss_39test_priority_with_concurrent_consumers0s1_0Bb_
FN:1099,_RNCNCNvNtNtNtCsfrV5S290jXb_12synap_server4core5queue5testss_39test_priority_with_concurrent_consumers0s_0Bb_
FN:646,_RNCNvNtNtNtCsfrV5S290jXb_12synap_server4core5queue5testss_16test_list_queues0B9_
FN:624,_RNCNvNtNtNtCsfrV5S290jXb_12synap_server4core5queue5testss_16test_queue_purge0B9_
FN:606,_RNCNvNtNtNtCsfrV5S290jXb_12synap_server4core5queue5testss_16test_queue_stats0B9_
FN:661,_RNCNvNtNtNtCsfrV5S290jXb_12synap_server4core5queue5testss_17test_delete_queue0B9_
FN:530,_RNCNvNtNtNtCsfrV5S290jXb_12synap_server4core5queue5testss_19test_queue_ack_nack0B9_
FN:485,_RNCNvNtNtNtCsfrV5S290jXb_12synap_server4core5queue5testss_19test_queue_priority0B9_
FN:577,_RNCNvNtNtNtCsfrV5S290jXb_12synap_server4core5queue5testss_22test_queue_dead_letter0B9_
FN:554,_RNCNvNtNtNtCsfrV5S290jXb_12synap_server4core5queue5testss_23test_queue_nack_requeue0B9_
FN:466,_RNCNvNtNtNtCsfrV5S290jXb_12synap_server4core5queue5testss_26test_queue_publish_consume0B9_
FN:772,_RNCNvNtNtNtCsfrV5S290jXb_12synap_server4core5queue5testss_33test_high_concurrency_stress_test0B9_
FN:852,_RNCNvNtNtNtCsfrV5S290jXb_12synap_server4core5queue5testss_35test_concurrent_publish_and_consume0B9_
FN:930,_RNCNvNtNtNtCsfrV5S290jXb_12synap_server4core5queue5testss_37test_no_message_loss_under_contention0B9_
FN:677,_RNCNvNtNtNtCsfrV5S290jXb_12synap_server4core5queue5testss_39test_concurrent_consumers_no_duplicates0B9_
FN:1017,_RNCNvNtNtNtCsfrV5S290jXb_12synap_server4core5queue5testss_39test_priority_with_concurrent_consumers0B9_
FNDA:0,_RINvNtNtCsitBd8PkZ0O7_12synap_server4core5queue21serialize_arc_payloadQINtNtCs1P7IgVNB6kP_7bincode3ser10SerializerQINtNtCsjftXE05v0h2_5alloc3vec3VechEINtNtB1c_6config14WithOtherLimitINtB2r_17WithOtherTrailingINtB2r_20WithOtherIntEncodingNtB2r_14DefaultOptionsNtNtB2r_3int14FixintEncodingENtNtB2r_8trailing13AllowTrailingENtNtB2r_5limit8InfiniteEEEB6_
FNDA:0,_RINvNtNtCsitBd8PkZ0O7_12synap_server4core5queue21serialize_arc_payloadQINtNtCs1P7IgVNB6kP_7bincode3ser11SizeCheckerQINtNtB1c_6config14WithOtherLimitINtB1T_17WithOtherTrailingINtB1T_20WithOtherIntEncodingNtB1T_14DefaultOptionsNtNtB1T_3int14FixintEncodingENtNtB1T_8trailing13AllowTrailingENtNtB1T_5limit8InfiniteEEEB6_
FNDA:0,_RINvNtNtCsitBd8PkZ0O7_12synap_server4core5queue21serialize_arc_payloadQINtNtCs1P7IgVNB6kP_7bincode3ser11SizeCheckerQINtNtB1c_6config17WithOtherTrailingINtB1T_20WithOtherIntEncodingNtB1T_14DefaultOptionsNtNtB1T_3int14FixintEncodingENtNtB1T_8trailing13AllowTrailingEEEB6_
FNDA:0,_RINvNtNtCsitBd8PkZ0O7_12synap_server4core5queue23deserialize_arc_payloadQINtNtCs1P7IgVNB6kP_7bincode2de12DeserializerNtNtB1c_4read11SliceReaderINtNtB1e_6config14WithOtherLimitINtB2k_17WithOtherTrailingINtB2k_20WithOtherIntEncodingNtB2k_14DefaultOptionsNtNtB2k_3int14FixintEncodingENtNtB2k_8trailing13AllowTrailingENtNtB2k_5limit8InfiniteEEEB6_
FNDA:69,_RNCNCNvMs2_NtNtCsitBd8PkZ0O7_12synap_server4core5queueNtB9_12QueueManager12create_queue00Bd_
FNDA:70,_RNCNCNvMs2_NtNtCsitBd8PkZ0O7_12synap_server4core5queueNtB9_12QueueManager12create_queue0s_0Bd_
FNDA:0,_RNCNCNvMs2_NtNtCsitBd8PkZ0O7_12synap_server4core5queueNtB9_12QueueManager3ack00Bd_
FNDA:0,_RNCNCNvMs2_NtNtCsitBd8PkZ0O7_12synap_server4core5queueNtB9_12QueueManager4dump00Bd_
FNDA:0,_RNCNCNvMs2_NtNtCsitBd8PkZ0O7_12synap_server4core5queueNtB9_12QueueManager4nack00Bd_
FNDA:0,_RNCNCNvMs2_NtNtCsitBd8PkZ0O7_12synap_server4core5queueNtB9_12QueueManager5purge00Bd_
FNDA:1,_RNCNCNvMs2_NtNtCsitBd8PkZ0O7_12synap_server4core5queueNtB9_12QueueManager5stats00Bd_
FNDA:1,_RNCNCNvMs2_NtNtCsitBd8PkZ0O7_12synap_server4core5queueNtB9_12QueueManager7consume00Bd_
FNDA:2,_RNCNCNvMs2_NtNtCsitBd8PkZ0O7_12synap_server4core5queueNtB9_12QueueManager7publish00Bd_
FNDA:0,_RNCNvMs1_NtNtCsitBd8PkZ0O7_12synap_server4core5queueNtB7_5Queue21check_expired_pending0Bb_
FNDA:0,_RNCNvMs1_NtNtCsitBd8PkZ0O7_12synap_server4core5queueNtB7_5Queue21check_expired_pendings_0Bb_
FNDA:24,_RNCNvMs1_NtNtCsitBd8PkZ0O7_12synap_server4core5queueNtB7_5Queue7publish0Bb_
FNDA:2,_RNCNvMs2_NtNtCsitBd8PkZ0O7_12synap_server4core5queueNtB7_12QueueManager11list_queues0Bb_
FNDA:70,_RNCNvMs2_NtNtCsitBd8PkZ0O7_12synap_server4core5queueNtB7_12QueueManager12create_queue0Bb_
FNDA:2,_RNCNvMs2_NtNtCsitBd8PkZ0O7_12synap_server4core5queueNtB7_12QueueManager12delete_queue0Bb_
FNDA:0,_RNCNvMs2_NtNtCsitBd8PkZ0O7_12synap_server4core5queueNtB7_12QueueManager22start_deadline_checker0Bb_
FNDA:8,_RNCNvMs2_NtNtCsitBd8PkZ0O7_12synap_server4core5queueNtB7_12QueueManager3ack0Bb_
FNDA:0,_RNCNvMs2_NtNtCsitBd8PkZ0O7_12synap_server4core5queueNtB7_12QueueManager4dump0Bb_
FNDA:2,_RNCNvMs2_NtNtCsitBd8PkZ0O7_12synap_server4core5queueNtB7_12QueueManager4nack0Bb_
FNDA:1,_RNCNvMs2_NtNtCsitBd8PkZ0O7_12synap_server4core5queueNtB7_12QueueManager5purge0Bb_
FNDA:4,_RNCNvMs2_NtNtCsitBd8PkZ0O7_12synap_server4core5queueNtB7_12QueueManager5stats0Bb_
FNDA:14,_RNCNvMs2_NtNtCsitBd8PkZ0O7_12synap_server4core5queueNtB7_12QueueManager7consume0Bb_
FNDA:26,_RNCNvMs2_NtNtCsitBd8PkZ0O7_12synap_server4core5queueNtB7_12QueueManager7publish0Bb_
FNDA:36,_RNCNvNtNtCsitBd8PkZ0O7_12synap_server4core5queue17current_timestamp0B7_
FNDA:2,_RNvMNtNtCsitBd8PkZ0O7_12synap_server4core5queueNtB2_12QueueMessage15increment_retry
FNDA:24,_RNvMNtNtCsitBd8PkZ0O7_12synap_server4core5queueNtB2_12QueueMessage3new
FNDA:2,_RNvMNtNtCsitBd8PkZ0O7_12synap_server4core5queueNtB2_12QueueMessage7is_dead
FNDA:0,_RNvMs1_NtNtCsitBd8PkZ0O7_12synap_server4core5queueNtB5_5Queue21check_expired_pending
FNDA:8,_RNvMs1_NtNtCsitBd8PkZ0O7_12synap_server4core5queueNtB5_5Queue3ack
FNDA:70,_RNvMs1_NtNtCsitBd8PkZ0O7_12synap_server4core5queueNtB5_5Queue3new
FNDA:2,_RNvMs1_NtNtCsitBd8PkZ0O7_12synap_server4core5queueNtB5_5Queue4nack
FNDA:13,_RNvMs1_NtNtCsitBd8PkZ0O7_12synap_server4core5queueNtB5_5Queue7consume
FNDA:24,_RNvMs1_NtNtCsitBd8PkZ0O7_12synap_server4core5queueNtB5_5Queue7publish
FNDA:2,_RNvMs2_NtNtCsitBd8PkZ0O7_12synap_server4core5queueNtB5_12QueueManager11list_queues
FNDA:70,_RNvMs2_NtNtCsitBd8PkZ0O7_12synap_server4core5queueNtB5_12QueueManager12create_queue
FNDA:2,_RNvMs2_NtNtCsitBd8PkZ0O7_12synap_server4core5queueNtB5_12QueueManager12delete_queue
FNDA:0,_RNvMs2_NtNtCsitBd8PkZ0O7_12synap_server4core5queueNtB5_12QueueManager22start_deadline_checker
FNDA:8,_RNvMs2_NtNtCsitBd8PkZ0O7_12synap_server4core5queueNtB5_12QueueManager3ack
FNDA:48,_RNvMs2_NtNtCsitBd8PkZ0O7_12synap_server4core5queueNtB5_12QueueManager3new
FNDA:0,_RNvMs2_NtNtCsitBd8PkZ0O7_12synap_server4core5queueNtB5_12QueueManager4dump
FNDA:2,_RNvMs2_NtNtCsitBd8PkZ0O7_12synap_server4core5queueNtB5_12QueueManager4nack
FNDA:1,_RNvMs2_NtNtCsitBd8PkZ0O7_12synap_server4core5queueNtB5_12QueueManager5purge
FNDA:4,_RNvMs2_NtNtCsitBd8PkZ0O7_12synap_server4core5queueNtB5_12QueueManager5stats
FNDA:14,_RNvMs2_NtNtCsitBd8PkZ0O7_12synap_server4core5queueNtB5_12QueueManager7consume
FNDA:26,_RNvMs2_NtNtCsitBd8PkZ0O7_12synap_server4core5queueNtB5_12QueueManager7publish
FNDA:0,_RNvMs_NtNtCsitBd8PkZ0O7_12synap_server4core5queueNtB4_14PendingMessage10is_expired
FNDA:12,_RNvMs_NtNtCsitBd8PkZ0O7_12synap_server4core5queueNtB4_14PendingMessage3new
FNDA:36,_RNvNtNtCsitBd8PkZ0O7_12synap_server4core5queue17current_timestamp
FNDA:48,_RNvXs0_NtNtCsitBd8PkZ0O7_12synap_server4core5queueNtB5_11QueueConfigNtNtCsluXpZPV6FGj_4core7default7Default7default
FNDA:2,_RNvNtNtNtCsfrV5S290jXb_12synap_server4core5queue5testss_16test_list_queues
FNDA:2,_RNvNtNtNtCsfrV5S290jXb_12synap_server4core5queue5testss_16test_queue_purge
FNDA:2,_RNvNtNtNtCsfrV5S290jXb_12synap_server4core5queue5testss_16test_queue_stats
FNDA:2,_RNvNtNtNtCsfrV5S290jXb_12synap_server4core5queue5testss_17test_delete_queue
FNDA:2,_RNvNtNtNtCsfrV5S290jXb_12synap_server4core5queue5testss_19test_queue_ack_nack
FNDA:2,_RNvNtNtNtCsfrV5S290jXb_12synap_server4core5queue5testss_19test_queue_priority
FNDA:2,_RNvNtNtNtCsfrV5S290jXb_12synap_server4core5queue5testss_22test_queue_dead_letter
FNDA:2,_RNvNtNtNtCsfrV5S290jXb_12synap_server4core5queue5testss_23test_queue_nack_requeue
FNDA:2,_RNvNtNtNtCsfrV5S290jXb_12synap_server4core5queue5testss_26test_queue_publish_consume
FNDA:2,_RNvNtNtNtCsfrV5S290jXb_12synap_server4core5queue5testss_33test_high_concurrency_stress_test
FNDA:2,_RNvNtNtNtCsfrV5S290jXb_12synap_server4core5queue5testss_35test_concurrent_publish_and_consume
FNDA:2,_RNvNtNtNtCsfrV5S290jXb_12synap_server4core5queue5testss_37test_no_message_loss_under_contention
FNDA:2,_RNvNtNtNtCsfrV5S290jXb_12synap_server4core5queue5testss_39test_concurrent_consumers_no_duplicates
FNDA:2,_RNvNtNtNtCsfrV5S290jXb_12synap_server4core5queue5testss_39test_priority_with_concurrent_consumers
FNDA:0,_RNCNvMs1_NtNtCsfrV5S290jXb_12synap_server4core5queueNtB7_5Queue21check_expired_pending0Bb_
FNDA:0,_RNCNvMs1_NtNtCsfrV5S290jXb_12synap_server4core5queueNtB7_5Queue21check_expired_pendings_0Bb_
FNDA:0,_RNCNvMs2_NtNtCsfrV5S290jXb_12synap_server4core5queueNtB7_12QueueManager22start_deadline_checker0Bb_
FNDA:0,_RNvMs1_NtNtCsfrV5S290jXb_12synap_server4core5queueNtB5_5Queue21check_expired_pending
FNDA:0,_RNvMs2_NtNtCsfrV5S290jXb_12synap_server4core5queueNtB5_12QueueManager22start_deadline_checker
FNDA:0,_RNvMs_NtNtCsfrV5S290jXb_12synap_server4core5queueNtB4_14PendingMessage10is_expired
FNDA:4,_RNvMNtNtCsfrV5S290jXb_12synap_server4core5queueNtB2_12QueueMessage15increment_retry
FNDA:4318,_RNvMNtNtCsfrV5S290jXb_12synap_server4core5queueNtB2_12QueueMessage3new
FNDA:4,_RNvMNtNtCsfrV5S290jXb_12synap_server4core5queueNtB2_12QueueMessage7is_dead
FNDA:4264,_RNvMs1_NtNtCsfrV5S290jXb_12synap_server4core5queueNtB5_5Queue3ack
FNDA:36,_RNvMs1_NtNtCsfrV5S290jXb_12synap_server4core5queueNtB5_5Queue3new
FNDA:4,_RNvMs1_NtNtCsfrV5S290jXb_12synap_server4core5queueNtB5_5Queue4nack
FNDA:4658,_RNvMs1_NtNtCsfrV5S290jXb_12synap_server4core5queueNtB5_5Queue7consume
FNDA:4318,_RNvMs1_NtNtCsfrV5S290jXb_12synap_server4core5queueNtB5_5Queue7publish
FNDA:2,_RNvMs2_NtNtCsfrV5S290jXb_12synap_server4core5queueNtB5_12QueueManager11list_queues
FNDA:38,_RNvMs2_NtNtCsfrV5S290jXb_12synap_server4core5queueNtB5_12QueueManager12create_queue
FNDA:4,_RNvMs2_NtNtCsfrV5S290jXb_12synap_server4core5queueNtB5_12QueueManager12delete_queue
FNDA:4264,_RNvMs2_NtNtCsfrV5S290jXb_12synap_server4core5queueNtB5_12QueueManager3ack
FNDA:36,_RNvMs2_NtNtCsfrV5S290jXb_12synap_server4core5queueNtB5_12QueueManager3new
FNDA:0,_RNvMs2_NtNtCsfrV5S290jXb_12synap_server4core5queueNtB5_12QueueManager4dump
FNDA:4,_RNvMs2_NtNtCsfrV5S290jXb_12synap_server4core5queueNtB5_12QueueManager4nack
FNDA:2,_RNvMs2_NtNtCsfrV5S290jXb_12synap_server4core5queueNtB5_12QueueManager5purge
FNDA:6,_RNvMs2_NtNtCsfrV5S290jXb_12synap_server4core5queueNtB5_12QueueManager5stats
FNDA:4658,_RNvMs2_NtNtCsfrV5S290jXb_12synap_server4core5queueNtB5_12QueueManager7consume
FNDA:4318,_RNvMs2_NtNtCsfrV5S290jXb_12synap_server4core5queueNtB5_12QueueManager7publish
FNDA:4286,_RNvMs_NtNtCsfrV5S290jXb_12synap_server4core5queueNtB4_14PendingMessage3new
FNDA:8624,_RNvNtNtCsfrV5S290jXb_12synap_server4core5queue17current_timestamp
FNDA:34,_RNvXs0_NtNtCsfrV5S290jXb_12synap_server4core5queueNtB5_11QueueConfigNtNtCsluXpZPV6FGj_4core7default7Default7default
FNDA:10,_RINvNtNtCsfrV5S290jXb_12synap_server4core5queue21serialize_arc_payloadQINtNtCs1P7IgVNB6kP_7bincode3ser10SerializerQINtNtCsjftXE05v0h2_5alloc3vec3VechEINtNtB1c_6config14WithOtherLimitINtB2r_17WithOtherTrailingINtB2r_20WithOtherIntEncodingNtB2r_14DefaultOptionsNtNtB2r_3int14FixintEncodingENtNtB2r_8trailing13AllowTrailingENtNtB2r_5limit8InfiniteEEEB6_
FNDA:0,_RINvNtNtCsfrV5S290jXb_12synap_server4core5queue21serialize_arc_payloadQINtNtCs1P7IgVNB6kP_7bincode3ser11SizeCheckerQINtNtB1c_6config14WithOtherLimitINtB1T_17WithOtherTrailingINtB1T_20WithOtherIntEncodingNtB1T_14DefaultOptionsNtNtB1T_3int14FixintEncodingENtNtB1T_8trailing13AllowTrailingENtNtB1T_5limit8InfiniteEEEB6_
FNDA:10,_RINvNtNtCsfrV5S290jXb_12synap_server4core5queue21serialize_arc_payloadQINtNtCs1P7IgVNB6kP_7bincode3ser11SizeCheckerQINtNtB1c_6config17WithOtherTrailingINtB1T_20WithOtherIntEncodingNtB1T_14DefaultOptionsNtNtB1T_3int14FixintEncodingENtNtB1T_8trailing13AllowTrailingEEEB6_
FNDA:20,_RINvNtNtCsfrV5S290jXb_12synap_server4core5queue23deserialize_arc_payloadQINtNtCs1P7IgVNB6kP_7bincode2de12DeserializerNtNtB1c_4read11SliceReaderINtNtB1e_6config14WithOtherLimitINtB2k_17WithOtherTrailingINtB2k_20WithOtherIntEncodingNtB2k_14DefaultOptionsNtNtB2k_3int14FixintEncodingENtNtB2k_8trailing13AllowTrailingENtNtB2k_5limit8InfiniteEEEB6_
FNDA:38,_RNCNCNvMs2_NtNtCsfrV5S290jXb_12synap_server4core5queueNtB9_12QueueManager12create_queue00Bd_
FNDA:36,_RNCNCNvMs2_NtNtCsfrV5S290jXb_12synap_server4core5queueNtB9_12QueueManager12create_queue0s_0Bd_
FNDA:0,_RNCNCNvMs2_NtNtCsfrV5S290jXb_12synap_server4core5queueNtB9_12QueueManager3ack00Bd_
FNDA:0,_RNCNCNvMs2_NtNtCsfrV5S290jXb_12synap_server4core5queueNtB9_12QueueManager4dump00Bd_
FNDA:0,_RNCNCNvMs2_NtNtCsfrV5S290jXb_12synap_server4core5queueNtB9_12QueueManager4nack00Bd_
FNDA:0,_RNCNCNvMs2_NtNtCsfrV5S290jXb_12synap_server4core5queueNtB9_12QueueManager5purge00Bd_
FNDA:0,_RNCNCNvMs2_NtNtCsfrV5S290jXb_12synap_server4core5queueNtB9_12QueueManager5stats00Bd_
FNDA:0,_RNCNCNvMs2_NtNtCsfrV5S290jXb_12synap_server4core5queueNtB9_12QueueManager7consume00Bd_
FNDA:0,_RNCNCNvMs2_NtNtCsfrV5S290jXb_12synap_server4core5queueNtB9_12QueueManager7publish00Bd_
FNDA:1508654,_RNCNvMs1_NtNtCsfrV5S290jXb_12synap_server4core5queueNtB7_5Queue7publish0Bb_
FNDA:2,_RNCNvMs2_NtNtCsfrV5S290jXb_12synap_server4core5queueNtB7_12QueueManager11list_queues0Bb_
FNDA:38,_RNCNvMs2_NtNtCsfrV5S290jXb_12synap_server4core5queueNtB7_12QueueManager12create_queue0Bb_
FNDA:4,_RNCNvMs2_NtNtCsfrV5S290jXb_12synap_server4core5queueNtB7_12QueueManager12delete_queue0Bb_
FNDA:4264,_RNCNvMs2_NtNtCsfrV5S290jXb_12synap_server4core5queueNtB7_12QueueManager3ack0Bb_
FNDA:0,_RNCNvMs2_NtNtCsfrV5S290jXb_12synap_server4core5queueNtB7_12QueueManager4dump0Bb_
FNDA:4,_RNCNvMs2_NtNtCsfrV5S290jXb_12synap_server4core5queueNtB7_12QueueManager4nack0Bb_
FNDA:2,_RNCNvMs2_NtNtCsfrV5S290jXb_12synap_server4core5queueNtB7_12QueueManager5purge0Bb_
FNDA:6,_RNCNvMs2_NtNtCsfrV5S290jXb_12synap_server4core5queueNtB7_12QueueManager5stats0Bb_
FNDA:4658,_RNCNvMs2_NtNtCsfrV5S290jXb_12synap_server4core5queueNtB7_12QueueManager7consume0Bb_
FNDA:4318,_RNCNvMs2_NtNtCsfrV5S290jXb_12synap_server4core5queueNtB7_12QueueManager7publish0Bb_
FNDA:8624,_RNCNvNtNtCsfrV5S290jXb_12synap_server4core5queue17current_timestamp0B7_
FNDA:100,_RNCNCNvNtNtNtCsfrV5S290jXb_12synap_server4core5queue5testss_33test_high_concurrency_stress_test00Bb_
FNDA:10,_RNCNCNvNtNtNtCsfrV5S290jXb_12synap_server4core5queue5testss_35test_concurrent_publish_and_consume00Bb_
FNDA:20,_RNCNCNvNtNtNtCsfrV5S290jXb_12synap_server4core5queue5testss_35test_concurrent_publish_and_consume0s_0Bb_
FNDA:40,_RNCNCNvNtNtNtCsfrV5S290jXb_12synap_server4core5queue5testss_37test_no_message_loss_under_contention00Bb_
FNDA:20,_RNCNCNvNtNtNtCsfrV5S290jXb_12synap_server4core5queue5testss_39test_concurrent_consumers_no_duplicates00Bb_
FNDA:10,_RNCNCNvNtNtNtCsfrV5S290jXb_12synap_server4core5queue5testss_39test_priority_with_concurrent_consumers00Bb_
FNDA:60,_RNCNCNvNtNtNtCsfrV5S290jXb_12synap_server4core5queue5testss_39test_priority_with_concurrent_consumers0s1_0Bb_
FNDA:60,_RNCNCNvNtNtNtCsfrV5S290jXb_12synap_server4core5queue5testss_39test_priority_with_concurrent_consumers0s_0Bb_
FNDA:2,_RNCNvNtNtNtCsfrV5S290jXb_12synap_server4core5queue5testss_16test_list_queues0B9_
FNDA:2,_RNCNvNtNtNtCsfrV5S290jXb_12synap_server4core5queue5testss_16test_queue_purge0B9_
FNDA:2,_RNCNvNtNtNtCsfrV5S290jXb_12synap_server4core5queue5testss_16test_queue_stats0B9_
FNDA:2,_RNCNvNtNtNtCsfrV5S290jXb_12synap_server4core5queue5testss_17test_delete_queue0B9_
FNDA:2,_RNCNvNtNtNtCsfrV5S290jXb_12synap_server4core5queue5testss_19test_queue_ack_nack0B9_
FNDA:2,_RNCNvNtNtNtCsfrV5S290jXb_12synap_server4core5queue5testss_19test_queue_priority0B9_
FNDA:2,_RNCNvNtNtNtCsfrV5S290jXb_12synap_server4core5queue5testss_22test_queue_dead_letter0B9_
FNDA:2,_RNCNvNtNtNtCsfrV5S290jXb_12synap_server4core5queue5testss_23test_queue_nack_requeue0B9_
FNDA:2,_RNCNvNtNtNtCsfrV5S290jXb_12synap_server4core5queue5testss_26test_queue_publish_consume0B9_
FNDA:2,_RNCNvNtNtNtCsfrV5S290jXb_12synap_server4core5queue5testss_33test_high_concurrency_stress_test0B9_
FNDA:2,_RNCNvNtNtNtCsfrV5S290jXb_12synap_server4core5queue5testss_35test_concurrent_publish_and_consume0B9_
FNDA:2,_RNCNvNtNtNtCsfrV5S290jXb_12synap_server4core5queue5testss_37test_no_message_loss_under_contention0B9_
FNDA:2,_RNCNvNtNtNtCsfrV5S290jXb_12synap_server4core5queue5testss_39test_concurrent_consumers_no_duplicates0B9_
FNDA:2,_RNCNvNtNtNtCsfrV5S290jXb_12synap_server4core5queue5testss_39test_priority_with_concurrent_consumers0B9_
FNF:87
FNH:75
DA:43,20
DA:44,20
DA:45,20
DA:46,20
DA:47,20
DA:48,20
DA:50,20
DA:51,20
DA:53,20
DA:54,20
DA:55,20
DA:57,20
DA:58,20
DA:59,20
DA:61,8660
DA:62,8660
DA:63,8660
DA:64,8660
DA:65,8660
DA:66,8660
DA:70,4342
DA:71,4342
DA:72,4342
DA:73,4342
DA:74,4342
DA:75,4342
DA:76,4342
DA:77,4342
DA:78,4342
DA:79,4342
DA:80,4342
DA:83,6
DA:84,6
DA:85,6
DA:88,6
DA:89,6
DA:90,6
DA:104,4298
DA:105,4298
DA:106,4298
DA:107,4298
DA:108,4298
DA:109,4298
DA:110,4298
DA:111,4298
DA:113,0
DA:114,0
DA:115,0
DA:132,82
DA:133,82
DA:134,82
DA:135,82
DA:136,82
DA:137,82
DA:138,82
DA:139,82
DA:166,106
DA:167,106
DA:168,106
DA:169,106
DA:170,106
DA:171,106
DA:172,106
DA:173,106
DA:174,106
DA:175,106
DA:178,4342
DA:179,4342
DA:180,1
DA:181,4341
DA:183,4341
DA:184,4341
DA:187,4341
DA:188,4341
DA:189,4341
DA:190,1508678
DA:191,4341
DA:193,4341
DA:194,4341
DA:195,4341
DA:197,4341
DA:198,4342
DA:201,4671
DA:202,4671
DA:203,4298
DA:206,4298
DA:207,4298
DA:208,4298
DA:209,4298
DA:210,4298
DA:211,4298
DA:215,4298
DA:216,4298
DA:217,4298
DA:220,4298
DA:222,373
DA:224,4671
DA:227,4272
DA:228,4272
DA:229,4268
DA:230,4268
DA:232,4
DA:234,4272
DA:237,6
DA:238,6
DA:240,6
DA:241,6
DA:243,6
DA:246,6
DA:249,6
DA:251,2
DA:252,0
DA:255,2
DA:256,2
DA:257,4
DA:259,4
DA:260,0
DA:263,4
DA:264,4
DA:265,0
DA:267,6
DA:269,0
DA:271,6
DA:274,0
DA:275,0
DA:276,0
DA:277,0
DA:278,0
DA:279,0
DA:280,0
DA:282,0
DA:283,0
DA:284,0
DA:286,0
DA:298,84
DA:299,84
DA:300,84
DA:301,84
DA:302,84
DA:303,84
DA:304,84
DA:307,0
DA:308,0
DA:310,0
DA:311,0
DA:314,0
DA:316,0
DA:317,0
DA:318,0
DA:319,0
DA:322,0
DA:325,108
DA:326,108
DA:328,108
DA:329,108
DA:331,108
DA:332,108
DA:333,108
DA:335,108
DA:336,108
DA:339,4344
DA:340,4344
DA:341,4344
DA:342,4344
DA:343,4344
DA:344,4344
DA:345,4344
DA:346,4344
DA:348,4344
DA:349,4344
DA:350,4344
DA:351,4344
DA:353,4342
DA:355,4342
DA:357,4342
DA:358,4342
DA:359,4344
DA:362,4672
DA:363,4672
DA:364,4672
DA:365,4672
DA:366,4672
DA:367,4672
DA:369,4672
DA:370,4672
DA:371,4672
DA:372,4672
DA:374,4671
DA:375,4672
DA:378,4272
DA:379,4272
DA:381,4272
DA:382,4272
DA:383,4272
DA:384,4272
DA:386,4272
DA:387,4272
DA:390,6
DA:391,6
DA:392,0
DA:396,6
DA:397,6
DA:398,6
DA:399,6
DA:401,6
DA:402,6
DA:405,10
DA:406,10
DA:407,10
DA:408,10
DA:409,10
DA:411,9
DA:412,10
DA:415,4
DA:416,4
DA:417,4
DA:418,4
DA:421,3
DA:422,3
DA:424,3
DA:425,3
DA:426,3
DA:427,3
DA:429,3
DA:430,3
DA:431,3
DA:433,3
DA:434,3
DA:437,6
DA:438,6
DA:440,6
DA:441,6
DA:442,6
DA:445,0
DA:446,0
DA:447,0
DA:449,0
DA:450,0
DA:452,0
DA:454,0
DA:457,0
DA:458,0
DA:466,2
DA:467,2
DA:468,2
DA:471,2
DA:472,2
DA:473,2
DA:474,2
DA:476,2
DA:479,2
DA:480,2
DA:481,2
DA:482,2
DA:485,2
DA:486,2
DA:487,2
DA:490,2
DA:491,2
DA:492,2
DA:493,2
DA:494,2
DA:495,2
DA:496,2
DA:497,2
DA:498,2
DA:499,2
DA:500,2
DA:501,2
DA:504,2
DA:505,2
DA:506,2
DA:507,2
DA:508,2
DA:509,2
DA:510,2
DA:512,2
DA:513,2
DA:514,2
DA:515,2
DA:516,2
DA:517,2
DA:518,2
DA:520,2
DA:521,2
DA:522,2
DA:523,2
DA:524,2
DA:525,2
DA:526,2
DA:527,2
DA:530,2
DA:531,2
DA:532,2
DA:535,2
DA:536,2
DA:537,2
DA:538,2
DA:541,2
DA:542,2
DA:545,2
DA:546,2
DA:549,2
DA:550,2
DA:551,2
DA:554,2
DA:555,2
DA:556,2
DA:559,2
DA:560,2
DA:561,2
DA:562,2
DA:565,2
DA:568,2
DA:571,2
DA:572,2
DA:573,2
DA:574,2
DA:577,2
DA:578,2
DA:579,2
DA:582,2
DA:583,2
DA:584,2
DA:585,2
DA:588,2
DA:589,2
DA:592,2
DA:595,2
DA:596,2
DA:597,2
DA:598,2
DA:601,2
DA:602,2
DA:603,2
DA:606,2
DA:607,2
DA:608,2
DA:611,12
DA:612,10
DA:613,10
DA:614,10
DA:615,10
DA:618,2
DA:619,2
DA:620,2
DA:621,2
DA:624,2
DA:625,2
DA:626,2
DA:629,22
DA:630,20
DA:631,20
DA:632,20
DA:633,20
DA:637,2
DA:638,2
DA:641,2
DA:642,2
DA:643,2
DA:646,2
DA:647,2
DA:649,2
DA:650,2
DA:651,2
DA:653,2
DA:654,2
DA:655,2
DA:656,2
DA:657,2
DA:658,2
DA:661,2
DA:662,2
DA:663,2
DA:665,2
DA:666,2
DA:668,2
DA:669,2
DA:670,2
DA:677,2
DA:682,2
DA:683,2
DA:684,2
DA:685,2
DA:686,2
DA:689,2
DA:690,200
DA:691,200
DA:692,200
DA:693,200
DA:694,200
DA:695,200
DA:696,200
DA:697,200
DA:698,200
DA:699,200
DA:703,2
DA:704,2
DA:707,22
DA:708,20
DA:709,20
DA:711,20
DA:712,20
DA:716,220
DA:717,220
DA:718,220
DA:720,200
DA:721,200
DA:722,200
DA:725,200
DA:726,200
DA:727,0
DA:732,200
DA:733,200
DA:736,200
DA:737,200
DA:738,200
DA:739,200
DA:743,20
DA:745,0
DA:746,0
DA:750,20
DA:752,20
DA:756,22
DA:757,20
DA:761,2
DA:762,2
DA:763,2
DA:764,2
DA:765,2
DA:766,2
DA:767,2
DA:768,2
DA:769,2
DA:772,2
DA:776,2
DA:777,2
DA:780,2
DA:781,2000
DA:782,2000
DA:783,2000
DA:784,2000
DA:785,2000
DA:786,2000
DA:787,2000
DA:788,2000
DA:789,2000
DA:790,2000
DA:794,2
DA:795,2
DA:798,102
DA:799,100
DA:800,100
DA:802,100
DA:803,100
DA:804,100
DA:807,2100
DA:808,2000
DA:809,2000
DA:810,2000
DA:813,2000
DA:816,100
DA:818,0
DA:819,0
DA:824,100
DA:825,100
DA:827,100
DA:831,2
DA:832,102
DA:833,100
DA:834,100
DA:838,2
DA:839,2
DA:841,0
DA:844,2
DA:845,2
DA:846,2
DA:847,2
DA:848,2
DA:849,2
DA:852,2
DA:856,2
DA:857,2
DA:859,2
DA:860,2
DA:862,2
DA:865,12
DA:866,10
DA:867,10
DA:869,10
DA:870,1010
DA:871,1000
DA:872,1000
DA:873,1000
DA:874,1000
DA:875,1000
DA:876,1000
DA:878,10
DA:880,10
DA:884,22
DA:885,20
DA:886,20
DA:888,20
DA:889,20
DA:892,20
DA:893,1220
DA:894,1200
DA:895,1000
DA:896,1000
DA:897,1000
DA:898,1000
DA:901,200
DA:902,200
DA:904,0
DA:905,0
DA:909,20
DA:911,20
DA:915,32
DA:916,30
DA:920,2
DA:922,2
DA:923,2
DA:925,2
DA:926,2
DA:927,2
DA:930,2
DA:935,2
DA:936,2
DA:939,2
DA:940,2
DA:942,1000
DA:943,1000
DA:944,1000
DA:945,1000
DA:946,1000
DA:947,1000
DA:948,1000
DA:952,2
DA:953,2
DA:956,42
DA:957,40
DA:958,40
DA:960,40
DA:961,40
DA:964,1040
DA:965,1000
DA:966,1000
DA:968,1000
DA:971,1000
DA:972,0
DA:973,1000
DA:975,1000
DA:976,1000
DA:979,1000
DA:981,40
DA:982,0
DA:985,40
DA:987,40
DA:991,42
DA:992,40
DA:996,2
DA:998,2
DA:999,2
DA:1001,0
DA:1003,0
DA:1007,1002
DA:1008,1000
DA:1009,1000
DA:1010,2
DA:1011,2
DA:1012,2
DA:1013,2
DA:1014,2
DA:1017,2
DA:1020,2
DA:1021,2
DA:1022,2
DA:1023,2
DA:1024,2
DA:1027,62
DA:1028,60
DA:1029,20
DA:1030,20
DA:1031,20
DA:1033,60
DA:1034,60
DA:1035,60
DA:1036,60
DA:1037,60
DA:1038,60
DA:1039,60
DA:1040,60
DA:1041,60
DA:1044,2
DA:1045,2
DA:1048,12
DA:1049,10
DA:1051,10
DA:1052,10
DA:1053,10
DA:1056,70
DA:1057,70
DA:1058,70
DA:1060,60
DA:1061,60
DA:1062,60
DA:1063,60
DA:1064,60
DA:1065,60
DA:1066,60
DA:1067,60
DA:1068,60
DA:1070,10
DA:1071,0
DA:1075,10
DA:1076,10
DA:1078,10
DA:1082,2
DA:1083,12
DA:1084,10
DA:1085,10
DA:1089,2
DA:1090,2
DA:1092,0
DA:1096,2
DA:1097,2
DA:1098,2
DA:1099,60
DA:1100,2
DA:1101,2
DA:1103,2
DA:1104,2
DA:1105,2
DA:1106,60
DA:1107,2
DA:1108,2
DA:1111,2
DA:1112,2
DA:1113,2
DA:1114,2
DA:1115,2
DA:1116,2
DA:1117,2
DA:1118,2
DA:1119,2
DA:1120,2
DA:1121,2
DA:1122,2
DA:1123,2
DA:1124,2
BRF:0
BRH:0
LF:725
LH:659
end_of_record
SF:/mnt/f/Node/hivellm/synap/synap-server/src/core/stream.rs
FN:345,_RNCNvMs1_NtNtCsitBd8PkZ0O7_12synap_server4core6streamNtB7_13StreamManager12restore_room0Bb_
FN:304,_RNCNCNvMs1_NtNtCsitBd8PkZ0O7_12synap_server4core6streamNtB9_13StreamManager10room_stats00Bd_
FN:305,_RNCNCNvMs1_NtNtCsitBd8PkZ0O7_12synap_server4core6streamNtB9_13StreamManager10room_stats0s_0Bd_
FN:293,_RNCNCNvMs1_NtNtCsitBd8PkZ0O7_12synap_server4core6streamNtB9_13StreamManager7consume00Bd_
FN:273,_RNCNCNvMs1_NtNtCsitBd8PkZ0O7_12synap_server4core6streamNtB9_13StreamManager7publish00Bd_
FN:218,_RNCNvMs0_NtNtCsitBd8PkZ0O7_12synap_server4core6streamNtB7_4Room7compact0Bb_
FN:174,_RNCNvMs0_NtNtCsitBd8PkZ0O7_12synap_server4core6streamNtB7_4Room7consume0Bb_
FN:186,_RNCNvMs0_NtNtCsitBd8PkZ0O7_12synap_server4core6streamNtB7_4Room7consumes0_0Bb_
FN:180,_RNCNvMs0_NtNtCsitBd8PkZ0O7_12synap_server4core6streamNtB7_4Room7consumes_0Bb_
FN:309,_RNCNvMs1_NtNtCsitBd8PkZ0O7_12synap_server4core6streamNtB7_13StreamManager10list_rooms0Bb_
FN:299,_RNCNvMs1_NtNtCsitBd8PkZ0O7_12synap_server4core6streamNtB7_13StreamManager10room_stats0Bb_
FN:247,_RNCNvMs1_NtNtCsitBd8PkZ0O7_12synap_server4core6streamNtB7_13StreamManager11create_room0Bb_
FN:315,_RNCNvMs1_NtNtCsitBd8PkZ0O7_12synap_server4core6streamNtB7_13StreamManager11delete_room0Bb_
FN:326,_RNCNvMs1_NtNtCsitBd8PkZ0O7_12synap_server4core6streamNtB7_13StreamManager14get_all_events0Bb_
FN:365,_RNCNvMs1_NtNtCsitBd8PkZ0O7_12synap_server4core6streamNtB7_13StreamManager21start_compaction_task0Bb_
FN:288,_RNCNvMs1_NtNtCsitBd8PkZ0O7_12synap_server4core6streamNtB7_13StreamManager7consume0Bb_
FN:268,_RNCNvMs1_NtNtCsitBd8PkZ0O7_12synap_server4core6streamNtB7_13StreamManager7publish0Bb_
FN:124,_RNvMs0_NtNtCsitBd8PkZ0O7_12synap_server4core6streamNtB5_4Room3new
FN:201,_RNvMs0_NtNtCsitBd8PkZ0O7_12synap_server4core6streamNtB5_4Room5stats
FN:206,_RNvMs0_NtNtCsitBd8PkZ0O7_12synap_server4core6streamNtB5_4Room7compact
FN:169,_RNvMs0_NtNtCsitBd8PkZ0O7_12synap_server4core6streamNtB5_4Room7consume
FN:145,_RNvMs0_NtNtCsitBd8PkZ0O7_12synap_server4core6streamNtB5_4Room7publish
FN:309,_RNvMs1_NtNtCsitBd8PkZ0O7_12synap_server4core6streamNtB5_13StreamManager10list_rooms
FN:299,_RNvMs1_NtNtCsitBd8PkZ0O7_12synap_server4core6streamNtB5_13StreamManager10room_stats
FN:247,_RNvMs1_NtNtCsitBd8PkZ0O7_12synap_server4core6streamNtB5_13StreamManager11create_room
FN:315,_RNvMs1_NtNtCsitBd8PkZ0O7_12synap_server4core6streamNtB5_13StreamManager11delete_room
FN:341,_RNvMs1_NtNtCsitBd8PkZ0O7_12synap_server4core6streamNtB5_13StreamManager12restore_room
FN:326,_RNvMs1_NtNtCsitBd8PkZ0O7_12synap_server4core6streamNtB5_13StreamManager14get_all_events
FN:358,_RNvMs1_NtNtCsitBd8PkZ0O7_12synap_server4core6streamNtB5_13StreamManager21start_compaction_task
FN:239,_RNvMs1_NtNtCsitBd8PkZ0O7_12synap_server4core6streamNtB5_13StreamManager3new
FN:282,_RNvMs1_NtNtCsitBd8PkZ0O7_12synap_server4core6streamNtB5_13StreamManager7consume
FN:263,_RNvMs1_NtNtCsitBd8PkZ0O7_12synap_server4core6streamNtB5_13StreamManager7publish
FN:61,_RNvMs_NtNtCsitBd8PkZ0O7_12synap_server4core6streamNtB4_11StreamEvent3new
FN:29,_RNvXNtNtCsitBd8PkZ0O7_12synap_server4core6streamNtB2_12StreamConfigNtNtCsluXpZPV6FGj_4core7default7Default7default
FN:304,_RNCNCNvMs1_NtNtCsfrV5S290jXb_12synap_server4core6streamNtB9_13StreamManager10room_stats00Bd_
FN:305,_RNCNCNvMs1_NtNtCsfrV5S290jXb_12synap_server4core6streamNtB9_13StreamManager10room_stats0s_0Bd_
FN:293,_RNCNCNvMs1_NtNtCsfrV5S290jXb_12synap_server4core6streamNtB9_13StreamManager7consume00Bd_
FN:273,_RNCNCNvMs1_NtNtCsfrV5S290jXb_12synap_server4core6streamNtB9_13StreamManager7publish00Bd_
FN:174,_RNCNvMs0_NtNtCsfrV5S290jXb_12synap_server4core6streamNtB7_4Room7consume0Bb_
FN:186,_RNCNvMs0_NtNtCsfrV5S290jXb_12synap_server4core6streamNtB7_4Room7consumes0_0Bb_
FN:180,_RNCNvMs0_NtNtCsfrV5S290jXb_12synap_server4core6streamNtB7_4Room7consumes_0Bb_
FN:309,_RNCNvMs1_NtNtCsfrV5S290jXb_12synap_server4core6streamNtB7_13StreamManager10list_rooms0Bb_
FN:299,_RNCNvMs1_NtNtCsfrV5S290jXb_12synap_server4core6streamNtB7_13StreamManager10room_stats0Bb_
FN:247,_RNCNvMs1_NtNtCsfrV5S290jXb_12synap_server4core6streamNtB7_13StreamManager11create_room0Bb_
FN:315,_RNCNvMs1_NtNtCsfrV5S290jXb_12synap_server4core6streamNtB7_13StreamManager11delete_room0Bb_
FN:326,_RNCNvMs1_NtNtCsfrV5S290jXb_12synap_server4core6streamNtB7_13StreamManager14get_all_events0Bb_
FN:288,_RNCNvMs1_NtNtCsfrV5S290jXb_12synap_server4core6streamNtB7_13StreamManager7consume0Bb_
FN:268,_RNCNvMs1_NtNtCsfrV5S290jXb_12synap_server4core6streamNtB7_13StreamManager7publish0Bb_
FN:124,_RNvMs0_NtNtCsfrV5S290jXb_12synap_server4core6streamNtB5_4Room3new
FN:201,_RNvMs0_NtNtCsfrV5S290jXb_12synap_server4core6streamNtB5_4Room5stats
FN:169,_RNvMs0_NtNtCsfrV5S290jXb_12synap_server4core6streamNtB5_4Room7consume
FN:145,_RNvMs0_NtNtCsfrV5S290jXb_12synap_server4core6streamNtB5_4Room7publish
FN:309,_RNvMs1_NtNtCsfrV5S290jXb_12synap_server4core6streamNtB5_13StreamManager10list_rooms
FN:299,_RNvMs1_NtNtCsfrV5S290jXb_12synap_server4core6streamNtB5_13StreamManager10room_stats
FN:247,_RNvMs1_NtNtCsfrV5S290jXb_12synap_server4core6streamNtB5_13StreamManager11create_room
FN:315,_RNvMs1_NtNtCsfrV5S290jXb_12synap_server4core6streamNtB5_13StreamManager11delete_room
FN:326,_RNvMs1_NtNtCsfrV5S290jXb_12synap_server4core6streamNtB5_13StreamManager14get_all_events
FN:239,_RNvMs1_NtNtCsfrV5S290jXb_12synap_server4core6streamNtB5_13StreamManager3new
FN:282,_RNvMs1_NtNtCsfrV5S290jXb_12synap_server4core6streamNtB5_13StreamManager7consume
FN:263,_RNvMs1_NtNtCsfrV5S290jXb_12synap_server4core6streamNtB5_13StreamManager7publish
FN:61,_RNvMs_NtNtCsfrV5S290jXb_12synap_server4core6streamNtB4_11StreamEvent3new
FN:29,_RNvXNtNtCsfrV5S290jXb_12synap_server4core6streamNtB2_12StreamConfigNtNtCsluXpZPV6FGj_4core7default7Default7default
FN:218,_RNCNvMs0_NtNtCsfrV5S290jXb_12synap_server4core6streamNtB7_4Room7compact0Bb_
FN:345,_RNCNvMs1_NtNtCsfrV5S290jXb_12synap_server4core6streamNtB7_13StreamManager12restore_room0Bb_
FN:365,_RNCNvMs1_NtNtCsfrV5S290jXb_12synap_server4core6streamNtB7_13StreamManager21start_compaction_task0Bb_
FN:206,_RNvMs0_NtNtCsfrV5S290jXb_12synap_server4core6streamNtB5_4Room7compact
FN:341,_RNvMs1_NtNtCsfrV5S290jXb_12synap_server4core6streamNtB5_13StreamManager12restore_room
FN:358,_RNvMs1_NtNtCsfrV5S290jXb_12synap_server4core6streamNtB5_13StreamManager21start_compaction_task
FN:386,_RNvNtNtNtCsfrV5S290jXb_12synap_server4core6stream5testss_23test_stream_create_room
FN:424,_RNvNtNtNtCsfrV5S290jXb_12synap_server4core6stream5testss_27test_stream_offset_tracking
FN:397,_RNvNtNtNtCsfrV5S290jXb_12synap_server4core6stream5testss_27test_stream_publish_consume
FN:474,_RNvNtNtNtCsfrV5S290jXb_12synap_server4core6stream5testss_32test_stream_multiple_subscribers
FN:448,_RNvNtNtNtCsfrV5S290jXb_12synap_server4core6stream5testss_32test_stream_ring_buffer_overflow
FN:386,_RNCNvNtNtNtCsfrV5S290jXb_12synap_server4core6stream5testss_23test_stream_create_room0B9_
FN:424,_RNCNvNtNtNtCsfrV5S290jXb_12synap_server4core6stream5testss_27test_stream_offset_tracking0B9_
FN:397,_RNCNvNtNtNtCsfrV5S290jXb_12synap_server4core6stream5testss_27test_stream_publish_consume0B9_
FN:474,_RNCNvNtNtNtCsfrV5S290jXb_12synap_server4core6stream5testss_32test_stream_multiple_subscribers0B9_
FN:448,_RNCNvNtNtNtCsfrV5S290jXb_12synap_server4core6stream5testss_32test_stream_ring_buffer_overflow0B9_
FNDA:0,_RNCNvMs1_NtNtCsitBd8PkZ0O7_12synap_server4core6streamNtB7_13StreamManager12restore_room0Bb_
FNDA:1,_RNCNCNvMs1_NtNtCsitBd8PkZ0O7_12synap_server4core6streamNtB9_13StreamManager10room_stats00Bd_
FNDA:1,_RNCNCNvMs1_NtNtCsitBd8PkZ0O7_12synap_server4core6streamNtB9_13StreamManager10room_stats0s_0Bd_
FNDA:0,_RNCNCNvMs1_NtNtCsitBd8PkZ0O7_12synap_server4core6streamNtB9_13StreamManager7consume00Bd_
FNDA:1,_RNCNCNvMs1_NtNtCsitBd8PkZ0O7_12synap_server4core6streamNtB9_13StreamManager7publish00Bd_
FNDA:0,_RNCNvMs0_NtNtCsitBd8PkZ0O7_12synap_server4core6streamNtB7_4Room7compact0Bb_
FNDA:294,_RNCNvMs0_NtNtCsitBd8PkZ0O7_12synap_server4core6streamNtB7_4Room7consume0Bb_
FNDA:19,_RNCNvMs0_NtNtCsitBd8PkZ0O7_12synap_server4core6streamNtB7_4Room7consumes0_0Bb_
FNDA:19,_RNCNvMs0_NtNtCsitBd8PkZ0O7_12synap_server4core6streamNtB7_4Room7consumes_0Bb_
FNDA:5,_RNCNvMs1_NtNtCsitBd8PkZ0O7_12synap_server4core6streamNtB7_13StreamManager10list_rooms0Bb_
FNDA:2,_RNCNvMs1_NtNtCsitBd8PkZ0O7_12synap_server4core6streamNtB7_13StreamManager10room_stats0Bb_
FNDA:256,_RNCNvMs1_NtNtCsitBd8PkZ0O7_12synap_server4core6streamNtB7_13StreamManager11create_room0Bb_
FNDA:1,_RNCNvMs1_NtNtCsitBd8PkZ0O7_12synap_server4core6streamNtB7_13StreamManager11delete_room0Bb_
FNDA:5,_RNCNvMs1_NtNtCsitBd8PkZ0O7_12synap_server4core6streamNtB7_13StreamManager14get_all_events0Bb_
FNDA:16,_RNCNvMs1_NtNtCsitBd8PkZ0O7_12synap_server4core6streamNtB7_13StreamManager21start_compaction_task0Bb_
FNDA:19,_RNCNvMs1_NtNtCsitBd8PkZ0O7_12synap_server4core6streamNtB7_13StreamManager7consume0Bb_
FNDA:529,_RNCNvMs1_NtNtCsitBd8PkZ0O7_12synap_server4core6streamNtB7_13StreamManager7publish0Bb_
FNDA:36,_RNvMs0_NtNtCsitBd8PkZ0O7_12synap_server4core6streamNtB5_4Room3new
FNDA:1,_RNvMs0_NtNtCsitBd8PkZ0O7_12synap_server4core6streamNtB5_4Room5stats
FNDA:0,_RNvMs0_NtNtCsitBd8PkZ0O7_12synap_server4core6streamNtB5_4Room7compact
FNDA:19,_RNvMs0_NtNtCsitBd8PkZ0O7_12synap_server4core6streamNtB5_4Room7consume
FNDA:528,_RNvMs0_NtNtCsitBd8PkZ0O7_12synap_server4core6streamNtB5_4Room7publish
FNDA:5,_RNvMs1_NtNtCsitBd8PkZ0O7_12synap_server4core6streamNtB5_13StreamManager10list_rooms
FNDA:2,_RNvMs1_NtNtCsitBd8PkZ0O7_12synap_server4core6streamNtB5_13StreamManager10room_stats
FNDA:256,_RNvMs1_NtNtCsitBd8PkZ0O7_12synap_server4core6streamNtB5_13StreamManager11create_room
FNDA:1,_RNvMs1_NtNtCsitBd8PkZ0O7_12synap_server4core6streamNtB5_13StreamManager11delete_room
FNDA:0,_RNvMs1_NtNtCsitBd8PkZ0O7_12synap_server4core6streamNtB5_13StreamManager12restore_room
FNDA:5,_RNvMs1_NtNtCsitBd8PkZ0O7_12synap_server4core6streamNtB5_13StreamManager14get_all_events
FNDA:16,_RNvMs1_NtNtCsitBd8PkZ0O7_12synap_server4core6streamNtB5_13StreamManager21start_compaction_task
FNDA:26,_RNvMs1_NtNtCsitBd8PkZ0O7_12synap_server4core6streamNtB5_13StreamManager3new
FNDA:19,_RNvMs1_NtNtCsitBd8PkZ0O7_12synap_server4core6streamNtB5_13StreamManager7consume
FNDA:529,_RNvMs1_NtNtCsitBd8PkZ0O7_12synap_server4core6streamNtB5_13StreamManager7publish
FNDA:528,_RNvMs_NtNtCsitBd8PkZ0O7_12synap_server4core6streamNtB4_11StreamEvent3new
FNDA:26,_RNvXNtNtCsitBd8PkZ0O7_12synap_server4core6streamNtB2_12StreamConfigNtNtCsluXpZPV6FGj_4core7default7Default7default
FNDA:4,_RNCNCNvMs1_NtNtCsfrV5S290jXb_12synap_server4core6streamNtB9_13StreamManager10room_stats00Bd_
FNDA:0,_RNCNCNvMs1_NtNtCsfrV5S290jXb_12synap_server4core6streamNtB9_13StreamManager10room_stats0s_0Bd_
FNDA:0,_RNCNCNvMs1_NtNtCsfrV5S290jXb_12synap_server4core6streamNtB9_13StreamManager7consume00Bd_
FNDA:0,_RNCNCNvMs1_NtNtCsfrV5S290jXb_12synap_server4core6streamNtB9_13StreamManager7publish00Bd_
FNDA:64,_RNCNvMs0_NtNtCsfrV5S290jXb_12synap_server4core6streamNtB7_4Room7consume0Bb_
FNDA:14,_RNCNvMs0_NtNtCsfrV5S290jXb_12synap_server4core6streamNtB7_4Room7consumes0_0Bb_
FNDA:12,_RNCNvMs0_NtNtCsfrV5S290jXb_12synap_server4core6streamNtB7_4Room7consumes_0Bb_
FNDA:2,_RNCNvMs1_NtNtCsfrV5S290jXb_12synap_server4core6streamNtB7_13StreamManager10list_rooms0Bb_
FNDA:4,_RNCNvMs1_NtNtCsfrV5S290jXb_12synap_server4core6streamNtB7_13StreamManager10room_stats0Bb_
FNDA:10,_RNCNvMs1_NtNtCsfrV5S290jXb_12synap_server4core6streamNtB7_13StreamManager11create_room0Bb_
FNDA:0,_RNCNvMs1_NtNtCsfrV5S290jXb_12synap_server4core6streamNtB7_13StreamManager11delete_room0Bb_
FNDA:0,_RNCNvMs1_NtNtCsfrV5S290jXb_12synap_server4core6streamNtB7_13StreamManager14get_all_events0Bb_
FNDA:14,_RNCNvMs1_NtNtCsfrV5S290jXb_12synap_server4core6streamNtB7_13StreamManager7consume0Bb_
FNDA:44,_RNCNvMs1_NtNtCsfrV5S290jXb_12synap_server4core6streamNtB7_13StreamManager7publish0Bb_
FNDA:10,_RNvMs0_NtNtCsfrV5S290jXb_12synap_server4core6streamNtB5_4Room3new
FNDA:4,_RNvMs0_NtNtCsfrV5S290jXb_12synap_server4core6streamNtB5_4Room5stats
FNDA:14,_RNvMs0_NtNtCsfrV5S290jXb_12synap_server4core6streamNtB5_4Room7consume
FNDA:44,_RNvMs0_NtNtCsfrV5S290jXb_12synap_server4core6streamNtB5_4Room7publish
FNDA:2,_RNvMs1_NtNtCsfrV5S290jXb_12synap_server4core6streamNtB5_13StreamManager10list_rooms
FNDA:4,_RNvMs1_NtNtCsfrV5S290jXb_12synap_server4core6streamNtB5_13StreamManager10room_stats
FNDA:10,_RNvMs1_NtNtCsfrV5S290jXb_12synap_server4core6streamNtB5_13StreamManager11create_room
FNDA:0,_RNvMs1_NtNtCsfrV5S290jXb_12synap_server4core6streamNtB5_13StreamManager11delete_room
FNDA:0,_RNvMs1_NtNtCsfrV5S290jXb_12synap_server4core6streamNtB5_13StreamManager14get_all_events
FNDA:10,_RNvMs1_NtNtCsfrV5S290jXb_12synap_server4core6streamNtB5_13StreamManager3new
FNDA:14,_RNvMs1_NtNtCsfrV5S290jXb_12synap_server4core6streamNtB5_13StreamManager7consume
FNDA:44,_RNvMs1_NtNtCsfrV5S290jXb_12synap_server4core6streamNtB5_13StreamManager7publish
FNDA:44,_RNvMs_NtNtCsfrV5S290jXb_12synap_server4core6streamNtB4_11StreamEvent3new
FNDA:10,_RNvXNtNtCsfrV5S290jXb_12synap_server4core6streamNtB2_12StreamConfigNtNtCsluXpZPV6FGj_4core7default7Default7default
FNDA:0,_RNCNvMs0_NtNtCsfrV5S290jXb_12synap_server4core6streamNtB7_4Room7compact0Bb_
FNDA:0,_RNCNvMs1_NtNtCsfrV5S290jXb_12synap_server4core6streamNtB7_13StreamManager12restore_room0Bb_
FNDA:0,_RNCNvMs1_NtNtCsfrV5S290jXb_12synap_server4core6streamNtB7_13StreamManager21start_compaction_task0Bb_
FNDA:0,_RNvMs0_NtNtCsfrV5S290jXb_12synap_server4core6streamNtB5_4Room7compact
FNDA:0,_RNvMs1_NtNtCsfrV5S290jXb_12synap_server4core6streamNtB5_13StreamManager12restore_room
FNDA:0,_RNvMs1_NtNtCsfrV5S290jXb_12synap_server4core6streamNtB5_13StreamManager21start_compaction_task
FNDA:2,_RNvNtNtNtCsfrV5S290jXb_12synap_server4core6stream5testss_23test_stream_create_room
FNDA:2,_RNvNtNtNtCsfrV5S290jXb_12synap_server4core6stream5testss_27test_stream_offset_tracking
FNDA:2,_RNvNtNtNtCsfrV5S290jXb_12synap_server4core6stream5testss_27test_stream_publish_consume
FNDA:2,_RNvNtNtNtCsfrV5S290jXb_12synap_server4core6stream5testss_32test_stream_multiple_subscribers
FNDA:2,_RNvNtNtNtCsfrV5S290jXb_12synap_server4core6stream5testss_32test_stream_ring_buffer_overflow
FNDA:2,_RNCNvNtNtNtCsfrV5S290jXb_12synap_server4core6stream5testss_23test_stream_create_room0B9_
FNDA:2,_RNCNvNtNtNtCsfrV5S290jXb_12synap_server4core6stream5testss_27test_stream_offset_tracking0B9_
FNDA:2,_RNCNvNtNtNtCsfrV5S290jXb_12synap_server4core6stream5testss_27test_stream_publish_consume0B9_
FNDA:2,_RNCNvNtNtNtCsfrV5S290jXb_12synap_server4core6stream5testss_32test_stream_multiple_subscribers0B9_
FNDA:2,_RNCNvNtNtNtCsfrV5S290jXb_12synap_server4core6stream5testss_32test_stream_ring_buffer_overflow0B9_
FNF:44
FNH:39
DA:29,36
DA:30,36
DA:31,36
DA:32,36
DA:33,36
DA:34,36
DA:35,36
DA:36,36
DA:61,572
DA:62,572
DA:63,572
DA:64,572
DA:65,572
DA:66,572
DA:67,572
DA:68,572
DA:69,572
DA:70,572
DA:71,572
DA:72,572
DA:73,572
DA:74,572
DA:124,46
DA:125,46
DA:126,46
DA:127,46
DA:128,46
DA:129,46
DA:130,46
DA:131,46
DA:132,46
DA:133,46
DA:134,46
DA:135,46
DA:136,46
DA:137,46
DA:138,46
DA:139,46
DA:140,46
DA:141,46
DA:142,46
DA:145,572
DA:147,572
DA:148,572
DA:151,572
DA:152,572
DA:153,572
DA:154,572
DA:157,582
DA:158,10
DA:159,10
DA:160,10
DA:162,572
DA:163,572
DA:165,572
DA:166,572
DA:169,33
DA:171,33
DA:172,33
DA:173,33
DA:174,358
DA:175,33
DA:176,33
DA:177,33
DA:180,33
DA:182,33
DA:183,33
DA:184,33
DA:185,33
DA:186,33
DA:187,33
DA:188,33
DA:189,33
DA:191,33
DA:192,33
DA:194,33
DA:195,33
DA:197,33
DA:198,33
DA:201,5
DA:202,5
DA:203,5
DA:206,0
DA:207,0
DA:208,0
DA:209,0
DA:211,0
DA:212,0
DA:213,0
DA:214,0
DA:215,0
DA:217,0
DA:218,0
DA:220,0
DA:221,0
DA:222,0
DA:223,0
DA:224,0
DA:225,0
DA:226,0
DA:227,0
DA:239,36
DA:240,36
DA:241,36
DA:242,36
DA:243,36
DA:244,36
DA:247,266
DA:248,266
DA:250,266
DA:251,220
DA:252,46
DA:254,46
DA:255,46
DA:256,46
DA:257,46
DA:259,46
DA:260,266
DA:263,573
DA:264,573
DA:265,573
DA:266,573
DA:267,573
DA:268,573
DA:269,573
DA:271,573
DA:272,573
DA:273,573
DA:275,572
DA:276,572
DA:278,572
DA:279,573
DA:282,33
DA:283,33
DA:284,33
DA:285,33
DA:286,33
DA:287,33
DA:288,33
DA:289,33
DA:291,33
DA:292,33
DA:293,33
DA:295,33
DA:296,33
DA:299,6
DA:300,6
DA:302,6
DA:303,6
DA:304,6
DA:305,6
DA:306,6
DA:309,7
DA:310,7
DA:311,7
DA:312,7
DA:315,1
DA:316,1
DA:318,1
DA:319,1
DA:321,0
DA:323,1
DA:326,5
DA:327,5
DA:328,5
DA:330,9
DA:331,9
DA:332,9
DA:333,9
DA:334,9
DA:337,5
DA:338,5
DA:341,0
DA:342,0
DA:343,0
DA:344,0
DA:345,0
DA:347,0
DA:350,0
DA:351,0
DA:354,0
DA:355,0
DA:358,16
DA:359,16
DA:360,0
DA:361,16
DA:363,16
DA:365,16
DA:366,16
DA:367,16
DA:370,32
DA:372,16
DA:373,16
DA:374,0
DA:375,0
DA:378,16
DA:386,2
DA:387,2
DA:389,2
DA:391,2
DA:392,2
DA:393,2
DA:394,2
DA:397,2
DA:398,2
DA:399,2
DA:402,2
DA:403,2
DA:404,2
DA:405,2
DA:406,2
DA:407,2
DA:408,2
DA:409,2
DA:411,2
DA:412,2
DA:415,2
DA:416,2
DA:417,2
DA:418,2
DA:419,2
DA:420,2
DA:421,2
DA:424,2
DA:425,2
DA:426,2
DA:429,12
DA:430,10
DA:431,10
DA:432,10
DA:433,10
DA:437,2
DA:438,2
DA:439,2
DA:442,2
DA:443,2
DA:444,2
DA:445,2
DA:448,2
DA:449,2
DA:450,2
DA:452,2
DA:453,2
DA:456,22
DA:457,20
DA:461,2
DA:462,2
DA:463,2
DA:464,2
DA:467,2
DA:468,2
DA:469,2
DA:470,2
DA:471,2
DA:474,2
DA:475,2
DA:476,2
DA:479,12
DA:480,10
DA:481,10
DA:482,10
DA:483,10
DA:487,2
DA:488,2
DA:489,2
DA:491,2
DA:492,2
DA:493,2
DA:495,2
DA:496,2
DA:497,2
BRF:0
BRH:0
LF:297
LH:261
end_of_record
SF:/mnt/f/Node/hivellm/synap/synap-server/src/core/types.rs
FN:101,_RNvMNtNtCsitBd8PkZ0O7_12synap_server4core5typesNtB2_11StoredValue8data_mutB6_
FN:40,_RNCNvMNtNtCsitBd8PkZ0O7_12synap_server4core5typesNtB4_11StoredValue17current_timestamp0B8_
FN:46,_RNvMNtNtCsitBd8PkZ0O7_12synap_server4core5typesNtB2_11StoredValue10is_expiredB6_
FN:109,_RNvMNtNtCsitBd8PkZ0O7_12synap_server4core5typesNtB2_11StoredValue11last_access
FN:61,_RNvMNtNtCsitBd8PkZ0O7_12synap_server4core5typesNtB2_11StoredValue13ttl_remaining
FN:54,_RNvMNtNtCsitBd8PkZ0O7_12synap_server4core5typesNtB2_11StoredValue13update_access
FN:37,_RNvMNtNtCsitBd8PkZ0O7_12synap_server4core5typesNtB2_11StoredValue17current_timestampB6_
FN:76,_RNvMNtNtCsitBd8PkZ0O7_12synap_server4core5typesNtB2_11StoredValue18remaining_ttl_secs
FN:21,_RNvMNtNtCsitBd8PkZ0O7_12synap_server4core5typesNtB2_11StoredValue3new
FN:92,_RNvMNtNtCsitBd8PkZ0O7_12synap_server4core5typesNtB2_11StoredValue4dataB6_
FN:177,_RNvMs0_NtNtCsitBd8PkZ0O7_12synap_server4core5typesNtB5_7KVStats8hit_rate
FN:146,_RNvXs_NtNtCsitBd8PkZ0O7_12synap_server4core5typesNtB4_8KVConfigNtNtCsluXpZPV6FGj_4core7default7Default7default
FN:40,_RNCNvMNtNtCsfrV5S290jXb_12synap_server4core5typesNtB4_11StoredValue17current_timestamp0B8_
FN:46,_RNvMNtNtCsfrV5S290jXb_12synap_server4core5typesNtB2_11StoredValue10is_expiredB6_
FN:109,_RNvMNtNtCsfrV5S290jXb_12synap_server4core5typesNtB2_11StoredValue11last_access
FN:61,_RNvMNtNtCsfrV5S290jXb_12synap_server4core5typesNtB2_11StoredValue13ttl_remaining
FN:54,_RNvMNtNtCsfrV5S290jXb_12synap_server4core5typesNtB2_11StoredValue13update_access
FN:37,_RNvMNtNtCsfrV5S290jXb_12synap_server4core5typesNtB2_11StoredValue17current_timestampB6_
FN:76,_RNvMNtNtCsfrV5S290jXb_12synap_server4core5typesNtB2_11StoredValue18remaining_ttl_secs
FN:21,_RNvMNtNtCsfrV5S290jXb_12synap_server4core5typesNtB2_11StoredValue3new
FN:92,_RNvMNtNtCsfrV5S290jXb_12synap_server4core5typesNtB2_11StoredValue4dataB6_
FN:101,_RNvMNtNtCsfrV5S290jXb_12synap_server4core5typesNtB2_11StoredValue8data_mutB6_
FN:177,_RNvMs0_NtNtCsfrV5S290jXb_12synap_server4core5typesNtB5_7KVStats8hit_rate
FN:146,_RNvXs_NtNtCsfrV5S290jXb_12synap_server4core5typesNtB4_8KVConfigNtNtCsluXpZPV6FGj_4core7default7Default7default
FN:281,_RNvNtNtNtCsfrV5S290jXb_12synap_server4core5types5testss_22test_kv_config_default
FN:289,_RNvNtNtNtCsfrV5S290jXb_12synap_server4core5types5testss_22test_kv_stats_hit_rate
FN:255,_RNvNtNtNtCsfrV5S290jXb_12synap_server4core5types5testss_26test_stored_value_data_mut
FN:207,_RNvNtNtNtCsfrV5S290jXb_12synap_server4core5types5testss_26test_stored_value_expiring
FN:265,_RNvNtNtNtCsfrV5S290jXb_12synap_server4core5types5testss_28test_eviction_policy_default
FN:222,_RNvNtNtNtCsfrV5S290jXb_12synap_server4core5types5testss_28test_stored_value_expiration
FN:192,_RNvNtNtNtCsfrV5S290jXb_12synap_server4core5types5testss_28test_stored_value_persistent
FN:303,_RNvNtNtNtCsfrV5S290jXb_12synap_server4core5types5testss_29test_stored_value_last_access
FN:312,_RNvNtNtNtCsfrV5S290jXb_12synap_server4core5types5testss_31test_stored_value_remaining_ttl
FN:235,_RNvNtNtNtCsfrV5S290jXb_12synap_server4core5types5testss_31test_stored_value_update_access
FN:271,_RNvNtNtNtCsfrV5S290jXb_12synap_server4core5types5testss_34test_eviction_policy_serialization
FNDA:0,_RNvMNtNtCsitBd8PkZ0O7_12synap_server4core5typesNtB2_11StoredValue8data_mutB6_
FNDA:234,_RNCNvMNtNtCsitBd8PkZ0O7_12synap_server4core5typesNtB4_11StoredValue17current_timestamp0B8_
FNDA:28275,_RNvMNtNtCsitBd8PkZ0O7_12synap_server4core5typesNtB2_11StoredValue10is_expiredB6_
FNDA:0,_RNvMNtNtCsitBd8PkZ0O7_12synap_server4core5typesNtB2_11StoredValue11last_access
FNDA:0,_RNvMNtNtCsitBd8PkZ0O7_12synap_server4core5typesNtB2_11StoredValue13ttl_remaining
FNDA:18064,_RNvMNtNtCsitBd8PkZ0O7_12synap_server4core5typesNtB2_11StoredValue13update_access
FNDA:234,_RNvMNtNtCsitBd8PkZ0O7_12synap_server4core5typesNtB2_11StoredValue17current_timestampB6_
FNDA:2,_RNvMNtNtCsitBd8PkZ0O7_12synap_server4core5typesNtB2_11StoredValue18remaining_ttl_secs
FNDA:804328,_RNvMNtNtCsitBd8PkZ0O7_12synap_server4core5typesNtB2_11StoredValue3new
FNDA:832490,_RNvMNtNtCsitBd8PkZ0O7_12synap_server4core5typesNtB2_11StoredValue4dataB6_
FNDA:7,_RNvMs0_NtNtCsitBd8PkZ0O7_12synap_server4core5typesNtB5_7KVStats8hit_rate
FNDA:171,_RNvXs_NtNtCsitBd8PkZ0O7_12synap_server4core5typesNtB4_8KVConfigNtNtCsluXpZPV6FGj_4core7default7Default7default
FNDA:34,_RNCNvMNtNtCsfrV5S290jXb_12synap_server4core5typesNtB4_11StoredValue17current_timestamp0B8_
FNDA:94,_RNvMNtNtCsfrV5S290jXb_12synap_server4core5typesNtB2_11StoredValue10is_expiredB6_
FNDA:4,_RNvMNtNtCsfrV5S290jXb_12synap_server4core5typesNtB2_11StoredValue11last_access
FNDA:6,_RNvMNtNtCsfrV5S290jXb_12synap_server4core5typesNtB2_11StoredValue13ttl_remaining
FNDA:42,_RNvMNtNtCsfrV5S290jXb_12synap_server4core5typesNtB2_11StoredValue13update_access
FNDA:34,_RNvMNtNtCsfrV5S290jXb_12synap_server4core5typesNtB2_11StoredValue17current_timestampB6_
FNDA:6,_RNvMNtNtCsfrV5S290jXb_12synap_server4core5typesNtB2_11StoredValue18remaining_ttl_secs
FNDA:124,_RNvMNtNtCsfrV5S290jXb_12synap_server4core5typesNtB2_11StoredValue3new
FNDA:186,_RNvMNtNtCsfrV5S290jXb_12synap_server4core5typesNtB2_11StoredValue4dataB6_
FNDA:2,_RNvMNtNtCsfrV5S290jXb_12synap_server4core5typesNtB2_11StoredValue8data_mutB6_
FNDA:6,_RNvMs0_NtNtCsfrV5S290jXb_12synap_server4core5typesNtB5_7KVStats8hit_rate
FNDA:62,_RNvXs_NtNtCsfrV5S290jXb_12synap_server4core5typesNtB4_8KVConfigNtNtCsluXpZPV6FGj_4core7default7Default7default
FNDA:2,_RNvNtNtNtCsfrV5S290jXb_12synap_server4core5types5testss_22test_kv_config_default
FNDA:2,_RNvNtNtNtCsfrV5S290jXb_12synap_server4core5types5testss_22test_kv_stats_hit_rate
FNDA:2,_RNvNtNtNtCsfrV5S290jXb_12synap_server4core5types5testss_26test_stored_value_data_mut
FNDA:2,_RNvNtNtNtCsfrV5S290jXb_12synap_server4core5types5testss_26test_stored_value_expiring
FNDA:2,_RNvNtNtNtCsfrV5S290jXb_12synap_server4core5types5testss_28test_eviction_policy_default
FNDA:2,_RNvNtNtNtCsfrV5S290jXb_12synap_server4core5types5testss_28test_stored_value_expiration
FNDA:2,_RNvNtNtNtCsfrV5S290jXb_12synap_server4core5types5testss_28test_stored_value_persistent
FNDA:2,_RNvNtNtNtCsfrV5S290jXb_12synap_server4core5types5testss_29test_stored_value_last_access
FNDA:2,_RNvNtNtNtCsfrV5S290jXb_12synap_server4core5types5testss_31test_stored_value_remaining_ttl
FNDA:2,_RNvNtNtNtCsfrV5S290jXb_12synap_server4core5types5testss_31test_stored_value_update_access
FNDA:2,_RNvNtNtNtCsfrV5S290jXb_12synap_server4core5types5testss_34test_eviction_policy_serialization
FNF:23
FNH:23
DA:21,804452
DA:22,804452
DA:23,804328
DA:24,124
DA:25,124
DA:26,124
DA:27,124
DA:28,124
DA:29,124
DA:30,124
DA:33,804452
DA:37,268
DA:38,268
DA:39,268
DA:40,268
DA:41,268
DA:42,268
DA:46,28369
DA:47,28369
DA:48,28246
DA:49,123
DA:51,28369
DA:54,18106
DA:55,18106
DA:56,12
DA:57,18094
DA:58,18106
DA:61,6
DA:62,6
DA:63,2
DA:64,4
DA:65,4
DA:66,4
DA:67,2
DA:69,2
DA:73,6
DA:76,8
DA:77,8
DA:78,3
DA:79,5
DA:80,5
DA:81,5
DA:82,0
DA:84,5
DA:88,8
DA:92,832676
DA:93,832676
DA:94,832548
DA:95,128
DA:97,832676
DA:101,2
DA:102,2
DA:103,2
DA:104,0
DA:106,2
DA:109,4
DA:110,4
DA:111,2
DA:112,2
DA:114,4
DA:146,233
DA:147,233
DA:148,233
DA:149,233
DA:150,233
DA:151,233
DA:152,233
DA:153,233
DA:177,13
DA:178,13
DA:179,13
DA:180,6
DA:182,7
DA:184,13
DA:192,2
DA:193,2
DA:194,2
DA:196,2
DA:197,2
DA:198,0
DA:201,2
DA:202,2
DA:203,2
DA:204,2
DA:207,2
DA:208,2
DA:209,2
DA:211,2
DA:212,2
DA:213,0
DA:216,2
DA:217,2
DA:218,2
DA:219,2
DA:222,2
DA:223,2
DA:224,2
DA:225,2
DA:226,2
DA:227,2
DA:228,2
DA:230,2
DA:231,2
DA:232,2
DA:235,2
DA:236,2
DA:238,2
DA:239,2
DA:240,0
DA:243,2
DA:244,2
DA:246,2
DA:247,2
DA:248,0
DA:251,2
DA:252,2
DA:255,2
DA:256,2
DA:258,2
DA:259,2
DA:261,2
DA:262,2
DA:265,2
DA:266,2
DA:267,2
DA:268,2
DA:271,2
DA:272,2
DA:273,2
DA:274,2
DA:276,2
DA:277,2
DA:278,2
DA:281,2
DA:282,2
DA:283,2
DA:284,2
DA:285,2
DA:286,2
DA:289,2
DA:290,2
DA:291,2
DA:293,2
DA:294,2
DA:295,2
DA:297,2
DA:298,2
DA:299,2
DA:300,2
DA:303,2
DA:304,2
DA:305,2
DA:307,2
DA:308,2
DA:309,2
DA:312,2
DA:313,2
DA:315,2
DA:316,2
DA:317,2
DA:318,2
DA:319,2
BRF:0
BRH:0
LF:163
LH:157
end_of_record
SF:/mnt/f/Node/hivellm/synap/synap-server/src/main.rs
FN:88,_RNCNCNvCs8Vbe8MEPjyv_12synap_server4main00B5_
FN:48,_RNCNvCs8Vbe8MEPjyv_12synap_server4main0B3_
FN:48,_RNvCs8Vbe8MEPjyv_12synap_server4main
FN:88,_RNCNCNvCsjFJPBAuboYU_12synap_server4main00B5_
FN:48,_RNCNvCsjFJPBAuboYU_12synap_server4main0B3_
FN:48,_RNvCsjFJPBAuboYU_12synap_server4main
FNDA:0,_RNCNCNvCs8Vbe8MEPjyv_12synap_server4main00B5_
FNDA:0,_RNCNvCs8Vbe8MEPjyv_12synap_server4main0B3_
FNDA:0,_RNvCs8Vbe8MEPjyv_12synap_server4main
FNDA:0,_RNCNCNvCsjFJPBAuboYU_12synap_server4main00B5_
FNDA:0,_RNCNvCsjFJPBAuboYU_12synap_server4main0B3_
FNDA:0,_RNvCsjFJPBAuboYU_12synap_server4main
FNF:3
FNH:0
DA:48,0
DA:49,0
DA:52,0
DA:53,0
DA:55,0
DA:56,0
DA:60,0
DA:61,0
DA:62,0
DA:63,0
DA:64,0
DA:65,0
DA:68,0
DA:69,0
DA:70,0
DA:71,0
DA:72,0
DA:73,0
DA:76,0
DA:77,0
DA:78,0
DA:80,0
DA:81,0
DA:82,0
DA:84,0
DA:85,0
DA:88,0
DA:90,0
DA:91,0
DA:92,0
DA:93,0
DA:94,0
DA:95,0
DA:96,0
DA:97,0
DA:98,0
DA:99,0
DA:100,0
DA:101,0
DA:102,0
DA:103,0
DA:104,0
DA:105,0
DA:106,0
DA:107,0
DA:108,0
DA:109,0
DA:110,0
DA:111,0
DA:112,0
DA:113,0
DA:114,0
DA:117,0
DA:118,0
DA:119,0
DA:120,0
DA:125,0
DA:126,0
DA:128,0
DA:129,0
DA:130,0
DA:131,0
DA:132,0
DA:133,0
DA:135,0
DA:136,0
DA:138,0
DA:139,0
DA:140,0
DA:142,0
DA:149,0
DA:151,0
DA:152,0
DA:153,0
DA:155,0
DA:162,0
DA:165,0
DA:166,0
DA:167,0
DA:169,0
DA:173,0
DA:174,0
DA:175,0
DA:176,0
DA:177,0
DA:181,0
DA:182,0
DA:183,0
DA:184,0
DA:185,0
DA:189,0
DA:190,0
DA:191,0
DA:192,0
DA:193,0
DA:197,0
DA:198,0
DA:199,0
DA:200,0
DA:204,0
DA:205,0
DA:206,0
DA:207,0
DA:210,0
DA:211,0
DA:212,0
DA:213,0
DA:216,0
DA:217,0
DA:219,0
DA:220,0
DA:221,0
DA:225,0
DA:229,0
DA:230,0
DA:231,0
DA:232,0
DA:233,0
DA:234,0
DA:235,0
DA:236,0
DA:237,0
DA:240,0
DA:243,0
DA:245,0
DA:246,0
DA:247,0
DA:250,0
DA:253,0
DA:254,0
DA:257,0
DA:258,0
DA:260,0
DA:261,0
BRF:0
BRH:0
LF:137
LH:0
end_of_record
SF:/mnt/f/Node/hivellm/synap/synap-server/src/metrics/mod.rs
FN:221,_RNvNtCsitBd8PkZ0O7_12synap_server7metrics12record_kv_op
FN:212,_RNvNtCsitBd8PkZ0O7_12synap_server7metrics14encode_metrics
FN:229,_RNvNtCsitBd8PkZ0O7_12synap_server7metrics15record_queue_op
FN:253,_RNvNtCsitBd8PkZ0O7_12synap_server7metrics16record_pubsub_op
FN:239,_RNvNtCsitBd8PkZ0O7_12synap_server7metrics16record_stream_op
FN:265,_RNvNtCsitBd8PkZ0O7_12synap_server7metrics19record_http_request
FN:246,_RNvNtCsitBd8PkZ0O7_12synap_server7metrics19record_stream_event
FN:260,_RNvNtCsitBd8PkZ0O7_12synap_server7metrics21record_pubsub_message
FN:280,_RNvNtCsitBd8PkZ0O7_12synap_server7metrics21record_replication_op
FN:275,_RNvNtCsitBd8PkZ0O7_12synap_server7metrics22update_replication_lag
FN:221,_RNvNtCsfrV5S290jXb_12synap_server7metrics12record_kv_op
FN:212,_RNvNtCsfrV5S290jXb_12synap_server7metrics14encode_metrics
FN:229,_RNvNtCsfrV5S290jXb_12synap_server7metrics15record_queue_op
FN:253,_RNvNtCsfrV5S290jXb_12synap_server7metrics16record_pubsub_op
FN:239,_RNvNtCsfrV5S290jXb_12synap_server7metrics16record_stream_op
FN:265,_RNvNtCsfrV5S290jXb_12synap_server7metrics19record_http_request
FN:246,_RNvNtCsfrV5S290jXb_12synap_server7metrics19record_stream_event
FN:260,_RNvNtCsfrV5S290jXb_12synap_server7metrics21record_pubsub_message
FN:280,_RNvNtCsfrV5S290jXb_12synap_server7metrics21record_replication_op
FN:275,_RNvNtCsfrV5S290jXb_12synap_server7metrics22update_replication_lag
FN:290,_RNvNtNtCsfrV5S290jXb_12synap_server7metrics5testss_17test_record_kv_op
FN:308,_RNvNtNtCsfrV5S290jXb_12synap_server7metrics5testss_19test_encode_metrics
FN:300,_RNvNtNtCsfrV5S290jXb_12synap_server7metrics5testss_20test_record_queue_op
FNDA:0,_RNvNtCsitBd8PkZ0O7_12synap_server7metrics12record_kv_op
FNDA:0,_RNvNtCsitBd8PkZ0O7_12synap_server7metrics14encode_metrics
FNDA:0,_RNvNtCsitBd8PkZ0O7_12synap_server7metrics15record_queue_op
FNDA:0,_RNvNtCsitBd8PkZ0O7_12synap_server7metrics16record_pubsub_op
FNDA:0,_RNvNtCsitBd8PkZ0O7_12synap_server7metrics16record_stream_op
FNDA:0,_RNvNtCsitBd8PkZ0O7_12synap_server7metrics19record_http_request
FNDA:0,_RNvNtCsitBd8PkZ0O7_12synap_server7metrics19record_stream_event
FNDA:0,_RNvNtCsitBd8PkZ0O7_12synap_server7metrics21record_pubsub_message
FNDA:0,_RNvNtCsitBd8PkZ0O7_12synap_server7metrics21record_replication_op
FNDA:0,_RNvNtCsitBd8PkZ0O7_12synap_server7metrics22update_replication_lag
FNDA:6,_RNvNtCsfrV5S290jXb_12synap_server7metrics12record_kv_op
FNDA:6,_RNvNtCsfrV5S290jXb_12synap_server7metrics14encode_metrics
FNDA:2,_RNvNtCsfrV5S290jXb_12synap_server7metrics15record_queue_op
FNDA:0,_RNvNtCsfrV5S290jXb_12synap_server7metrics16record_pubsub_op
FNDA:0,_RNvNtCsfrV5S290jXb_12synap_server7metrics16record_stream_op
FNDA:0,_RNvNtCsfrV5S290jXb_12synap_server7metrics19record_http_request
FNDA:0,_RNvNtCsfrV5S290jXb_12synap_server7metrics19record_stream_event
FNDA:0,_RNvNtCsfrV5S290jXb_12synap_server7metrics21record_pubsub_message
FNDA:0,_RNvNtCsfrV5S290jXb_12synap_server7metrics21record_replication_op
FNDA:0,_RNvNtCsfrV5S290jXb_12synap_server7metrics22update_replication_lag
FNDA:2,_RNvNtNtCsfrV5S290jXb_12synap_server7metrics5testss_17test_record_kv_op
FNDA:2,_RNvNtNtCsfrV5S290jXb_12synap_server7metrics5testss_19test_encode_metrics
FNDA:2,_RNvNtNtCsfrV5S290jXb_12synap_server7metrics5testss_20test_record_queue_op
FNF:13
FNH:6
DA:212,6
DA:213,6
DA:214,6
DA:215,6
DA:216,6
DA:217,6
DA:218,6
DA:221,6
DA:222,6
DA:223,6
DA:224,6
DA:225,6
DA:226,6
DA:229,2
DA:230,2
DA:231,2
DA:232,2
DA:233,2
DA:234,2
DA:235,2
DA:236,2
DA:239,0
DA:240,0
DA:241,0
DA:242,0
DA:243,0
DA:246,0
DA:247,0
DA:248,0
DA:249,0
DA:250,0
DA:253,0
DA:254,0
DA:255,0
DA:256,0
DA:257,0
DA:260,0
DA:261,0
DA:262,0
DA:265,0
DA:266,0
DA:267,0
DA:268,0
DA:269,0
DA:270,0
DA:271,0
DA:272,0
DA:275,0
DA:276,0
DA:277,0
DA:280,0
DA:281,0
DA:282,0
DA:283,0
DA:290,2
DA:291,2
DA:292,2
DA:294,2
DA:295,2
DA:296,2
DA:297,2
DA:300,2
DA:301,2
DA:303,2
DA:304,2
DA:305,2
DA:308,2
DA:310,2
DA:312,2
DA:313,2
DA:315,2
DA:317,2
DA:318,2
BRF:0
BRH:0
LF:73
LH:40
end_of_record
SF:/mnt/f/Node/hivellm/synap/synap-server/src/persistence/layer.rs
FN:98,_RNCNvMNtNtCsitBd8PkZ0O7_12synap_server11persistence5layerNtB4_16PersistenceLayer13log_queue_ack0B8_
FN:78,_RNCNvMNtNtCsitBd8PkZ0O7_12synap_server11persistence5layerNtB4_16PersistenceLayer17log_queue_publish0B8_
FN:116,_RNCNvMNtNtCsitBd8PkZ0O7_12synap_server11persistence5layerNtB4_16PersistenceLayer18log_stream_publish0B8_
FN:21,_RNCNvMNtNtCsitBd8PkZ0O7_12synap_server11persistence5layerNtB4_16PersistenceLayer3new0B8_
FN:201,_RNCNvMNtNtCsitBd8PkZ0O7_12synap_server11persistence5layerNtB4_16PersistenceLayer5flush0B8_
FN:189,_RNCNCNvMNtNtCsitBd8PkZ0O7_12synap_server11persistence5layerNtB6_16PersistenceLayer19start_snapshot_task00Ba_
FN:190,_RNCNCNvMNtNtCsitBd8PkZ0O7_12synap_server11persistence5layerNtB6_16PersistenceLayer19start_snapshot_task0s_0Ba_
FN:58,_RNCNvMNtNtCsitBd8PkZ0O7_12synap_server11persistence5layerNtB4_16PersistenceLayer10log_kv_del0B8_
FN:40,_RNCNvMNtNtCsitBd8PkZ0O7_12synap_server11persistence5layerNtB4_16PersistenceLayer10log_kv_set0B8_
FN:141,_RNCNvMNtNtCsitBd8PkZ0O7_12synap_server11persistence5layerNtB4_16PersistenceLayer14maybe_snapshot0B8_
FN:180,_RNCNvMNtNtCsitBd8PkZ0O7_12synap_server11persistence5layerNtB4_16PersistenceLayer19start_snapshot_task0B8_
FN:58,_RNvMNtNtCsitBd8PkZ0O7_12synap_server11persistence5layerNtB2_16PersistenceLayer10log_kv_del
FN:35,_RNvMNtNtCsitBd8PkZ0O7_12synap_server11persistence5layerNtB2_16PersistenceLayer10log_kv_set
FN:94,_RNvMNtNtCsitBd8PkZ0O7_12synap_server11persistence5layerNtB2_16PersistenceLayer13log_queue_ack
FN:136,_RNvMNtNtCsitBd8PkZ0O7_12synap_server11persistence5layerNtB2_16PersistenceLayer14maybe_snapshot
FN:74,_RNvMNtNtCsitBd8PkZ0O7_12synap_server11persistence5layerNtB2_16PersistenceLayer17log_queue_publish
FN:111,_RNvMNtNtCsitBd8PkZ0O7_12synap_server11persistence5layerNtB2_16PersistenceLayer18log_stream_publish
FN:174,_RNvMNtNtCsitBd8PkZ0O7_12synap_server11persistence5layerNtB2_16PersistenceLayer19start_snapshot_task
FN:21,_RNvMNtNtCsitBd8PkZ0O7_12synap_server11persistence5layerNtB2_16PersistenceLayer3new
FN:201,_RNvMNtNtCsitBd8PkZ0O7_12synap_server11persistence5layerNtB2_16PersistenceLayer5flush
FN:21,_RNCNvMNtNtCsitBd8PkZ0O7_12synap_server11persistence5layerNtB4_16PersistenceLayer3new0CsaDYFqqykWlX_27integration_persistence_e2e
FN:21,_RNCNvMNtNtCsitBd8PkZ0O7_12synap_server11persistence5layerNtB4_16PersistenceLayer3new0Cs8Vbe8MEPjyv_12synap_server
FN:58,_RNCNvMNtNtCsfrV5S290jXb_12synap_server11persistence5layerNtB4_16PersistenceLayer10log_kv_del0B8_
FN:40,_RNCNvMNtNtCsfrV5S290jXb_12synap_server11persistence5layerNtB4_16PersistenceLayer10log_kv_set0B8_
FN:141,_RNCNvMNtNtCsfrV5S290jXb_12synap_server11persistence5layerNtB4_16PersistenceLayer14maybe_snapshot0B8_
FN:58,_RNvMNtNtCsfrV5S290jXb_12synap_server11persistence5layerNtB2_16PersistenceLayer10log_kv_del
FN:35,_RNvMNtNtCsfrV5S290jXb_12synap_server11persistence5layerNtB2_16PersistenceLayer10log_kv_set
FN:136,_RNvMNtNtCsfrV5S290jXb_12synap_server11persistence5layerNtB2_16PersistenceLayer14maybe_snapshot
FN:189,_RNCNCNvMNtNtCsfrV5S290jXb_12synap_server11persistence5layerNtB6_16PersistenceLayer19start_snapshot_task00Ba_
FN:190,_RNCNCNvMNtNtCsfrV5S290jXb_12synap_server11persistence5layerNtB6_16PersistenceLayer19start_snapshot_task0s_0Ba_
FN:98,_RNCNvMNtNtCsfrV5S290jXb_12synap_server11persistence5layerNtB4_16PersistenceLayer13log_queue_ack0B8_
FN:78,_RNCNvMNtNtCsfrV5S290jXb_12synap_server11persistence5layerNtB4_16PersistenceLayer17log_queue_publish0B8_
FN:116,_RNCNvMNtNtCsfrV5S290jXb_12synap_server11persistence5layerNtB4_16PersistenceLayer18log_stream_publish0B8_
FN:180,_RNCNvMNtNtCsfrV5S290jXb_12synap_server11persistence5layerNtB4_16PersistenceLayer19start_snapshot_task0B8_
FN:21,_RNCNvMNtNtCsfrV5S290jXb_12synap_server11persistence5layerNtB4_16PersistenceLayer3new0B8_
FN:201,_RNCNvMNtNtCsfrV5S290jXb_12synap_server11persistence5layerNtB4_16PersistenceLayer5flush0B8_
FN:94,_RNvMNtNtCsfrV5S290jXb_12synap_server11persistence5layerNtB2_16PersistenceLayer13log_queue_ack
FN:74,_RNvMNtNtCsfrV5S290jXb_12synap_server11persistence5layerNtB2_16PersistenceLayer17log_queue_publish
FN:111,_RNvMNtNtCsfrV5S290jXb_12synap_server11persistence5layerNtB2_16PersistenceLayer18log_stream_publish
FN:174,_RNvMNtNtCsfrV5S290jXb_12synap_server11persistence5layerNtB2_16PersistenceLayer19start_snapshot_task
FN:21,_RNvMNtNtCsfrV5S290jXb_12synap_server11persistence5layerNtB2_16PersistenceLayer3new
FN:201,_RNvMNtNtCsfrV5S290jXb_12synap_server11persistence5layerNtB2_16PersistenceLayer5flush
FNDA:0,_RNCNvMNtNtCsitBd8PkZ0O7_12synap_server11persistence5layerNtB4_16PersistenceLayer13log_queue_ack0B8_
FNDA:0,_RNCNvMNtNtCsitBd8PkZ0O7_12synap_server11persistence5layerNtB4_16PersistenceLayer17log_queue_publish0B8_
FNDA:0,_RNCNvMNtNtCsitBd8PkZ0O7_12synap_server11persistence5layerNtB4_16PersistenceLayer18log_stream_publish0B8_
FNDA:0,_RNCNvMNtNtCsitBd8PkZ0O7_12synap_server11persistence5layerNtB4_16PersistenceLayer3new0B8_
FNDA:0,_RNCNvMNtNtCsitBd8PkZ0O7_12synap_server11persistence5layerNtB4_16PersistenceLayer5flush0B8_
FNDA:0,_RNCNCNvMNtNtCsitBd8PkZ0O7_12synap_server11persistence5layerNtB6_16PersistenceLayer19start_snapshot_task00Ba_
FNDA:0,_RNCNCNvMNtNtCsitBd8PkZ0O7_12synap_server11persistence5layerNtB6_16PersistenceLayer19start_snapshot_task0s_0Ba_
FNDA:6,_RNCNvMNtNtCsitBd8PkZ0O7_12synap_server11persistence5layerNtB4_16PersistenceLayer10log_kv_del0B8_
FNDA:55,_RNCNvMNtNtCsitBd8PkZ0O7_12synap_server11persistence5layerNtB4_16PersistenceLayer10log_kv_set0B8_
FNDA:0,_RNCNvMNtNtCsitBd8PkZ0O7_12synap_server11persistence5layerNtB4_16PersistenceLayer14maybe_snapshot0B8_
FNDA:0,_RNCNvMNtNtCsitBd8PkZ0O7_12synap_server11persistence5layerNtB4_16PersistenceLayer19start_snapshot_task0B8_
FNDA:6,_RNvMNtNtCsitBd8PkZ0O7_12synap_server11persistence5layerNtB2_16PersistenceLayer10log_kv_del
FNDA:55,_RNvMNtNtCsitBd8PkZ0O7_12synap_server11persistence5layerNtB2_16PersistenceLayer10log_kv_set
FNDA:0,_RNvMNtNtCsitBd8PkZ0O7_12synap_server11persistence5layerNtB2_16PersistenceLayer13log_queue_ack
FNDA:0,_RNvMNtNtCsitBd8PkZ0O7_12synap_server11persistence5layerNtB2_16PersistenceLayer14maybe_snapshot
FNDA:0,_RNvMNtNtCsitBd8PkZ0O7_12synap_server11persistence5layerNtB2_16PersistenceLayer17log_queue_publish
FNDA:0,_RNvMNtNtCsitBd8PkZ0O7_12synap_server11persistence5layerNtB2_16PersistenceLayer18log_stream_publish
FNDA:0,_RNvMNtNtCsitBd8PkZ0O7_12synap_server11persistence5layerNtB2_16PersistenceLayer19start_snapshot_task
FNDA:3,_RNvMNtNtCsitBd8PkZ0O7_12synap_server11persistence5layerNtB2_16PersistenceLayer3new
FNDA:0,_RNvMNtNtCsitBd8PkZ0O7_12synap_server11persistence5layerNtB2_16PersistenceLayer5flush
FNDA:3,_RNCNvMNtNtCsitBd8PkZ0O7_12synap_server11persistence5layerNtB4_16PersistenceLayer3new0CsaDYFqqykWlX_27integration_persistence_e2e
FNDA:0,_RNCNvMNtNtCsitBd8PkZ0O7_12synap_server11persistence5layerNtB4_16PersistenceLayer3new0Cs8Vbe8MEPjyv_12synap_server
FNDA:0,_RNCNvMNtNtCsfrV5S290jXb_12synap_server11persistence5layerNtB4_16PersistenceLayer10log_kv_del0B8_
FNDA:0,_RNCNvMNtNtCsfrV5S290jXb_12synap_server11persistence5layerNtB4_16PersistenceLayer10log_kv_set0B8_
FNDA:0,_RNCNvMNtNtCsfrV5S290jXb_12synap_server11persistence5layerNtB4_16PersistenceLayer14maybe_snapshot0B8_
FNDA:0,_RNvMNtNtCsfrV5S290jXb_12synap_server11persistence5layerNtB2_16PersistenceLayer10log_kv_del
FNDA:0,_RNvMNtNtCsfrV5S290jXb_12synap_server11persistence5layerNtB2_16PersistenceLayer10log_kv_set
FNDA:0,_RNvMNtNtCsfrV5S290jXb_12synap_server11persistence5layerNtB2_16PersistenceLayer14maybe_snapshot
FNDA:0,_RNCNCNvMNtNtCsfrV5S290jXb_12synap_server11persistence5layerNtB6_16PersistenceLayer19start_snapshot_task00Ba_
FNDA:0,_RNCNCNvMNtNtCsfrV5S290jXb_12synap_server11persistence5layerNtB6_16PersistenceLayer19start_snapshot_task0s_0Ba_
FNDA:0,_RNCNvMNtNtCsfrV5S290jXb_12synap_server11persistence5layerNtB4_16PersistenceLayer13log_queue_ack0B8_
FNDA:0,_RNCNvMNtNtCsfrV5S290jXb_12synap_server11persistence5layerNtB4_16PersistenceLayer17log_queue_publish0B8_
FNDA:0,_RNCNvMNtNtCsfrV5S290jXb_12synap_server11persistence5layerNtB4_16PersistenceLayer18log_stream_publish0B8_
FNDA:0,_RNCNvMNtNtCsfrV5S290jXb_12synap_server11persistence5layerNtB4_16PersistenceLayer19start_snapshot_task0B8_
FNDA:0,_RNCNvMNtNtCsfrV5S290jXb_12synap_server11persistence5layerNtB4_16PersistenceLayer3new0B8_
FNDA:0,_RNCNvMNtNtCsfrV5S290jXb_12synap_server11persistence5layerNtB4_16PersistenceLayer5flush0B8_
FNDA:0,_RNvMNtNtCsfrV5S290jXb_12synap_server11persistence5layerNtB2_16PersistenceLayer13log_queue_ack
FNDA:0,_RNvMNtNtCsfrV5S290jXb_12synap_server11persistence5layerNtB2_16PersistenceLayer17log_queue_publish
FNDA:0,_RNvMNtNtCsfrV5S290jXb_12synap_server11persistence5layerNtB2_16PersistenceLayer18log_stream_publish
FNDA:0,_RNvMNtNtCsfrV5S290jXb_12synap_server11persistence5layerNtB2_16PersistenceLayer19start_snapshot_task
FNDA:0,_RNvMNtNtCsfrV5S290jXb_12synap_server11persistence5layerNtB2_16PersistenceLayer3new
FNDA:0,_RNvMNtNtCsfrV5S290jXb_12synap_server11persistence5layerNtB2_16PersistenceLayer5flush
FNF:20
FNH:6
DA:21,3
DA:22,3
DA:23,3
DA:25,3
DA:26,3
DA:27,3
DA:28,3
DA:29,3
DA:30,3
DA:31,3
DA:32,3
DA:35,55
DA:36,55
DA:37,55
DA:38,55
DA:39,55
DA:40,55
DA:41,55
DA:42,0
DA:43,55
DA:45,55
DA:48,55
DA:51,55
DA:52,55
DA:54,55
DA:55,55
DA:58,6
DA:59,6
DA:60,0
DA:61,6
DA:63,6
DA:65,6
DA:67,6
DA:68,6
DA:70,6
DA:71,6
DA:74,0
DA:75,0
DA:76,0
DA:77,0
DA:78,0
DA:79,0
DA:80,0
DA:81,0
DA:83,0
DA:85,0
DA:87,0
DA:88,0
DA:90,0
DA:91,0
DA:94,0
DA:95,0
DA:96,0
DA:97,0
DA:98,0
DA:99,0
DA:100,0
DA:101,0
DA:103,0
DA:105,0
DA:107,0
DA:108,0
DA:111,0
DA:112,0
DA:113,0
DA:114,0
DA:115,0
DA:116,0
DA:117,0
DA:118,0
DA:119,0
DA:121,0
DA:122,0
DA:123,0
DA:124,0
DA:125,0
DA:127,0
DA:129,0
DA:130,0
DA:132,0
DA:133,0
DA:136,0
DA:137,0
DA:138,0
DA:139,0
DA:140,0
DA:141,0
DA:142,0
DA:143,0
DA:144,0
DA:146,0
DA:147,0
DA:148,0
DA:150,0
DA:151,0
DA:153,0
DA:156,0
DA:157,0
DA:159,0
DA:161,0
DA:162,0
DA:163,0
DA:166,0
DA:167,0
DA:168,0
DA:170,0
DA:171,0
DA:174,0
DA:175,0
DA:176,0
DA:177,0
DA:178,0
DA:179,0
DA:180,0
DA:181,0
DA:184,0
DA:186,0
DA:187,0
DA:188,0
DA:189,0
DA:190,0
DA:192,0
DA:194,0
DA:195,0
DA:198,0
DA:201,0
DA:203,0
DA:204,0
BRF:0
BRH:0
LF:139
LH:37
end_of_record
SF:/mnt/f/Node/hivellm/synap/synap-server/src/persistence/queue_persistence.rs
FN:35,_RNCNvMNtNtCsitBd8PkZ0O7_12synap_server11persistence17queue_persistenceNtB4_16QueuePersistence11log_publish0B8_
FN:25,_RNCNvMNtNtCsitBd8PkZ0O7_12synap_server11persistence17queue_persistenceNtB4_16QueuePersistence3new0B8_
FN:141,_RNCNvMNtNtCsitBd8PkZ0O7_12synap_server11persistence17queue_persistenceNtB4_16QueuePersistence5flush0B8_
FN:46,_RNCNvMNtNtCsitBd8PkZ0O7_12synap_server11persistence17queue_persistenceNtB4_16QueuePersistence7log_ack0B8_
FN:82,_RNCNvMNtNtCsitBd8PkZ0O7_12synap_server11persistence17queue_persistenceNtB4_16QueuePersistence7recover0B8_
FN:63,_RNCNvMNtNtCsitBd8PkZ0O7_12synap_server11persistence17queue_persistenceNtB4_16QueuePersistence8log_nack0B8_
FN:35,_RNvMNtNtCsitBd8PkZ0O7_12synap_server11persistence17queue_persistenceNtB2_16QueuePersistence11log_publish
FN:146,_RNvMNtNtCsitBd8PkZ0O7_12synap_server11persistence17queue_persistenceNtB2_16QueuePersistence14current_offset
FN:25,_RNvMNtNtCsitBd8PkZ0O7_12synap_server11persistence17queue_persistenceNtB2_16QueuePersistence3new
FN:141,_RNvMNtNtCsitBd8PkZ0O7_12synap_server11persistence17queue_persistenceNtB2_16QueuePersistence5flush
FN:46,_RNvMNtNtCsitBd8PkZ0O7_12synap_server11persistence17queue_persistenceNtB2_16QueuePersistence7log_ack
FN:78,_RNvMNtNtCsitBd8PkZ0O7_12synap_server11persistence17queue_persistenceNtB2_16QueuePersistence7recover
FN:63,_RNvMNtNtCsitBd8PkZ0O7_12synap_server11persistence17queue_persistenceNtB2_16QueuePersistence8log_nack
FN:63,_RNCNvMNtNtCsfrV5S290jXb_12synap_server11persistence17queue_persistenceNtB4_16QueuePersistence8log_nack0B8_
FN:146,_RNvMNtNtCsfrV5S290jXb_12synap_server11persistence17queue_persistenceNtB2_16QueuePersistence14current_offset
FN:63,_RNvMNtNtCsfrV5S290jXb_12synap_server11persistence17queue_persistenceNtB2_16QueuePersistence8log_nack
FN:35,_RNvMNtNtCsfrV5S290jXb_12synap_server11persistence17queue_persistenceNtB2_16QueuePersistence11log_publish
FN:25,_RNvMNtNtCsfrV5S290jXb_12synap_server11persistence17queue_persistenceNtB2_16QueuePersistence3new
FN:141,_RNvMNtNtCsfrV5S290jXb_12synap_server11persistence17queue_persistenceNtB2_16QueuePersistence5flush
FN:46,_RNvMNtNtCsfrV5S290jXb_12synap_server11persistence17queue_persistenceNtB2_16QueuePersistence7log_ack
FN:78,_RNvMNtNtCsfrV5S290jXb_12synap_server11persistence17queue_persistenceNtB2_16QueuePersistence7recover
FN:157,_RNvNtNtNtCsfrV5S290jXb_12synap_server11persistence17queue_persistence5testss_31test_queue_persistence_recovery
FN:157,_RNCNvNtNtNtCsfrV5S290jXb_12synap_server11persistence17queue_persistence5testss_31test_queue_persistence_recovery0B9_
FN:35,_RNCNvMNtNtCsfrV5S290jXb_12synap_server11persistence17queue_persistenceNtB4_16QueuePersistence11log_publish0B8_
FN:25,_RNCNvMNtNtCsfrV5S290jXb_12synap_server11persistence17queue_persistenceNtB4_16QueuePersistence3new0B8_
FN:141,_RNCNvMNtNtCsfrV5S290jXb_12synap_server11persistence17queue_persistenceNtB4_16QueuePersistence5flush0B8_
FN:46,_RNCNvMNtNtCsfrV5S290jXb_12synap_server11persistence17queue_persistenceNtB4_16QueuePersistence7log_ack0B8_
FN:82,_RNCNvMNtNtCsfrV5S290jXb_12synap_server11persistence17queue_persistenceNtB4_16QueuePersistence7recover0B8_
FNDA:0,_RNCNvMNtNtCsitBd8PkZ0O7_12synap_server11persistence17queue_persistenceNtB4_16QueuePersistence11log_publish0B8_
FNDA:0,_RNCNvMNtNtCsitBd8PkZ0O7_12synap_server11persistence17queue_persistenceNtB4_16QueuePersistence3new0B8_
FNDA:0,_RNCNvMNtNtCsitBd8PkZ0O7_12synap_server11persistence17queue_persistenceNtB4_16QueuePersistence5flush0B8_
FNDA:0,_RNCNvMNtNtCsitBd8PkZ0O7_12synap_server11persistence17queue_persistenceNtB4_16QueuePersistence7log_ack0B8_
FNDA:0,_RNCNvMNtNtCsitBd8PkZ0O7_12synap_server11persistence17queue_persistenceNtB4_16QueuePersistence7recover0B8_
FNDA:0,_RNCNvMNtNtCsitBd8PkZ0O7_12synap_server11persistence17queue_persistenceNtB4_16QueuePersistence8log_nack0B8_
FNDA:0,_RNvMNtNtCsitBd8PkZ0O7_12synap_server11persistence17queue_persistenceNtB2_16QueuePersistence11log_publish
FNDA:0,_RNvMNtNtCsitBd8PkZ0O7_12synap_server11persistence17queue_persistenceNtB2_16QueuePersistence14current_offset
FNDA:0,_RNvMNtNtCsitBd8PkZ0O7_12synap_server11persistence17queue_persistenceNtB2_16QueuePersistence3new
FNDA:0,_RNvMNtNtCsitBd8PkZ0O7_12synap_server11persistence17queue_persistenceNtB2_16QueuePersistence5flush
FNDA:0,_RNvMNtNtCsitBd8PkZ0O7_12synap_server11persistence17queue_persistenceNtB2_16QueuePersistence7log_ack
FNDA:0,_RNvMNtNtCsitBd8PkZ0O7_12synap_server11persistence17queue_persistenceNtB2_16QueuePersistence7recover
FNDA:0,_RNvMNtNtCsitBd8PkZ0O7_12synap_server11persistence17queue_persistenceNtB2_16QueuePersistence8log_nack
FNDA:0,_RNCNvMNtNtCsfrV5S290jXb_12synap_server11persistence17queue_persistenceNtB4_16QueuePersistence8log_nack0B8_
FNDA:0,_RNvMNtNtCsfrV5S290jXb_12synap_server11persistence17queue_persistenceNtB2_16QueuePersistence14current_offset
FNDA:0,_RNvMNtNtCsfrV5S290jXb_12synap_server11persistence17queue_persistenceNtB2_16QueuePersistence8log_nack
FNDA:10,_RNvMNtNtCsfrV5S290jXb_12synap_server11persistence17queue_persistenceNtB2_16QueuePersistence11log_publish
FNDA:4,_RNvMNtNtCsfrV5S290jXb_12synap_server11persistence17queue_persistenceNtB2_16QueuePersistence3new
FNDA:2,_RNvMNtNtCsfrV5S290jXb_12synap_server11persistence17queue_persistenceNtB2_16QueuePersistence5flush
FNDA:6,_RNvMNtNtCsfrV5S290jXb_12synap_server11persistence17queue_persistenceNtB2_16QueuePersistence7log_ack
FNDA:2,_RNvMNtNtCsfrV5S290jXb_12synap_server11persistence17queue_persistenceNtB2_16QueuePersistence7recover
FNDA:2,_RNvNtNtNtCsfrV5S290jXb_12synap_server11persistence17queue_persistence5testss_31test_queue_persistence_recovery
FNDA:2,_RNCNvNtNtNtCsfrV5S290jXb_12synap_server11persistence17queue_persistence5testss_31test_queue_persistence_recovery0B9_
FNDA:10,_RNCNvMNtNtCsfrV5S290jXb_12synap_server11persistence17queue_persistenceNtB4_16QueuePersistence11log_publish0B8_
FNDA:4,_RNCNvMNtNtCsfrV5S290jXb_12synap_server11persistence17queue_persistenceNtB4_16QueuePersistence3new0B8_
FNDA:2,_RNCNvMNtNtCsfrV5S290jXb_12synap_server11persistence17queue_persistenceNtB4_16QueuePersistence5flush0B8_
FNDA:6,_RNCNvMNtNtCsfrV5S290jXb_12synap_server11persistence17queue_persistenceNtB4_16QueuePersistence7log_ack0B8_
FNDA:2,_RNCNvMNtNtCsfrV5S290jXb_12synap_server11persistence17queue_persistenceNtB4_16QueuePersistence7recover0B8_
FNF:15
FNH:12
DA:25,4
DA:26,4
DA:28,4
DA:29,4
DA:30,4
DA:31,4
DA:32,4
DA:35,10
DA:36,10
DA:37,10
DA:38,10
DA:39,10
DA:41,10
DA:42,10
DA:43,10
DA:46,6
DA:47,6
DA:48,6
DA:49,6
DA:50,6
DA:51,6
DA:52,6
DA:53,6
DA:56,6
DA:58,6
DA:59,6
DA:60,6
DA:63,0
DA:64,0
DA:65,0
DA:66,0
DA:67,0
DA:68,0
DA:69,0
DA:70,0
DA:71,0
DA:73,0
DA:74,0
DA:75,0
DA:78,2
DA:79,2
DA:80,2
DA:81,2
DA:82,2
DA:83,2
DA:85,2
DA:86,2
DA:87,2
DA:90,18
DA:91,16
DA:92,6
DA:93,10
DA:97,18
DA:98,16
DA:99,10
DA:101,10
DA:103,4
DA:106,4
DA:107,4
DA:108,4
DA:109,4
DA:110,4
DA:111,4
DA:112,4
DA:113,4
DA:114,4
DA:116,4
DA:117,6
DA:120,0
DA:121,0
DA:122,0
DA:124,0
DA:125,0
DA:127,0
DA:129,6
DA:133,2
DA:134,0
DA:137,2
DA:138,2
DA:141,2
DA:142,2
DA:143,2
DA:146,0
DA:147,0
DA:148,0
DA:157,2
DA:158,2
DA:159,2
DA:160,2
DA:162,2
DA:163,2
DA:164,2
DA:165,2
DA:166,2
DA:167,2
DA:168,2
DA:169,2
DA:170,2
DA:173,2
DA:174,2
DA:175,2
DA:176,2
DA:177,2
DA:178,2
DA:179,2
DA:180,2
DA:181,2
DA:182,2
DA:183,12
DA:184,10
DA:185,10
DA:186,10
DA:187,10
DA:188,2
DA:189,2
DA:190,10
DA:191,10
DA:192,10
DA:193,10
DA:194,10
DA:195,10
DA:196,10
DA:197,10
DA:198,10
DA:199,2
DA:200,2
DA:201,10
DA:202,6
DA:203,6
DA:204,6
DA:205,6
DA:206,4
DA:207,2
DA:208,2
DA:209,2
DA:210,2
DA:211,2
DA:212,2
DA:213,2
DA:214,2
DA:215,2
DA:216,2
DA:217,2
DA:218,2
DA:219,2
DA:220,2
DA:221,2
DA:222,2
DA:223,2
DA:224,2
DA:225,2
DA:226,2
DA:227,2
DA:228,2
BRF:0
BRH:0
LF:196
LH:173
end_of_record
SF:/mnt/f/Node/hivellm/synap/synap-server/src/persistence/recovery.rs
FN:138,_RNvNtNtCsitBd8PkZ0O7_12synap_server11persistence8recovery17validate_recovery
FN:10,_RNvNtNtCsitBd8PkZ0O7_12synap_server11persistence8recovery7recover
FN:138,_RNCNvNtNtCsitBd8PkZ0O7_12synap_server11persistence8recovery17validate_recovery0B7_
FN:14,_RNCNvNtNtCsitBd8PkZ0O7_12synap_server11persistence8recovery7recover0B7_
FN:10,_RNvNtNtCsfrV5S290jXb_12synap_server11persistence8recovery7recover
FN:138,_RNvNtNtCsfrV5S290jXb_12synap_server11persistence8recovery17validate_recovery
FN:138,_RNCNvNtNtCsfrV5S290jXb_12synap_server11persistence8recovery17validate_recovery0B7_
FN:14,_RNCNvNtNtCsfrV5S290jXb_12synap_server11persistence8recovery7recover0B7_
FNDA:0,_RNvNtNtCsitBd8PkZ0O7_12synap_server11persistence8recovery17validate_recovery
FNDA:0,_RNvNtNtCsitBd8PkZ0O7_12synap_server11persistence8recovery7recover
FNDA:0,_RNCNvNtNtCsitBd8PkZ0O7_12synap_server11persistence8recovery17validate_recovery0B7_
FNDA:0,_RNCNvNtNtCsitBd8PkZ0O7_12synap_server11persistence8recovery7recover0B7_
FNDA:4,_RNvNtNtCsfrV5S290jXb_12synap_server11persistence8recovery7recover
FNDA:0,_RNvNtNtCsfrV5S290jXb_12synap_server11persistence8recovery17validate_recovery
FNDA:0,_RNCNvNtNtCsfrV5S290jXb_12synap_server11persistence8recovery17validate_recovery0B7_
FNDA:4,_RNCNvNtNtCsfrV5S290jXb_12synap_server11persistence8recovery7recover0B7_
FNF:4
FNH:2
DA:10,4
DA:11,4
DA:12,4
DA:13,4
DA:14,4
DA:15,4
DA:16,0
DA:17,0
DA:18,0
DA:19,0
DA:20,0
DA:21,0
DA:22,4
DA:24,4
DA:26,4
DA:27,4
DA:30,4
DA:31,4
DA:32,0
DA:33,0
DA:38,0
DA:39,0
DA:40,0
DA:44,0
DA:45,0
DA:46,0
DA:47,0
DA:48,0
DA:49,0
DA:50,0
DA:51,0
DA:52,0
DA:53,0
DA:54,0
DA:55,0
DA:59,0
DA:61,4
DA:62,4
DA:63,4
DA:64,4
DA:65,4
DA:66,4
DA:70,4
DA:71,4
DA:72,4
DA:74,4
DA:75,0
DA:76,0
DA:77,0
DA:78,0
DA:80,0
DA:81,0
DA:82,0
DA:84,0
DA:86,0
DA:87,0
DA:89,0
DA:90,0
DA:91,0
DA:92,0
DA:93,0
DA:94,0
DA:95,0
DA:96,0
DA:97,0
DA:98,0
DA:99,0
DA:101,0
DA:102,0
DA:103,0
DA:104,0
DA:105,0
DA:108,0
DA:109,0
DA:110,0
DA:112,0
DA:113,0
DA:114,0
DA:115,0
DA:121,0
DA:122,0
DA:123,0
DA:124,0
DA:125,0
DA:126,0
DA:130,4
DA:132,4
DA:134,4
DA:135,4
DA:138,0
DA:139,0
DA:140,0
DA:142,0
DA:143,0
DA:144,0
DA:145,0
DA:146,0
DA:147,0
DA:148,0
DA:149,0
DA:151,0
DA:154,0
DA:155,0
DA:156,0
DA:158,0
DA:161,0
DA:162,0
DA:163,0
DA:164,0
DA:165,0
DA:166,0
BRF:0
BRH:0
LF:113
LH:27
end_of_record
SF:/mnt/f/Node/hivellm/synap/synap-server/src/persistence/snapshot.rs
FN:386,_RNCNvMNtNtCsitBd8PkZ0O7_12synap_server11persistence8snapshotNtB4_15SnapshotManager5stats0B8_
FN:203,_RNvMNtNtCsitBd8PkZ0O7_12synap_server11persistence8snapshotNtB2_15SnapshotManager11load_latest
FN:339,_RNvMNtNtCsitBd8PkZ0O7_12synap_server11persistence8snapshotNtB2_15SnapshotManager14list_snapshots
FN:26,_RNvMNtNtCsitBd8PkZ0O7_12synap_server11persistence8snapshotNtB2_15SnapshotManager15create_snapshot
FN:366,_RNvMNtNtCsitBd8PkZ0O7_12synap_server11persistence8snapshotNtB2_15SnapshotManager21cleanup_old_snapshots
FN:21,_RNvMNtNtCsitBd8PkZ0O7_12synap_server11persistence8snapshotNtB2_15SnapshotManager3new
FN:386,_RNvMNtNtCsitBd8PkZ0O7_12synap_server11persistence8snapshotNtB2_15SnapshotManager5stats
FN:418,_RNvMs_NtNtCsitBd8PkZ0O7_12synap_server11persistence8snapshotNtB4_5CRC643new
FN:424,_RNvMs_NtNtCsitBd8PkZ0O7_12synap_server11persistence8snapshotNtB4_5CRC646update
FN:437,_RNvMs_NtNtCsitBd8PkZ0O7_12synap_server11persistence8snapshotNtB4_5CRC648finalize
FN:249,_RNCNCNvMNtNtCsitBd8PkZ0O7_12synap_server11persistence8snapshotNtB6_15SnapshotManager11load_latest00Ba_
FN:278,_RNCNCNvMNtNtCsitBd8PkZ0O7_12synap_server11persistence8snapshotNtB6_15SnapshotManager11load_latest0s0_0Ba_
FN:295,_RNCNCNvMNtNtCsitBd8PkZ0O7_12synap_server11persistence8snapshotNtB6_15SnapshotManager11load_latest0s1_0Ba_
FN:306,_RNCNCNvMNtNtCsitBd8PkZ0O7_12synap_server11persistence8snapshotNtB6_15SnapshotManager11load_latest0s2_0Ba_
FN:267,_RNCNCNvMNtNtCsitBd8PkZ0O7_12synap_server11persistence8snapshotNtB6_15SnapshotManager11load_latest0s_0Ba_
FN:349,_RNCNCNvMNtNtCsitBd8PkZ0O7_12synap_server11persistence8snapshotNtB6_15SnapshotManager14list_snapshots00Ba_
FN:203,_RNCNvMNtNtCsitBd8PkZ0O7_12synap_server11persistence8snapshotNtB4_15SnapshotManager11load_latest0B8_
FN:339,_RNCNvMNtNtCsitBd8PkZ0O7_12synap_server11persistence8snapshotNtB4_15SnapshotManager14list_snapshots0B8_
FN:32,_RNCNvMNtNtCsitBd8PkZ0O7_12synap_server11persistence8snapshotNtB4_15SnapshotManager15create_snapshot0B8_
FN:366,_RNCNvMNtNtCsitBd8PkZ0O7_12synap_server11persistence8snapshotNtB4_15SnapshotManager21cleanup_old_snapshots0B8_
FN:249,_RNCNCNvMNtNtCsfrV5S290jXb_12synap_server11persistence8snapshotNtB6_15SnapshotManager11load_latest00Ba_
FN:278,_RNCNCNvMNtNtCsfrV5S290jXb_12synap_server11persistence8snapshotNtB6_15SnapshotManager11load_latest0s0_0Ba_
FN:295,_RNCNCNvMNtNtCsfrV5S290jXb_12synap_server11persistence8snapshotNtB6_15SnapshotManager11load_latest0s1_0Ba_
FN:306,_RNCNCNvMNtNtCsfrV5S290jXb_12synap_server11persistence8snapshotNtB6_15SnapshotManager11load_latest0s2_0Ba_
FN:267,_RNCNCNvMNtNtCsfrV5S290jXb_12synap_server11persistence8snapshotNtB6_15SnapshotManager11load_latest0s_0Ba_
FN:349,_RNCNCNvMNtNtCsfrV5S290jXb_12synap_server11persistence8snapshotNtB6_15SnapshotManager14list_snapshots00Ba_
FN:203,_RNCNvMNtNtCsfrV5S290jXb_12synap_server11persistence8snapshotNtB4_15SnapshotManager11load_latest0B8_
FN:339,_RNCNvMNtNtCsfrV5S290jXb_12synap_server11persistence8snapshotNtB4_15SnapshotManager14list_snapshots0B8_
FN:32,_RNCNvMNtNtCsfrV5S290jXb_12synap_server11persistence8snapshotNtB4_15SnapshotManager15create_snapshot0B8_
FN:366,_RNCNvMNtNtCsfrV5S290jXb_12synap_server11persistence8snapshotNtB4_15SnapshotManager21cleanup_old_snapshots0B8_
FN:386,_RNCNvMNtNtCsfrV5S290jXb_12synap_server11persistence8snapshotNtB4_15SnapshotManager5stats0B8_
FN:203,_RNvMNtNtCsfrV5S290jXb_12synap_server11persistence8snapshotNtB2_15SnapshotManager11load_latest
FN:339,_RNvMNtNtCsfrV5S290jXb_12synap_server11persistence8snapshotNtB2_15SnapshotManager14list_snapshots
FN:26,_RNvMNtNtCsfrV5S290jXb_12synap_server11persistence8snapshotNtB2_15SnapshotManager15create_snapshot
FN:366,_RNvMNtNtCsfrV5S290jXb_12synap_server11persistence8snapshotNtB2_15SnapshotManager21cleanup_old_snapshots
FN:21,_RNvMNtNtCsfrV5S290jXb_12synap_server11persistence8snapshotNtB2_15SnapshotManager3new
FN:386,_RNvMNtNtCsfrV5S290jXb_12synap_server11persistence8snapshotNtB2_15SnapshotManager5stats
FN:418,_RNvMs_NtNtCsfrV5S290jXb_12synap_server11persistence8snapshotNtB4_5CRC643new
FN:424,_RNvMs_NtNtCsfrV5S290jXb_12synap_server11persistence8snapshotNtB4_5CRC646update
FN:437,_RNvMs_NtNtCsfrV5S290jXb_12synap_server11persistence8snapshotNtB4_5CRC648finalize
FNDA:0,_RNCNvMNtNtCsitBd8PkZ0O7_12synap_server11persistence8snapshotNtB4_15SnapshotManager5stats0B8_
FNDA:2,_RNvMNtNtCsitBd8PkZ0O7_12synap_server11persistence8snapshotNtB2_15SnapshotManager11load_latest
FNDA:4,_RNvMNtNtCsitBd8PkZ0O7_12synap_server11persistence8snapshotNtB2_15SnapshotManager14list_snapshots
FNDA:2,_RNvMNtNtCsitBd8PkZ0O7_12synap_server11persistence8snapshotNtB2_15SnapshotManager15create_snapshot
FNDA:2,_RNvMNtNtCsitBd8PkZ0O7_12synap_server11persistence8snapshotNtB2_15SnapshotManager21cleanup_old_snapshots
FNDA:5,_RNvMNtNtCsitBd8PkZ0O7_12synap_server11persistence8snapshotNtB2_15SnapshotManager3new
FNDA:0,_RNvMNtNtCsitBd8PkZ0O7_12synap_server11persistence8snapshotNtB2_15SnapshotManager5stats
FNDA:2,_RNvMs_NtNtCsitBd8PkZ0O7_12synap_server11persistence8snapshotNtB4_5CRC643new
FNDA:40414,_RNvMs_NtNtCsitBd8PkZ0O7_12synap_server11persistence8snapshotNtB4_5CRC646update
FNDA:2,_RNvMs_NtNtCsitBd8PkZ0O7_12synap_server11persistence8snapshotNtB4_5CRC648finalize
FNDA:0,_RNCNCNvMNtNtCsitBd8PkZ0O7_12synap_server11persistence8snapshotNtB6_15SnapshotManager11load_latest00Ba_
FNDA:0,_RNCNCNvMNtNtCsitBd8PkZ0O7_12synap_server11persistence8snapshotNtB6_15SnapshotManager11load_latest0s0_0Ba_
FNDA:0,_RNCNCNvMNtNtCsitBd8PkZ0O7_12synap_server11persistence8snapshotNtB6_15SnapshotManager11load_latest0s1_0Ba_
FNDA:0,_RNCNCNvMNtNtCsitBd8PkZ0O7_12synap_server11persistence8snapshotNtB6_15SnapshotManager11load_latest0s2_0Ba_
FNDA:0,_RNCNCNvMNtNtCsitBd8PkZ0O7_12synap_server11persistence8snapshotNtB6_15SnapshotManager11load_latest0s_0Ba_
FNDA:4,_RNCNCNvMNtNtCsitBd8PkZ0O7_12synap_server11persistence8snapshotNtB6_15SnapshotManager14list_snapshots00Ba_
FNDA:2,_RNCNvMNtNtCsitBd8PkZ0O7_12synap_server11persistence8snapshotNtB4_15SnapshotManager11load_latest0B8_
FNDA:4,_RNCNvMNtNtCsitBd8PkZ0O7_12synap_server11persistence8snapshotNtB4_15SnapshotManager14list_snapshots0B8_
FNDA:2,_RNCNvMNtNtCsitBd8PkZ0O7_12synap_server11persistence8snapshotNtB4_15SnapshotManager15create_snapshot0B8_
FNDA:2,_RNCNvMNtNtCsitBd8PkZ0O7_12synap_server11persistence8snapshotNtB4_15SnapshotManager21cleanup_old_snapshots0B8_
FNDA:0,_RNCNCNvMNtNtCsfrV5S290jXb_12synap_server11persistence8snapshotNtB6_15SnapshotManager11load_latest00Ba_
FNDA:0,_RNCNCNvMNtNtCsfrV5S290jXb_12synap_server11persistence8snapshotNtB6_15SnapshotManager11load_latest0s0_0Ba_
FNDA:0,_RNCNCNvMNtNtCsfrV5S290jXb_12synap_server11persistence8snapshotNtB6_15SnapshotManager11load_latest0s1_0Ba_
FNDA:0,_RNCNCNvMNtNtCsfrV5S290jXb_12synap_server11persistence8snapshotNtB6_15SnapshotManager11load_latest0s2_0Ba_
FNDA:0,_RNCNCNvMNtNtCsfrV5S290jXb_12synap_server11persistence8snapshotNtB6_15SnapshotManager11load_latest0s_0Ba_
FNDA:16,_RNCNCNvMNtNtCsfrV5S290jXb_12synap_server11persistence8snapshotNtB6_15SnapshotManager14list_snapshots00Ba_
FNDA:6,_RNCNvMNtNtCsfrV5S290jXb_12synap_server11persistence8snapshotNtB4_15SnapshotManager11load_latest0B8_
FNDA:20,_RNCNvMNtNtCsfrV5S290jXb_12synap_server11persistence8snapshotNtB4_15SnapshotManager14list_snapshots0B8_
FNDA:12,_RNCNvMNtNtCsfrV5S290jXb_12synap_server11persistence8snapshotNtB4_15SnapshotManager15create_snapshot0B8_
FNDA:12,_RNCNvMNtNtCsfrV5S290jXb_12synap_server11persistence8snapshotNtB4_15SnapshotManager21cleanup_old_snapshots0B8_
FNDA:2,_RNCNvMNtNtCsfrV5S290jXb_12synap_server11persistence8snapshotNtB4_15SnapshotManager5stats0B8_
FNDA:6,_RNvMNtNtCsfrV5S290jXb_12synap_server11persistence8snapshotNtB2_15SnapshotManager11load_latest
FNDA:20,_RNvMNtNtCsfrV5S290jXb_12synap_server11persistence8snapshotNtB2_15SnapshotManager14list_snapshots
FNDA:12,_RNvMNtNtCsfrV5S290jXb_12synap_server11persistence8snapshotNtB2_15SnapshotManager15create_snapshot
FNDA:12,_RNvMNtNtCsfrV5S290jXb_12synap_server11persistence8snapshotNtB2_15SnapshotManager21cleanup_old_snapshots
FNDA:8,_RNvMNtNtCsfrV5S290jXb_12synap_server11persistence8snapshotNtB2_15SnapshotManager3new
FNDA:2,_RNvMNtNtCsfrV5S290jXb_12synap_server11persistence8snapshotNtB2_15SnapshotManager5stats
FNDA:12,_RNvMs_NtNtCsfrV5S290jXb_12synap_server11persistence8snapshotNtB4_5CRC643new
FNDA:220,_RNvMs_NtNtCsfrV5S290jXb_12synap_server11persistence8snapshotNtB4_5CRC646update
FNDA:12,_RNvMs_NtNtCsfrV5S290jXb_12synap_server11persistence8snapshotNtB4_5CRC648finalize
FNF:20
FNH:15
DA:21,13
DA:22,13
DA:23,13
DA:26,14
DA:27,14
DA:28,14
DA:29,14
DA:30,14
DA:31,14
DA:32,14
DA:34,14
DA:36,14
DA:37,14
DA:38,14
DA:39,14
DA:41,14
DA:42,14
DA:44,14
DA:46,14
DA:47,14
DA:48,14
DA:51,14
DA:52,14
DA:54,14
DA:55,14
DA:57,14
DA:58,14
DA:60,14
DA:61,14
DA:64,14
DA:65,14
DA:67,14
DA:68,14
DA:70,14
DA:72,10148
DA:74,10134
DA:75,10134
DA:76,10134
DA:78,10134
DA:79,10134
DA:81,10134
DA:82,10134
DA:84,10134
DA:85,10134
DA:87,10134
DA:88,10134
DA:92,14
DA:93,0
DA:95,14
DA:98,14
DA:99,14
DA:100,14
DA:102,14
DA:104,14
DA:106,0
DA:107,0
DA:109,0
DA:110,0
DA:112,0
DA:113,0
DA:116,0
DA:117,0
DA:118,0
DA:121,0
DA:122,0
DA:123,0
DA:125,0
DA:126,0
DA:128,0
DA:129,0
DA:134,14
DA:135,0
DA:137,14
DA:140,14
DA:141,14
DA:142,14
DA:144,14
DA:146,14
DA:148,0
DA:149,0
DA:151,0
DA:152,0
DA:154,0
DA:155,0
DA:158,0
DA:159,0
DA:160,0
DA:163,0
DA:165,0
DA:166,0
DA:167,0
DA:168,0
DA:169,0
DA:170,0
DA:171,0
DA:173,0
DA:174,0
DA:176,0
DA:177,0
DA:179,0
DA:180,0
DA:185,14
DA:186,14
DA:188,14
DA:189,14
DA:191,14
DA:192,0
DA:197,14
DA:199,14
DA:200,14
DA:203,8
DA:204,8
DA:206,8
DA:207,4
DA:208,4
DA:209,4
DA:212,4
DA:213,4
DA:215,4
DA:216,4
DA:219,4
DA:220,4
DA:222,4
DA:224,0
DA:225,4
DA:227,4
DA:228,4
DA:229,0
DA:230,0
DA:233,0
DA:234,4
DA:237,4
DA:238,4
DA:241,4
DA:242,4
DA:244,4
DA:245,10104
DA:246,10104
DA:247,10104
DA:248,10104
DA:249,10104
DA:251,10104
DA:252,10104
DA:253,10104
DA:255,10104
DA:259,4
DA:260,4
DA:262,4
DA:263,0
DA:264,0
DA:265,0
DA:266,0
DA:267,0
DA:269,0
DA:270,0
DA:272,0
DA:273,0
DA:274,0
DA:275,0
DA:277,0
DA:278,0
DA:279,0
DA:282,0
DA:286,4
DA:289,4
DA:290,4
DA:291,0
DA:292,0
DA:293,0
DA:294,0
DA:295,0
DA:297,0
DA:298,0
DA:300,0
DA:301,0
DA:302,0
DA:303,0
DA:305,0
DA:306,0
DA:307,0
DA:310,0
DA:312,0
DA:315,4
DA:317,4
DA:318,0
DA:322,0
DA:326,4
DA:327,4
DA:328,4
DA:329,4
DA:330,4
DA:331,4
DA:332,4
DA:333,4
DA:335,4
DA:336,8
DA:339,24
DA:340,24
DA:341,4
DA:342,20
DA:344,20
DA:345,20
DA:347,40
DA:348,20
DA:349,20
DA:350,20
DA:351,20
DA:352,20
DA:353,20
DA:354,20
DA:355,0
DA:356,0
DA:360,20
DA:362,20
DA:363,24
DA:366,14
DA:367,14
DA:369,14
DA:370,14
DA:371,0
DA:374,0
DA:375,0
DA:377,0
DA:378,0
DA:379,0
DA:382,0
DA:383,14
DA:386,2
DA:387,2
DA:389,2
DA:390,4
DA:391,2
DA:392,2
DA:393,2
DA:396,2
DA:397,2
DA:398,2
DA:399,2
DA:400,2
DA:401,2
DA:418,14
DA:419,14
DA:420,14
DA:421,14
DA:422,14
DA:424,40634
DA:425,883392
DA:426,842758
DA:427,7584822
DA:428,6742064
DA:429,3369018
DA:430,3373046
DA:431,3373046
DA:432,3373046
DA:435,40634
DA:437,14
DA:438,14
DA:439,14
BRF:0
BRH:0
LF:269
LH:176
end_of_record
SF:/mnt/f/Node/hivellm/synap/synap-server/src/persistence/stream_persistence.rs
FN:219,_RNCNCNvMNtNtCsitBd8PkZ0O7_12synap_server11persistence18stream_persistenceNtB6_17StreamPersistence10flush_room00Ba_
FN:223,_RNCNCNvMNtNtCsitBd8PkZ0O7_12synap_server11persistence18stream_persistenceNtB6_17StreamPersistence10flush_room0s_0Ba_
FN:134,_RNCNCNvMNtNtCsitBd8PkZ0O7_12synap_server11persistence18stream_persistenceNtB6_17StreamPersistence11writer_loop00Ba_
FN:207,_RNCNCNvMNtNtCsitBd8PkZ0O7_12synap_server11persistence18stream_persistenceNtB6_17StreamPersistence12append_event00Ba_
FN:211,_RNCNCNvMNtNtCsitBd8PkZ0O7_12synap_server11persistence18stream_persistenceNtB6_17StreamPersistence12append_event0s_0Ba_
FN:307,_RNCNCNvMNtNtCsitBd8PkZ0O7_12synap_server11persistence18stream_persistenceNtB6_17StreamPersistence12recover_room00Ba_
FN:316,_RNCNCNvMNtNtCsitBd8PkZ0O7_12synap_server11persistence18stream_persistenceNtB6_17StreamPersistence12recover_room0s_0Ba_
FN:215,_RNCNvMNtNtCsitBd8PkZ0O7_12synap_server11persistence18stream_persistenceNtB4_17StreamPersistence10flush_room0B8_
FN:232,_RNCNvMNtNtCsitBd8PkZ0O7_12synap_server11persistence18stream_persistenceNtB4_17StreamPersistence11read_events0B8_
FN:159,_RNCNvMNtNtCsitBd8PkZ0O7_12synap_server11persistence18stream_persistenceNtB4_17StreamPersistence11write_event0B8_
FN:95,_RNCNvMNtNtCsitBd8PkZ0O7_12synap_server11persistence18stream_persistenceNtB4_17StreamPersistence11writer_loop0B8_
FN:195,_RNCNvMNtNtCsitBd8PkZ0O7_12synap_server11persistence18stream_persistenceNtB4_17StreamPersistence12append_event0B8_
FN:296,_RNCNvMNtNtCsitBd8PkZ0O7_12synap_server11persistence18stream_persistenceNtB4_17StreamPersistence12recover_room0B8_
FN:60,_RNCNvMNtNtCsitBd8PkZ0O7_12synap_server11persistence18stream_persistenceNtB4_17StreamPersistence3new0B8_
FN:215,_RNvMNtNtCsitBd8PkZ0O7_12synap_server11persistence18stream_persistenceNtB2_17StreamPersistence10flush_room
FN:227,_RNvMNtNtCsitBd8PkZ0O7_12synap_server11persistence18stream_persistenceNtB2_17StreamPersistence11read_events
FN:154,_RNvMNtNtCsitBd8PkZ0O7_12synap_server11persistence18stream_persistenceNtB2_17StreamPersistence11write_event
FN:90,_RNvMNtNtCsitBd8PkZ0O7_12synap_server11persistence18stream_persistenceNtB2_17StreamPersistence11writer_loop
FN:190,_RNvMNtNtCsitBd8PkZ0O7_12synap_server11persistence18stream_persistenceNtB2_17StreamPersistence12append_event
FN:296,_RNvMNtNtCsitBd8PkZ0O7_12synap_server11persistence18stream_persistenceNtB2_17StreamPersistence12recover_room
FN:325,_RNvMNtNtCsitBd8PkZ0O7_12synap_server11persistence18stream_persistenceNtB2_17StreamPersistence17current_timestamp
FN:60,_RNvMNtNtCsitBd8PkZ0O7_12synap_server11persistence18stream_persistenceNtB2_17StreamPersistence3new
FN:215,_RNvMNtNtCsfrV5S290jXb_12synap_server11persistence18stream_persistenceNtB2_17StreamPersistence10flush_room
FN:227,_RNvMNtNtCsfrV5S290jXb_12synap_server11persistence18stream_persistenceNtB2_17StreamPersistence11read_events
FN:154,_RNvMNtNtCsfrV5S290jXb_12synap_server11persistence18stream_persistenceNtB2_17StreamPersistence11write_event
FN:90,_RNvMNtNtCsfrV5S290jXb_12synap_server11persistence18stream_persistenceNtB2_17StreamPersistence11writer_loop
FN:190,_RNvMNtNtCsfrV5S290jXb_12synap_server11persistence18stream_persistenceNtB2_17StreamPersistence12append_event
FN:325,_RNvMNtNtCsfrV5S290jXb_12synap_server11persistence18stream_persistenceNtB2_17StreamPersistence17current_timestamp
FN:60,_RNvMNtNtCsfrV5S290jXb_12synap_server11persistence18stream_persistenceNtB2_17StreamPersistence3new
FN:380,_RNvNtNtNtCsfrV5S290jXb_12synap_server11persistence18stream_persistence5testss_29test_stream_offset_based_read
FN:340,_RNvNtNtNtCsfrV5S290jXb_12synap_server11persistence18stream_persistence5testss_30test_stream_persistence_append
FN:219,_RNCNCNvMNtNtCsfrV5S290jXb_12synap_server11persistence18stream_persistenceNtB6_17StreamPersistence10flush_room00Ba_
FN:223,_RNCNCNvMNtNtCsfrV5S290jXb_12synap_server11persistence18stream_persistenceNtB6_17StreamPersistence10flush_room0s_0Ba_
FN:134,_RNCNCNvMNtNtCsfrV5S290jXb_12synap_server11persistence18stream_persistenceNtB6_17StreamPersistence11writer_loop00Ba_
FN:207,_RNCNCNvMNtNtCsfrV5S290jXb_12synap_server11persistence18stream_persistenceNtB6_17StreamPersistence12append_event00Ba_
FN:211,_RNCNCNvMNtNtCsfrV5S290jXb_12synap_server11persistence18stream_persistenceNtB6_17StreamPersistence12append_event0s_0Ba_
FN:215,_RNCNvMNtNtCsfrV5S290jXb_12synap_server11persistence18stream_persistenceNtB4_17StreamPersistence10flush_room0B8_
FN:232,_RNCNvMNtNtCsfrV5S290jXb_12synap_server11persistence18stream_persistenceNtB4_17StreamPersistence11read_events0B8_
FN:159,_RNCNvMNtNtCsfrV5S290jXb_12synap_server11persistence18stream_persistenceNtB4_17StreamPersistence11write_event0B8_
FN:95,_RNCNvMNtNtCsfrV5S290jXb_12synap_server11persistence18stream_persistenceNtB4_17StreamPersistence11writer_loop0B8_
FN:195,_RNCNvMNtNtCsfrV5S290jXb_12synap_server11persistence18stream_persistenceNtB4_17StreamPersistence12append_event0B8_
FN:60,_RNCNvMNtNtCsfrV5S290jXb_12synap_server11persistence18stream_persistenceNtB4_17StreamPersistence3new0B8_
FN:307,_RNCNCNvMNtNtCsfrV5S290jXb_12synap_server11persistence18stream_persistenceNtB6_17StreamPersistence12recover_room00Ba_
FN:316,_RNCNCNvMNtNtCsfrV5S290jXb_12synap_server11persistence18stream_persistenceNtB6_17StreamPersistence12recover_room0s_0Ba_
FN:296,_RNCNvMNtNtCsfrV5S290jXb_12synap_server11persistence18stream_persistenceNtB4_17StreamPersistence12recover_room0B8_
FN:296,_RNvMNtNtCsfrV5S290jXb_12synap_server11persistence18stream_persistenceNtB2_17StreamPersistence12recover_room
FN:380,_RNCNvNtNtNtCsfrV5S290jXb_12synap_server11persistence18stream_persistence5testss_29test_stream_offset_based_read0B9_
FN:340,_RNCNvNtNtNtCsfrV5S290jXb_12synap_server11persistence18stream_persistence5testss_30test_stream_persistence_append0B9_
FNDA:0,_RNCNCNvMNtNtCsitBd8PkZ0O7_12synap_server11persistence18stream_persistenceNtB6_17StreamPersistence10flush_room00Ba_
FNDA:0,_RNCNCNvMNtNtCsitBd8PkZ0O7_12synap_server11persistence18stream_persistenceNtB6_17StreamPersistence10flush_room0s_0Ba_
FNDA:0,_RNCNCNvMNtNtCsitBd8PkZ0O7_12synap_server11persistence18stream_persistenceNtB6_17StreamPersistence11writer_loop00Ba_
FNDA:0,_RNCNCNvMNtNtCsitBd8PkZ0O7_12synap_server11persistence18stream_persistenceNtB6_17StreamPersistence12append_event00Ba_
FNDA:0,_RNCNCNvMNtNtCsitBd8PkZ0O7_12synap_server11persistence18stream_persistenceNtB6_17StreamPersistence12append_event0s_0Ba_
FNDA:0,_RNCNCNvMNtNtCsitBd8PkZ0O7_12synap_server11persistence18stream_persistenceNtB6_17StreamPersistence12recover_room00Ba_
FNDA:0,_RNCNCNvMNtNtCsitBd8PkZ0O7_12synap_server11persistence18stream_persistenceNtB6_17StreamPersistence12recover_room0s_0Ba_
FNDA:0,_RNCNvMNtNtCsitBd8PkZ0O7_12synap_server11persistence18stream_persistenceNtB4_17StreamPersistence10flush_room0B8_
FNDA:0,_RNCNvMNtNtCsitBd8PkZ0O7_12synap_server11persistence18stream_persistenceNtB4_17StreamPersistence11read_events0B8_
FNDA:0,_RNCNvMNtNtCsitBd8PkZ0O7_12synap_server11persistence18stream_persistenceNtB4_17StreamPersistence11write_event0B8_
FNDA:0,_RNCNvMNtNtCsitBd8PkZ0O7_12synap_server11persistence18stream_persistenceNtB4_17StreamPersistence11writer_loop0B8_
FNDA:0,_RNCNvMNtNtCsitBd8PkZ0O7_12synap_server11persistence18stream_persistenceNtB4_17StreamPersistence12append_event0B8_
FNDA:0,_RNCNvMNtNtCsitBd8PkZ0O7_12synap_server11persistence18stream_persistenceNtB4_17StreamPersistence12recover_room0B8_
FNDA:0,_RNCNvMNtNtCsitBd8PkZ0O7_12synap_server11persistence18stream_persistenceNtB4_17StreamPersistence3new0B8_
FNDA:0,_RNvMNtNtCsitBd8PkZ0O7_12synap_server11persistence18stream_persistenceNtB2_17StreamPersistence10flush_room
FNDA:0,_RNvMNtNtCsitBd8PkZ0O7_12synap_server11persistence18stream_persistenceNtB2_17StreamPersistence11read_events
FNDA:0,_RNvMNtNtCsitBd8PkZ0O7_12synap_server11persistence18stream_persistenceNtB2_17StreamPersistence11write_event
FNDA:0,_RNvMNtNtCsitBd8PkZ0O7_12synap_server11persistence18stream_persistenceNtB2_17StreamPersistence11writer_loop
FNDA:0,_RNvMNtNtCsitBd8PkZ0O7_12synap_server11persistence18stream_persistenceNtB2_17StreamPersistence12append_event
FNDA:0,_RNvMNtNtCsitBd8PkZ0O7_12synap_server11persistence18stream_persistenceNtB2_17StreamPersistence12recover_room
FNDA:0,_RNvMNtNtCsitBd8PkZ0O7_12synap_server11persistence18stream_persistenceNtB2_17StreamPersistence17current_timestamp
FNDA:0,_RNvMNtNtCsitBd8PkZ0O7_12synap_server11persistence18stream_persistenceNtB2_17StreamPersistence3new
FNDA:4,_RNvMNtNtCsfrV5S290jXb_12synap_server11persistence18stream_persistenceNtB2_17StreamPersistence10flush_room
FNDA:4,_RNvMNtNtCsfrV5S290jXb_12synap_server11persistence18stream_persistenceNtB2_17StreamPersistence11read_events
FNDA:60,_RNvMNtNtCsfrV5S290jXb_12synap_server11persistence18stream_persistenceNtB2_17StreamPersistence11write_event
FNDA:4,_RNvMNtNtCsfrV5S290jXb_12synap_server11persistence18stream_persistenceNtB2_17StreamPersistence11writer_loop
FNDA:60,_RNvMNtNtCsfrV5S290jXb_12synap_server11persistence18stream_persistenceNtB2_17StreamPersistence12append_event
FNDA:60,_RNvMNtNtCsfrV5S290jXb_12synap_server11persistence18stream_persistenceNtB2_17StreamPersistence17current_timestamp
FNDA:4,_RNvMNtNtCsfrV5S290jXb_12synap_server11persistence18stream_persistenceNtB2_17StreamPersistence3new
FNDA:2,_RNvNtNtNtCsfrV5S290jXb_12synap_server11persistence18stream_persistence5testss_29test_stream_offset_based_read
FNDA:2,_RNvNtNtNtCsfrV5S290jXb_12synap_server11persistence18stream_persistence5testss_30test_stream_persistence_append
FNDA:0,_RNCNCNvMNtNtCsfrV5S290jXb_12synap_server11persistence18stream_persistenceNtB6_17StreamPersistence10flush_room00Ba_
FNDA:0,_RNCNCNvMNtNtCsfrV5S290jXb_12synap_server11persistence18stream_persistenceNtB6_17StreamPersistence10flush_room0s_0Ba_
FNDA:0,_RNCNCNvMNtNtCsfrV5S290jXb_12synap_server11persistence18stream_persistenceNtB6_17StreamPersistence11writer_loop00Ba_
FNDA:0,_RNCNCNvMNtNtCsfrV5S290jXb_12synap_server11persistence18stream_persistenceNtB6_17StreamPersistence12append_event00Ba_
FNDA:0,_RNCNCNvMNtNtCsfrV5S290jXb_12synap_server11persistence18stream_persistenceNtB6_17StreamPersistence12append_event0s_0Ba_
FNDA:4,_RNCNvMNtNtCsfrV5S290jXb_12synap_server11persistence18stream_persistenceNtB4_17StreamPersistence10flush_room0B8_
FNDA:4,_RNCNvMNtNtCsfrV5S290jXb_12synap_server11persistence18stream_persistenceNtB4_17StreamPersistence11read_events0B8_
FNDA:60,_RNCNvMNtNtCsfrV5S290jXb_12synap_server11persistence18stream_persistenceNtB4_17StreamPersistence11write_event0B8_
FNDA:4,_RNCNvMNtNtCsfrV5S290jXb_12synap_server11persistence18stream_persistenceNtB4_17StreamPersistence11writer_loop0B8_
FNDA:60,_RNCNvMNtNtCsfrV5S290jXb_12synap_server11persistence18stream_persistenceNtB4_17StreamPersistence12append_event0B8_
FNDA:4,_RNCNvMNtNtCsfrV5S290jXb_12synap_server11persistence18stream_persistenceNtB4_17StreamPersistence3new0B8_
FNDA:0,_RNCNCNvMNtNtCsfrV5S290jXb_12synap_server11persistence18stream_persistenceNtB6_17StreamPersistence12recover_room00Ba_
FNDA:0,_RNCNCNvMNtNtCsfrV5S290jXb_12synap_server11persistence18stream_persistenceNtB6_17StreamPersistence12recover_room0s_0Ba_
FNDA:0,_RNCNvMNtNtCsfrV5S290jXb_12synap_server11persistence18stream_persistenceNtB4_17StreamPersistence12recover_room0B8_
FNDA:0,_RNvMNtNtCsfrV5S290jXb_12synap_server11persistence18stream_persistenceNtB2_17StreamPersistence12recover_room
FNDA:2,_RNCNvNtNtNtCsfrV5S290jXb_12synap_server11persistence18stream_persistence5testss_29test_stream_offset_based_read0B9_
FNDA:2,_RNCNvNtNtNtCsfrV5S290jXb_12synap_server11persistence18stream_persistence5testss_30test_stream_persistence_append0B9_
FNF:26
FNH:17
DA:60,4
DA:61,4
DA:63,4
DA:64,4
DA:65,4
DA:68,4
DA:69,4
DA:70,4
DA:72,4
DA:73,4
DA:74,4
DA:75,4
DA:76,4
DA:79,4
DA:81,4
DA:82,4
DA:83,4
DA:84,4
DA:85,4
DA:86,4
DA:87,4
DA:90,4
DA:91,4
DA:92,4
DA:93,4
DA:94,4
DA:95,4
DA:97,4
DA:99,68
DA:100,64
DA:101,60
DA:103,60
DA:104,56
DA:106,4
DA:107,4
DA:108,4
DA:109,4
DA:110,4
DA:111,4
DA:113,4
DA:114,4
DA:115,4
DA:116,4
DA:118,4
DA:120,0
DA:121,0
DA:122,0
DA:129,60
DA:130,60
DA:132,4
DA:133,4
DA:134,4
DA:135,4
DA:136,0
DA:137,0
DA:138,0
DA:144,0
DA:145,0
DA:146,0
DA:147,0
DA:150,0
DA:151,0
DA:154,60
DA:155,60
DA:156,60
DA:157,60
DA:158,60
DA:159,60
DA:160,60
DA:163,60
DA:164,60
DA:165,60
DA:166,60
DA:167,60
DA:168,60
DA:169,60
DA:172,60
DA:173,60
DA:174,60
DA:177,60
DA:178,60
DA:179,60
DA:182,60
DA:183,60
DA:184,60
DA:186,60
DA:187,60
DA:190,60
DA:191,60
DA:192,60
DA:193,60
DA:194,60
DA:195,60
DA:196,60
DA:197,60
DA:198,60
DA:199,60
DA:200,60
DA:201,60
DA:202,60
DA:204,60
DA:205,60
DA:206,60
DA:207,60
DA:209,60
DA:210,60
DA:211,60
DA:212,60
DA:215,4
DA:216,4
DA:217,4
DA:218,4
DA:219,4
DA:221,4
DA:222,4
DA:223,4
DA:224,4
DA:227,4
DA:228,4
DA:229,4
DA:230,4
DA:231,4
DA:232,4
DA:233,4
DA:235,4
DA:236,0
DA:237,4
DA:239,4
DA:240,4
DA:241,4
DA:244,54
DA:245,2
DA:246,52
DA:248,52
DA:249,50
DA:250,2
DA:253,50
DA:254,50
DA:255,0
DA:258,50
DA:259,50
DA:260,0
DA:261,50
DA:263,50
DA:264,50
DA:265,0
DA:266,0
DA:267,50
DA:269,50
DA:270,50
DA:271,50
DA:273,50
DA:274,30
DA:275,30
DA:276,50
DA:278,0
DA:279,0
DA:280,0
DA:285,4
DA:286,0
DA:287,0
DA:292,4
DA:293,4
DA:296,0
DA:297,0
DA:299,0
DA:300,0
DA:302,0
DA:303,0
DA:304,0
DA:307,0
DA:308,0
DA:309,0
DA:312,0
DA:313,0
DA:314,0
DA:315,0
DA:316,0
DA:317,0
DA:318,0
DA:321,0
DA:322,0
DA:323,0
DA:325,60
DA:326,60
DA:327,60
DA:328,60
DA:329,60
DA:330,60
DA:340,2
DA:341,2
DA:342,2
DA:343,2
DA:345,2
DA:348,22
DA:349,20
DA:350,20
DA:351,20
DA:352,20
DA:353,20
DA:354,20
DA:355,20
DA:356,20
DA:360,2
DA:361,2
DA:362,2
DA:363,2
DA:366,2
DA:367,2
DA:368,2
DA:369,2
DA:371,2
DA:372,2
DA:373,2
DA:376,2
DA:377,2
DA:380,2
DA:381,2
DA:382,2
DA:384,2
DA:387,42
DA:388,40
DA:389,40
DA:390,40
DA:391,40
DA:392,40
DA:393,40
DA:394,40
DA:395,40
DA:398,2
DA:399,2
DA:400,2
DA:401,2
DA:404,2
DA:405,2
DA:406,2
DA:407,2
DA:409,2
DA:410,2
DA:411,2
DA:414,2
DA:415,2
BRF:0
BRH:0
LF:262
LH:210
end_of_record
SF:/mnt/f/Node/hivellm/synap/synap-server/src/persistence/tests.rs
FN:67,_RNvNtNtCsfrV5S290jXb_12synap_server11persistence5testss_19test_crash_recovery
FN:191,_RNvNtNtCsfrV5S290jXb_12synap_server11persistence5testss_25test_snapshot_cleanup_old
FN:5,_RNvNtNtCsfrV5S290jXb_12synap_server11persistence5testss_26test_wal_append_and_replay
FN:141,_RNvNtNtCsfrV5S290jXb_12synap_server11persistence5testss_29test_snapshot_create_and_load
FN:67,_RNCNvNtNtCsfrV5S290jXb_12synap_server11persistence5testss_19test_crash_recovery0B7_
FN:191,_RNCNvNtNtCsfrV5S290jXb_12synap_server11persistence5testss_25test_snapshot_cleanup_old0B7_
FN:5,_RNCNvNtNtCsfrV5S290jXb_12synap_server11persistence5testss_26test_wal_append_and_replay0B7_
FN:141,_RNCNvNtNtCsfrV5S290jXb_12synap_server11persistence5testss_29test_snapshot_create_and_load0B7_
FNDA:2,_RNvNtNtCsfrV5S290jXb_12synap_server11persistence5testss_19test_crash_recovery
FNDA:2,_RNvNtNtCsfrV5S290jXb_12synap_server11persistence5testss_25test_snapshot_cleanup_old
FNDA:2,_RNvNtNtCsfrV5S290jXb_12synap_server11persistence5testss_26test_wal_append_and_replay
FNDA:2,_RNvNtNtCsfrV5S290jXb_12synap_server11persistence5testss_29test_snapshot_create_and_load
FNDA:2,_RNCNvNtNtCsfrV5S290jXb_12synap_server11persistence5testss_19test_crash_recovery0B7_
FNDA:2,_RNCNvNtNtCsfrV5S290jXb_12synap_server11persistence5testss_25test_snapshot_cleanup_old0B7_
FNDA:2,_RNCNvNtNtCsfrV5S290jXb_12synap_server11persistence5testss_26test_wal_append_and_replay0B7_
FNDA:2,_RNCNvNtNtCsfrV5S290jXb_12synap_server11persistence5testss_29test_snapshot_create_and_load0B7_
FNF:8
FNH:8
DA:5,2
DA:6,2
DA:7,2
DA:8,2
DA:9,2
DA:10,2
DA:11,2
DA:12,2
DA:13,2
DA:16,2
DA:19,2
DA:21,2
DA:22,2
DA:23,2
DA:24,2
DA:25,2
DA:27,2
DA:28,2
DA:29,2
DA:30,2
DA:31,2
DA:33,2
DA:34,2
DA:37,2
DA:40,2
DA:41,2
DA:44,2
DA:45,2
DA:46,2
DA:47,2
DA:48,2
DA:49,2
DA:50,2
DA:51,2
DA:52,2
DA:53,2
DA:54,2
DA:55,2
DA:56,2
DA:57,2
DA:58,2
DA:59,2
DA:60,2
DA:61,2
DA:62,2
DA:63,2
DA:64,2
DA:67,2
DA:70,2
DA:71,2
DA:74,2
DA:75,2
DA:77,2
DA:78,2
DA:79,2
DA:80,2
DA:81,2
DA:82,2
DA:83,2
DA:84,2
DA:85,2
DA:86,2
DA:87,2
DA:88,2
DA:89,2
DA:90,2
DA:91,2
DA:92,2
DA:93,2
DA:94,2
DA:95,2
DA:97,2
DA:98,2
DA:99,2
DA:100,2
DA:101,2
DA:102,2
DA:104,2
DA:108,2
DA:109,2
DA:110,2
DA:113,2
DA:114,2
DA:115,2
DA:123,2
DA:124,2
DA:125,2
DA:131,2
DA:132,2
DA:136,2
DA:137,2
DA:138,2
DA:141,2
DA:144,2
DA:145,2
DA:147,2
DA:148,2
DA:149,2
DA:150,2
DA:151,2
DA:152,2
DA:153,2
DA:154,2
DA:156,2
DA:159,2
DA:160,2
DA:161,2
DA:162,2
DA:163,2
DA:164,2
DA:165,2
DA:166,2
DA:167,2
DA:170,2
DA:171,2
DA:172,2
DA:173,2
DA:175,2
DA:178,2
DA:180,2
DA:181,2
DA:182,2
DA:183,2
DA:184,2
DA:187,2
DA:188,2
DA:191,2
DA:194,2
DA:195,2
DA:197,2
DA:198,2
DA:199,2
DA:200,2
DA:201,2
DA:202,2
DA:203,2
DA:204,2
DA:206,2
DA:207,2
DA:210,12
DA:211,10
DA:212,10
DA:213,10
DA:214,10
DA:216,10
DA:217,10
DA:218,10
DA:219,10
DA:222,10
DA:226,2
DA:227,2
DA:228,2
DA:229,0
DA:234,2
DA:235,2
BRF:0
BRH:0
LF:175
LH:172
end_of_record
SF:/mnt/f/Node/hivellm/synap/synap-server/src/persistence/types.rs
FN:36,_RNvXNtNtCsitBd8PkZ0O7_12synap_server11persistence5typesNtB2_16PersistenceErrorINtNtCsluXpZPV6FGj_4core7convert4FromINtNtCsjftXE05v0h2_5alloc5boxed3BoxNtNtCs1P7IgVNB6kP_7bincode5error9ErrorKindEE4from
FN:125,_RNvXs0_NtNtCsitBd8PkZ0O7_12synap_server11persistence5typesNtB5_17PersistenceConfigNtNtCsluXpZPV6FGj_4core7default7Default7default
FN:146,_RNvXs1_NtNtCsitBd8PkZ0O7_12synap_server11persistence5typesNtB5_9WALConfigNtNtCsluXpZPV6FGj_4core7default7Default7default
FN:170,_RNvXs2_NtNtCsitBd8PkZ0O7_12synap_server11persistence5typesNtB5_14SnapshotConfigNtNtCsluXpZPV6FGj_4core7default7Default7default
FN:42,_RNvXs_NtNtCsitBd8PkZ0O7_12synap_server11persistence5typesNtB4_16PersistenceErrorINtNtCsluXpZPV6FGj_4core7convert4FromNtNtNtB8_4core5error10SynapErrorE4from
FN:36,_RNvXNtNtCsfrV5S290jXb_12synap_server11persistence5typesNtB2_16PersistenceErrorINtNtCsluXpZPV6FGj_4core7convert4FromINtNtCsjftXE05v0h2_5alloc5boxed3BoxNtNtCs1P7IgVNB6kP_7bincode5error9ErrorKindEE4from
FN:42,_RNvXs_NtNtCsfrV5S290jXb_12synap_server11persistence5typesNtB4_16PersistenceErrorINtNtCsluXpZPV6FGj_4core7convert4FromNtNtNtB8_4core5error10SynapErrorE4from
FN:125,_RNvXs0_NtNtCsfrV5S290jXb_12synap_server11persistence5typesNtB5_17PersistenceConfigNtNtCsluXpZPV6FGj_4core7default7Default7default
FN:146,_RNvXs1_NtNtCsfrV5S290jXb_12synap_server11persistence5typesNtB5_9WALConfigNtNtCsluXpZPV6FGj_4core7default7Default7default
FN:170,_RNvXs2_NtNtCsfrV5S290jXb_12synap_server11persistence5typesNtB5_14SnapshotConfigNtNtCsluXpZPV6FGj_4core7default7Default7default
FNDA:0,_RNvXNtNtCsitBd8PkZ0O7_12synap_server11persistence5typesNtB2_16PersistenceErrorINtNtCsluXpZPV6FGj_4core7convert4FromINtNtCsjftXE05v0h2_5alloc5boxed3BoxNtNtCs1P7IgVNB6kP_7bincode5error9ErrorKindEE4from
FNDA:65,_RNvXs0_NtNtCsitBd8PkZ0O7_12synap_server11persistence5typesNtB5_17PersistenceConfigNtNtCsluXpZPV6FGj_4core7default7Default7default
FNDA:66,_RNvXs1_NtNtCsitBd8PkZ0O7_12synap_server11persistence5typesNtB5_9WALConfigNtNtCsluXpZPV6FGj_4core7default7Default7default
FNDA:67,_RNvXs2_NtNtCsitBd8PkZ0O7_12synap_server11persistence5typesNtB5_14SnapshotConfigNtNtCsluXpZPV6FGj_4core7default7Default7default
FNDA:0,_RNvXs_NtNtCsitBd8PkZ0O7_12synap_server11persistence5typesNtB4_16PersistenceErrorINtNtCsluXpZPV6FGj_4core7convert4FromNtNtNtB8_4core5error10SynapErrorE4from
FNDA:0,_RNvXNtNtCsfrV5S290jXb_12synap_server11persistence5typesNtB2_16PersistenceErrorINtNtCsluXpZPV6FGj_4core7convert4FromINtNtCsjftXE05v0h2_5alloc5boxed3BoxNtNtCs1P7IgVNB6kP_7bincode5error9ErrorKindEE4from
FNDA:0,_RNvXs_NtNtCsfrV5S290jXb_12synap_server11persistence5typesNtB4_16PersistenceErrorINtNtCsluXpZPV6FGj_4core7convert4FromNtNtNtB8_4core5error10SynapErrorE4from
FNDA:0,_RNvXs0_NtNtCsfrV5S290jXb_12synap_server11persistence5typesNtB5_17PersistenceConfigNtNtCsluXpZPV6FGj_4core7default7Default7default
FNDA:0,_RNvXs1_NtNtCsfrV5S290jXb_12synap_server11persistence5typesNtB5_9WALConfigNtNtCsluXpZPV6FGj_4core7default7Default7default
FNDA:0,_RNvXs2_NtNtCsfrV5S290jXb_12synap_server11persistence5typesNtB5_14SnapshotConfigNtNtCsluXpZPV6FGj_4core7default7Default7default
FNF:5
FNH:3
DA:36,0
DA:37,0
DA:38,0
DA:42,0
DA:43,0
DA:44,0
DA:125,65
DA:126,65
DA:127,65
DA:128,65
DA:129,65
DA:130,65
DA:131,65
DA:146,66
DA:147,66
DA:148,66
DA:149,66
DA:150,66
DA:151,66
DA:152,66
DA:153,66
DA:154,66
DA:155,66
DA:170,67
DA:171,67
DA:172,67
DA:173,67
DA:174,67
DA:175,67
DA:176,67
DA:177,67
DA:178,67
DA:179,67
BRF:0
BRH:0
LF:33
LH:27
end_of_record
SF:/mnt/f/Node/hivellm/synap/synap-server/src/persistence/wal.rs
FN:259,_RNCNvMNtNtCsitBd8PkZ0O7_12synap_server11persistence3walNtB4_13WriteAheadLog5flush0B8_
FN:98,_RNCNvMNtNtCsitBd8PkZ0O7_12synap_server11persistence3walNtB4_13WriteAheadLog6append0B8_
FN:209,_RNCNvMNtNtCsitBd8PkZ0O7_12synap_server11persistence3walNtB4_13WriteAheadLog8truncate0B8_
FN:267,_RNvXs_NtNtCsitBd8PkZ0O7_12synap_server11persistence3walNtB4_13WriteAheadLogNtNtNtCsluXpZPV6FGj_4core3ops4drop4Drop4drop
FN:204,_RNvMNtNtCsitBd8PkZ0O7_12synap_server11persistence3walNtB2_13WriteAheadLog14current_offset
FN:57,_RNvMNtNtCsitBd8PkZ0O7_12synap_server11persistence3walNtB2_13WriteAheadLog20scan_for_last_offset
FN:21,_RNvMNtNtCsitBd8PkZ0O7_12synap_server11persistence3walNtB2_13WriteAheadLog4open
FN:259,_RNvMNtNtCsitBd8PkZ0O7_12synap_server11persistence3walNtB2_13WriteAheadLog5flush
FN:98,_RNvMNtNtCsitBd8PkZ0O7_12synap_server11persistence3walNtB2_13WriteAheadLog6append
FN:148,_RNvMNtNtCsitBd8PkZ0O7_12synap_server11persistence3walNtB2_13WriteAheadLog6replay
FN:209,_RNvMNtNtCsitBd8PkZ0O7_12synap_server11persistence3walNtB2_13WriteAheadLog8truncate
FN:57,_RNCNvMNtNtCsitBd8PkZ0O7_12synap_server11persistence3walNtB4_13WriteAheadLog20scan_for_last_offset0B8_
FN:21,_RNCNvMNtNtCsitBd8PkZ0O7_12synap_server11persistence3walNtB4_13WriteAheadLog4open0B8_
FN:148,_RNCNvMNtNtCsitBd8PkZ0O7_12synap_server11persistence3walNtB4_13WriteAheadLog6replay0B8_
FN:259,_RNCNvMNtNtCsfrV5S290jXb_12synap_server11persistence3walNtB4_13WriteAheadLog5flush0B8_
FN:209,_RNCNvMNtNtCsfrV5S290jXb_12synap_server11persistence3walNtB4_13WriteAheadLog8truncate0B8_
FN:259,_RNvMNtNtCsfrV5S290jXb_12synap_server11persistence3walNtB2_13WriteAheadLog5flush
FN:209,_RNvMNtNtCsfrV5S290jXb_12synap_server11persistence3walNtB2_13WriteAheadLog8truncate
FN:57,_RNCNvMNtNtCsfrV5S290jXb_12synap_server11persistence3walNtB4_13WriteAheadLog20scan_for_last_offset0B8_
FN:21,_RNCNvMNtNtCsfrV5S290jXb_12synap_server11persistence3walNtB4_13WriteAheadLog4open0B8_
FN:98,_RNCNvMNtNtCsfrV5S290jXb_12synap_server11persistence3walNtB4_13WriteAheadLog6append0B8_
FN:148,_RNCNvMNtNtCsfrV5S290jXb_12synap_server11persistence3walNtB4_13WriteAheadLog6replay0B8_
FN:204,_RNvMNtNtCsfrV5S290jXb_12synap_server11persistence3walNtB2_13WriteAheadLog14current_offset
FN:57,_RNvMNtNtCsfrV5S290jXb_12synap_server11persistence3walNtB2_13WriteAheadLog20scan_for_last_offset
FN:21,_RNvMNtNtCsfrV5S290jXb_12synap_server11persistence3walNtB2_13WriteAheadLog4open
FN:98,_RNvMNtNtCsfrV5S290jXb_12synap_server11persistence3walNtB2_13WriteAheadLog6append
FN:148,_RNvMNtNtCsfrV5S290jXb_12synap_server11persistence3walNtB2_13WriteAheadLog6replay
FN:267,_RNvXs_NtNtCsfrV5S290jXb_12synap_server11persistence3walNtB4_13WriteAheadLogNtNtNtCsluXpZPV6FGj_4core3ops4drop4Drop4drop
FNDA:0,_RNCNvMNtNtCsitBd8PkZ0O7_12synap_server11persistence3walNtB4_13WriteAheadLog5flush0B8_
FNDA:0,_RNCNvMNtNtCsitBd8PkZ0O7_12synap_server11persistence3walNtB4_13WriteAheadLog6append0B8_
FNDA:0,_RNCNvMNtNtCsitBd8PkZ0O7_12synap_server11persistence3walNtB4_13WriteAheadLog8truncate0B8_
FNDA:0,_RNvXs_NtNtCsitBd8PkZ0O7_12synap_server11persistence3walNtB4_13WriteAheadLogNtNtNtCsluXpZPV6FGj_4core3ops4drop4Drop4drop
FNDA:0,_RNvMNtNtCsitBd8PkZ0O7_12synap_server11persistence3walNtB2_13WriteAheadLog14current_offset
FNDA:0,_RNvMNtNtCsitBd8PkZ0O7_12synap_server11persistence3walNtB2_13WriteAheadLog20scan_for_last_offset
FNDA:0,_RNvMNtNtCsitBd8PkZ0O7_12synap_server11persistence3walNtB2_13WriteAheadLog4open
FNDA:0,_RNvMNtNtCsitBd8PkZ0O7_12synap_server11persistence3walNtB2_13WriteAheadLog5flush
FNDA:0,_RNvMNtNtCsitBd8PkZ0O7_12synap_server11persistence3walNtB2_13WriteAheadLog6append
FNDA:0,_RNvMNtNtCsitBd8PkZ0O7_12synap_server11persistence3walNtB2_13WriteAheadLog6replay
FNDA:0,_RNvMNtNtCsitBd8PkZ0O7_12synap_server11persistence3walNtB2_13WriteAheadLog8truncate
FNDA:0,_RNCNvMNtNtCsitBd8PkZ0O7_12synap_server11persistence3walNtB4_13WriteAheadLog20scan_for_last_offset0B8_
FNDA:0,_RNCNvMNtNtCsitBd8PkZ0O7_12synap_server11persistence3walNtB4_13WriteAheadLog4open0B8_
FNDA:0,_RNCNvMNtNtCsitBd8PkZ0O7_12synap_server11persistence3walNtB4_13WriteAheadLog6replay0B8_
FNDA:0,_RNCNvMNtNtCsfrV5S290jXb_12synap_server11persistence3walNtB4_13WriteAheadLog5flush0B8_
FNDA:0,_RNCNvMNtNtCsfrV5S290jXb_12synap_server11persistence3walNtB4_13WriteAheadLog8truncate0B8_
FNDA:0,_RNvMNtNtCsfrV5S290jXb_12synap_server11persistence3walNtB2_13WriteAheadLog5flush
FNDA:0,_RNvMNtNtCsfrV5S290jXb_12synap_server11persistence3walNtB2_13WriteAheadLog8truncate
FNDA:6,_RNCNvMNtNtCsfrV5S290jXb_12synap_server11persistence3walNtB4_13WriteAheadLog20scan_for_last_offset0B8_
FNDA:6,_RNCNvMNtNtCsfrV5S290jXb_12synap_server11persistence3walNtB4_13WriteAheadLog4open0B8_
FNDA:4,_RNCNvMNtNtCsfrV5S290jXb_12synap_server11persistence3walNtB4_13WriteAheadLog6append0B8_
FNDA:6,_RNCNvMNtNtCsfrV5S290jXb_12synap_server11persistence3walNtB4_13WriteAheadLog6replay0B8_
FNDA:0,_RNvMNtNtCsfrV5S290jXb_12synap_server11persistence3walNtB2_13WriteAheadLog14current_offset
FNDA:6,_RNvMNtNtCsfrV5S290jXb_12synap_server11persistence3walNtB2_13WriteAheadLog20scan_for_last_offset
FNDA:6,_RNvMNtNtCsfrV5S290jXb_12synap_server11persistence3walNtB2_13WriteAheadLog4open
FNDA:4,_RNvMNtNtCsfrV5S290jXb_12synap_server11persistence3walNtB2_13WriteAheadLog6append
FNDA:6,_RNvMNtNtCsfrV5S290jXb_12synap_server11persistence3walNtB2_13WriteAheadLog6replay
FNDA:6,_RNvXs_NtNtCsfrV5S290jXb_12synap_server11persistence3walNtB4_13WriteAheadLogNtNtNtCsluXpZPV6FGj_4core3ops4drop4Drop4drop
FNF:14
FNH:9
DA:21,6
DA:23,6
DA:24,6
DA:25,0
DA:28,6
DA:29,6
DA:30,6
DA:31,6
DA:32,6
DA:33,6
DA:35,6
DA:36,6
DA:37,6
DA:38,6
DA:39,6
DA:40,6
DA:41,6
DA:44,6
DA:46,6
DA:47,0
DA:49,0
DA:52,6
DA:53,6
DA:57,6
DA:58,6
DA:59,6
DA:63,6
DA:64,0
DA:65,6
DA:69,0
DA:70,0
DA:71,0
DA:75,0
DA:76,0
DA:77,0
DA:78,0
DA:79,0
DA:82,0
DA:83,0
DA:84,0
DA:85,0
DA:87,0
DA:88,0
DA:93,6
DA:94,6
DA:95,6
DA:98,4
DA:99,4
DA:101,4
DA:102,4
DA:103,4
DA:104,4
DA:105,4
DA:106,4
DA:107,4
DA:108,4
DA:111,4
DA:112,4
DA:114,4
DA:120,4
DA:121,4
DA:122,4
DA:125,4
DA:127,4
DA:128,4
DA:131,0
DA:132,0
DA:133,0
DA:134,0
DA:135,0
DA:136,0
DA:138,0
DA:139,0
DA:140,0
DA:143,4
DA:144,4
DA:148,6
DA:149,6
DA:150,6
DA:152,6
DA:156,10
DA:157,4
DA:158,6
DA:162,4
DA:163,4
DA:165,0
DA:166,0
DA:171,4
DA:172,4
DA:173,0
DA:174,0
DA:175,4
DA:178,4
DA:179,4
DA:180,0
DA:181,0
DA:184,0
DA:185,0
DA:186,0
DA:187,0
DA:188,4
DA:191,4
DA:192,4
DA:194,4
DA:195,4
DA:196,4
DA:199,6
DA:200,6
DA:201,6
DA:204,0
DA:205,0
DA:206,0
DA:209,0
DA:210,0
DA:211,0
DA:216,0
DA:217,0
DA:218,0
DA:219,0
DA:220,0
DA:221,0
DA:222,0
DA:224,0
DA:227,0
DA:229,0
DA:230,0
DA:231,0
DA:233,0
DA:234,0
DA:235,0
DA:238,0
DA:239,0
DA:240,0
DA:243,0
DA:246,0
DA:247,0
DA:248,0
DA:249,0
DA:250,0
DA:252,0
DA:254,0
DA:255,0
DA:256,0
DA:259,0
DA:260,0
DA:261,0
DA:262,0
DA:263,0
DA:267,6
DA:270,6
BRF:0
BRH:0
LF:156
LH:78
end_of_record
SF:/mnt/f/Node/hivellm/synap/synap-server/src/persistence/wal_async.rs
FN:212,_RNCNvMNtNtCsitBd8PkZ0O7_12synap_server11persistence9wal_asyncNtB4_8AsyncWAL11write_entry0B8_
FN:118,_RNCNvMNtNtCsitBd8PkZ0O7_12synap_server11persistence9wal_asyncNtB4_8AsyncWAL11writer_loop0B8_
FN:73,_RNCNvMNtNtCsitBd8PkZ0O7_12synap_server11persistence9wal_asyncNtB4_8AsyncWAL20scan_for_last_offset0B8_
FN:27,_RNCNvMNtNtCsitBd8PkZ0O7_12synap_server11persistence9wal_asyncNtB4_8AsyncWAL4open0B8_
FN:257,_RNCNvMNtNtCsitBd8PkZ0O7_12synap_server11persistence9wal_asyncNtB4_8AsyncWAL6replay0B8_
FN:234,_RNCNCNvMNtNtCsitBd8PkZ0O7_12synap_server11persistence9wal_asyncNtB6_8AsyncWAL6append00Ba_
FN:242,_RNCNCNvMNtNtCsitBd8PkZ0O7_12synap_server11persistence9wal_asyncNtB6_8AsyncWAL6append0s_0Ba_
FN:226,_RNCNvMNtNtCsitBd8PkZ0O7_12synap_server11persistence9wal_asyncNtB4_8AsyncWAL6append0B8_
FN:212,_RNvMNtNtCsitBd8PkZ0O7_12synap_server11persistence9wal_asyncNtB2_8AsyncWAL11write_entry
FN:113,_RNvMNtNtCsitBd8PkZ0O7_12synap_server11persistence9wal_asyncNtB2_8AsyncWAL11writer_loop
FN:251,_RNvMNtNtCsitBd8PkZ0O7_12synap_server11persistence9wal_asyncNtB2_8AsyncWAL14current_offset
FN:73,_RNvMNtNtCsitBd8PkZ0O7_12synap_server11persistence9wal_asyncNtB2_8AsyncWAL20scan_for_last_offset
FN:27,_RNvMNtNtCsitBd8PkZ0O7_12synap_server11persistence9wal_asyncNtB2_8AsyncWAL4open
FN:226,_RNvMNtNtCsitBd8PkZ0O7_12synap_server11persistence9wal_asyncNtB2_8AsyncWAL6append
FN:257,_RNvMNtNtCsitBd8PkZ0O7_12synap_server11persistence9wal_asyncNtB2_8AsyncWAL6replay
FN:212,_RNCNvMNtNtCsitBd8PkZ0O7_12synap_server11persistence9wal_asyncNtB4_8AsyncWAL11write_entry0Cs6lz05V564nd_23integration_performance
FN:118,_RNCNvMNtNtCsitBd8PkZ0O7_12synap_server11persistence9wal_asyncNtB4_8AsyncWAL11writer_loop0Cs6lz05V564nd_23integration_performance
FN:73,_RNCNvMNtNtCsitBd8PkZ0O7_12synap_server11persistence9wal_asyncNtB4_8AsyncWAL20scan_for_last_offset0Cs6lz05V564nd_23integration_performance
FN:27,_RNCNvMNtNtCsitBd8PkZ0O7_12synap_server11persistence9wal_asyncNtB4_8AsyncWAL4open0Cs6lz05V564nd_23integration_performance
FN:212,_RNCNvMNtNtCsitBd8PkZ0O7_12synap_server11persistence9wal_asyncNtB4_8AsyncWAL11write_entry0CsaDYFqqykWlX_27integration_persistence_e2e
FN:118,_RNCNvMNtNtCsitBd8PkZ0O7_12synap_server11persistence9wal_asyncNtB4_8AsyncWAL11writer_loop0CsaDYFqqykWlX_27integration_persistence_e2e
FN:73,_RNCNvMNtNtCsitBd8PkZ0O7_12synap_server11persistence9wal_asyncNtB4_8AsyncWAL20scan_for_last_offset0CsaDYFqqykWlX_27integration_persistence_e2e
FN:27,_RNCNvMNtNtCsitBd8PkZ0O7_12synap_server11persistence9wal_asyncNtB4_8AsyncWAL4open0CsaDYFqqykWlX_27integration_persistence_e2e
FN:212,_RNCNvMNtNtCsitBd8PkZ0O7_12synap_server11persistence9wal_asyncNtB4_8AsyncWAL11write_entry0Cs8Vbe8MEPjyv_12synap_server
FN:118,_RNCNvMNtNtCsitBd8PkZ0O7_12synap_server11persistence9wal_asyncNtB4_8AsyncWAL11writer_loop0Cs8Vbe8MEPjyv_12synap_server
FN:73,_RNCNvMNtNtCsitBd8PkZ0O7_12synap_server11persistence9wal_asyncNtB4_8AsyncWAL20scan_for_last_offset0Cs8Vbe8MEPjyv_12synap_server
FN:27,_RNCNvMNtNtCsitBd8PkZ0O7_12synap_server11persistence9wal_asyncNtB4_8AsyncWAL4open0Cs8Vbe8MEPjyv_12synap_server
FN:212,_RNCNvMNtNtCsfrV5S290jXb_12synap_server11persistence9wal_asyncNtB4_8AsyncWAL11write_entry0B8_
FN:118,_RNCNvMNtNtCsfrV5S290jXb_12synap_server11persistence9wal_asyncNtB4_8AsyncWAL11writer_loop0B8_
FN:73,_RNCNvMNtNtCsfrV5S290jXb_12synap_server11persistence9wal_asyncNtB4_8AsyncWAL20scan_for_last_offset0B8_
FN:27,_RNCNvMNtNtCsfrV5S290jXb_12synap_server11persistence9wal_asyncNtB4_8AsyncWAL4open0B8_
FN:257,_RNCNvMNtNtCsfrV5S290jXb_12synap_server11persistence9wal_asyncNtB4_8AsyncWAL6replay0B8_
FN:212,_RNvMNtNtCsfrV5S290jXb_12synap_server11persistence9wal_asyncNtB2_8AsyncWAL11write_entry
FN:113,_RNvMNtNtCsfrV5S290jXb_12synap_server11persistence9wal_asyncNtB2_8AsyncWAL11writer_loop
FN:73,_RNvMNtNtCsfrV5S290jXb_12synap_server11persistence9wal_asyncNtB2_8AsyncWAL20scan_for_last_offset
FN:27,_RNvMNtNtCsfrV5S290jXb_12synap_server11persistence9wal_asyncNtB2_8AsyncWAL4open
FN:257,_RNvMNtNtCsfrV5S290jXb_12synap_server11persistence9wal_asyncNtB2_8AsyncWAL6replay
FN:251,_RNvMNtNtCsfrV5S290jXb_12synap_server11persistence9wal_asyncNtB2_8AsyncWAL14current_offset
FN:226,_RNvMNtNtCsfrV5S290jXb_12synap_server11persistence9wal_asyncNtB2_8AsyncWAL6append
FN:234,_RNCNCNvMNtNtCsfrV5S290jXb_12synap_server11persistence9wal_asyncNtB6_8AsyncWAL6append00Ba_
FN:242,_RNCNCNvMNtNtCsfrV5S290jXb_12synap_server11persistence9wal_asyncNtB6_8AsyncWAL6append0s_0Ba_
FN:226,_RNCNvMNtNtCsfrV5S290jXb_12synap_server11persistence9wal_asyncNtB4_8AsyncWAL6append0B8_
FNDA:0,_RNCNvMNtNtCsitBd8PkZ0O7_12synap_server11persistence9wal_asyncNtB4_8AsyncWAL11write_entry0B8_
FNDA:0,_RNCNvMNtNtCsitBd8PkZ0O7_12synap_server11persistence9wal_asyncNtB4_8AsyncWAL11writer_loop0B8_
FNDA:0,_RNCNvMNtNtCsitBd8PkZ0O7_12synap_server11persistence9wal_asyncNtB4_8AsyncWAL20scan_for_last_offset0B8_
FNDA:0,_RNCNvMNtNtCsitBd8PkZ0O7_12synap_server11persistence9wal_asyncNtB4_8AsyncWAL4open0B8_
FNDA:0,_RNCNvMNtNtCsitBd8PkZ0O7_12synap_server11persistence9wal_asyncNtB4_8AsyncWAL6replay0B8_
FNDA:0,_RNCNCNvMNtNtCsitBd8PkZ0O7_12synap_server11persistence9wal_asyncNtB6_8AsyncWAL6append00Ba_
FNDA:0,_RNCNCNvMNtNtCsitBd8PkZ0O7_12synap_server11persistence9wal_asyncNtB6_8AsyncWAL6append0s_0Ba_
FNDA:1061,_RNCNvMNtNtCsitBd8PkZ0O7_12synap_server11persistence9wal_asyncNtB4_8AsyncWAL6append0B8_
FNDA:1061,_RNvMNtNtCsitBd8PkZ0O7_12synap_server11persistence9wal_asyncNtB2_8AsyncWAL11write_entry
FNDA:4,_RNvMNtNtCsitBd8PkZ0O7_12synap_server11persistence9wal_asyncNtB2_8AsyncWAL11writer_loop
FNDA:1,_RNvMNtNtCsitBd8PkZ0O7_12synap_server11persistence9wal_asyncNtB2_8AsyncWAL14current_offset
FNDA:4,_RNvMNtNtCsitBd8PkZ0O7_12synap_server11persistence9wal_asyncNtB2_8AsyncWAL20scan_for_last_offset
FNDA:4,_RNvMNtNtCsitBd8PkZ0O7_12synap_server11persistence9wal_asyncNtB2_8AsyncWAL4open
FNDA:1061,_RNvMNtNtCsitBd8PkZ0O7_12synap_server11persistence9wal_asyncNtB2_8AsyncWAL6append
FNDA:0,_RNvMNtNtCsitBd8PkZ0O7_12synap_server11persistence9wal_asyncNtB2_8AsyncWAL6replay
FNDA:1000,_RNCNvMNtNtCsitBd8PkZ0O7_12synap_server11persistence9wal_asyncNtB4_8AsyncWAL11write_entry0Cs6lz05V564nd_23integration_performance
FNDA:1,_RNCNvMNtNtCsitBd8PkZ0O7_12synap_server11persistence9wal_asyncNtB4_8AsyncWAL11writer_loop0Cs6lz05V564nd_23integration_performance
FNDA:1,_RNCNvMNtNtCsitBd8PkZ0O7_12synap_server11persistence9wal_asyncNtB4_8AsyncWAL20scan_for_last_offset0Cs6lz05V564nd_23integration_performance
FNDA:1,_RNCNvMNtNtCsitBd8PkZ0O7_12synap_server11persistence9wal_asyncNtB4_8AsyncWAL4open0Cs6lz05V564nd_23integration_performance
FNDA:61,_RNCNvMNtNtCsitBd8PkZ0O7_12synap_server11persistence9wal_asyncNtB4_8AsyncWAL11write_entry0CsaDYFqqykWlX_27integration_persistence_e2e
FNDA:3,_RNCNvMNtNtCsitBd8PkZ0O7_12synap_server11persistence9wal_asyncNtB4_8AsyncWAL11writer_loop0CsaDYFqqykWlX_27integration_persistence_e2e
FNDA:3,_RNCNvMNtNtCsitBd8PkZ0O7_12synap_server11persistence9wal_asyncNtB4_8AsyncWAL20scan_for_last_offset0CsaDYFqqykWlX_27integration_persistence_e2e
FNDA:3,_RNCNvMNtNtCsitBd8PkZ0O7_12synap_server11persistence9wal_asyncNtB4_8AsyncWAL4open0CsaDYFqqykWlX_27integration_persistence_e2e
FNDA:0,_RNCNvMNtNtCsitBd8PkZ0O7_12synap_server11persistence9wal_asyncNtB4_8AsyncWAL11write_entry0Cs8Vbe8MEPjyv_12synap_server
FNDA:0,_RNCNvMNtNtCsitBd8PkZ0O7_12synap_server11persistence9wal_asyncNtB4_8AsyncWAL11writer_loop0Cs8Vbe8MEPjyv_12synap_server
FNDA:0,_RNCNvMNtNtCsitBd8PkZ0O7_12synap_server11persistence9wal_asyncNtB4_8AsyncWAL20scan_for_last_offset0Cs8Vbe8MEPjyv_12synap_server
FNDA:0,_RNCNvMNtNtCsitBd8PkZ0O7_12synap_server11persistence9wal_asyncNtB4_8AsyncWAL4open0Cs8Vbe8MEPjyv_12synap_server
FNDA:0,_RNCNvMNtNtCsfrV5S290jXb_12synap_server11persistence9wal_asyncNtB4_8AsyncWAL11write_entry0B8_
FNDA:0,_RNCNvMNtNtCsfrV5S290jXb_12synap_server11persistence9wal_asyncNtB4_8AsyncWAL11writer_loop0B8_
FNDA:0,_RNCNvMNtNtCsfrV5S290jXb_12synap_server11persistence9wal_asyncNtB4_8AsyncWAL20scan_for_last_offset0B8_
FNDA:0,_RNCNvMNtNtCsfrV5S290jXb_12synap_server11persistence9wal_asyncNtB4_8AsyncWAL4open0B8_
FNDA:0,_RNCNvMNtNtCsfrV5S290jXb_12synap_server11persistence9wal_asyncNtB4_8AsyncWAL6replay0B8_
FNDA:0,_RNvMNtNtCsfrV5S290jXb_12synap_server11persistence9wal_asyncNtB2_8AsyncWAL11write_entry
FNDA:0,_RNvMNtNtCsfrV5S290jXb_12synap_server11persistence9wal_asyncNtB2_8AsyncWAL11writer_loop
FNDA:0,_RNvMNtNtCsfrV5S290jXb_12synap_server11persistence9wal_asyncNtB2_8AsyncWAL20scan_for_last_offset
FNDA:0,_RNvMNtNtCsfrV5S290jXb_12synap_server11persistence9wal_asyncNtB2_8AsyncWAL4open
FNDA:0,_RNvMNtNtCsfrV5S290jXb_12synap_server11persistence9wal_asyncNtB2_8AsyncWAL6replay
FNDA:0,_RNvMNtNtCsfrV5S290jXb_12synap_server11persistence9wal_asyncNtB2_8AsyncWAL14current_offset
FNDA:0,_RNvMNtNtCsfrV5S290jXb_12synap_server11persistence9wal_asyncNtB2_8AsyncWAL6append
FNDA:0,_RNCNCNvMNtNtCsfrV5S290jXb_12synap_server11persistence9wal_asyncNtB6_8AsyncWAL6append00Ba_
FNDA:0,_RNCNCNvMNtNtCsfrV5S290jXb_12synap_server11persistence9wal_asyncNtB6_8AsyncWAL6append0s_0Ba_
FNDA:0,_RNCNvMNtNtCsfrV5S290jXb_12synap_server11persistence9wal_asyncNtB4_8AsyncWAL6append0B8_
FNF:15
FNH:11
DA:27,4
DA:29,4
DA:30,4
DA:31,0
DA:34,4
DA:35,4
DA:36,4
DA:37,4
DA:38,4
DA:39,4
DA:41,4
DA:44,4
DA:45,4
DA:46,4
DA:48,4
DA:49,0
DA:54,4
DA:57,4
DA:58,4
DA:59,4
DA:60,4
DA:61,4
DA:62,4
DA:65,4
DA:66,4
DA:67,4
DA:68,4
DA:69,4
DA:73,4
DA:74,4
DA:75,4
DA:79,4
DA:80,0
DA:81,4
DA:85,0
DA:86,0
DA:87,0
DA:91,0
DA:92,0
DA:93,0
DA:94,0
DA:95,0
DA:98,0
DA:99,0
DA:100,0
DA:101,0
DA:103,0
DA:104,0
DA:109,4
DA:110,4
DA:113,4
DA:114,4
DA:115,4
DA:116,4
DA:117,4
DA:118,4
DA:120,4
DA:122,4
DA:123,4
DA:127,1065
DA:129,1065
DA:130,1061
DA:133,1061
DA:134,1061
DA:135,0
DA:136,1061
DA:142,1065
DA:143,0
DA:144,0
DA:146,0
DA:149,1061
DA:151,1061
DA:154,1061
DA:155,1061
DA:156,1061
DA:158,1061
DA:160,1061
DA:161,1061
DA:162,1061
DA:163,1061
DA:164,1061
DA:165,1061
DA:166,1061
DA:167,1061
DA:170,1061
DA:171,1061
DA:172,1061
DA:173,1061
DA:174,0
DA:175,0
DA:176,0
DA:181,1061
DA:182,0
DA:184,1061
DA:185,1061
DA:187,0
DA:190,1061
DA:191,1
DA:192,0
DA:193,1
DA:194,1
DA:195,0
DA:196,1
DA:197,1
DA:198,1
DA:199,1060
DA:202,2122
DA:203,1061
DA:204,1061
DA:205,0
DA:208,0
DA:209,0
DA:212,1061
DA:214,1061
DA:215,1061
DA:218,1061
DA:219,1061
DA:220,1061
DA:222,1061
DA:223,1061
DA:226,1061
DA:227,1061
DA:229,1061
DA:230,1061
DA:231,1061
DA:232,1061
DA:234,1061
DA:235,0
DA:236,0
DA:237,0
DA:238,0
DA:239,0
DA:242,1061
DA:243,0
DA:244,0
DA:245,0
DA:246,0
DA:247,0
DA:248,1061
DA:251,1
DA:252,1
DA:253,1
DA:257,0
DA:258,0
DA:259,0
DA:261,0
DA:265,0
DA:266,0
DA:267,0
DA:271,0
DA:272,0
DA:273,0
DA:277,0
DA:278,0
DA:279,0
DA:280,0
DA:281,0
DA:284,0
DA:285,0
DA:286,0
DA:287,0
DA:288,0
DA:291,0
DA:292,0
DA:293,0
DA:294,0
DA:295,0
DA:297,0
DA:298,0
DA:299,0
DA:304,0
DA:305,0
DA:306,0
BRF:0
BRH:0
LF:183
LH:106
end_of_record
SF:/mnt/f/Node/hivellm/synap/synap-server/src/persistence/wal_optimized.rs
FN:288,_RNCNCNvMNtNtCsitBd8PkZ0O7_12synap_server11persistence13wal_optimizedNtB6_12OptimizedWAL5flush00Ba_
FN:292,_RNCNCNvMNtNtCsitBd8PkZ0O7_12synap_server11persistence13wal_optimizedNtB6_12OptimizedWAL5flush0s_0Ba_
FN:275,_RNCNCNvMNtNtCsitBd8PkZ0O7_12synap_server11persistence13wal_optimizedNtB6_12OptimizedWAL6append00Ba_
FN:279,_RNCNCNvMNtNtCsitBd8PkZ0O7_12synap_server11persistence13wal_optimizedNtB6_12OptimizedWAL6append0s_0Ba_
FN:251,_RNCNvMNtNtCsitBd8PkZ0O7_12synap_server11persistence13wal_optimizedNtB4_12OptimizedWAL11write_entry0B8_
FN:319,_RNCNvMNtNtCsitBd8PkZ0O7_12synap_server11persistence13wal_optimizedNtB4_12OptimizedWAL20scan_for_last_offset0B8_
FN:105,_RNCNvMNtNtCsitBd8PkZ0O7_12synap_server11persistence13wal_optimizedNtB4_12OptimizedWAL23redis_style_writer_loop0B8_
FN:47,_RNCNvMNtNtCsitBd8PkZ0O7_12synap_server11persistence13wal_optimizedNtB4_12OptimizedWAL4open0B8_
FN:283,_RNCNvMNtNtCsitBd8PkZ0O7_12synap_server11persistence13wal_optimizedNtB4_12OptimizedWAL5flush0B8_
FN:301,_RNCNvMNtNtCsitBd8PkZ0O7_12synap_server11persistence13wal_optimizedNtB4_12OptimizedWAL5stats0B8_
FN:267,_RNCNvMNtNtCsitBd8PkZ0O7_12synap_server11persistence13wal_optimizedNtB4_12OptimizedWAL6append0B8_
FN:353,_RNCNvMNtNtCsitBd8PkZ0O7_12synap_server11persistence13wal_optimizedNtB4_12OptimizedWAL8read_all0B8_
FN:251,_RNvMNtNtCsitBd8PkZ0O7_12synap_server11persistence13wal_optimizedNtB2_12OptimizedWAL11write_entry
FN:296,_RNvMNtNtCsitBd8PkZ0O7_12synap_server11persistence13wal_optimizedNtB2_12OptimizedWAL14current_offset
FN:311,_RNvMNtNtCsitBd8PkZ0O7_12synap_server11persistence13wal_optimizedNtB2_12OptimizedWAL17current_timestamp
FN:319,_RNvMNtNtCsitBd8PkZ0O7_12synap_server11persistence13wal_optimizedNtB2_12OptimizedWAL20scan_for_last_offset
FN:99,_RNvMNtNtCsitBd8PkZ0O7_12synap_server11persistence13wal_optimizedNtB2_12OptimizedWAL23redis_style_writer_loop
FN:47,_RNvMNtNtCsitBd8PkZ0O7_12synap_server11persistence13wal_optimizedNtB2_12OptimizedWAL4open
FN:283,_RNvMNtNtCsitBd8PkZ0O7_12synap_server11persistence13wal_optimizedNtB2_12OptimizedWAL5flush
FN:301,_RNvMNtNtCsitBd8PkZ0O7_12synap_server11persistence13wal_optimizedNtB2_12OptimizedWAL5stats
FN:267,_RNvMNtNtCsitBd8PkZ0O7_12synap_server11persistence13wal_optimizedNtB2_12OptimizedWAL6append
FN:353,_RNvMNtNtCsitBd8PkZ0O7_12synap_server11persistence13wal_optimizedNtB2_12OptimizedWAL8read_all
FN:399,_RNvNtNtNtCsfrV5S290jXb_12synap_server11persistence13wal_optimized5testss_27test_optimized_wal_batching
FN:288,_RNCNCNvMNtNtCsfrV5S290jXb_12synap_server11persistence13wal_optimizedNtB6_12OptimizedWAL5flush00Ba_
FN:292,_RNCNCNvMNtNtCsfrV5S290jXb_12synap_server11persistence13wal_optimizedNtB6_12OptimizedWAL5flush0s_0Ba_
FN:275,_RNCNCNvMNtNtCsfrV5S290jXb_12synap_server11persistence13wal_optimizedNtB6_12OptimizedWAL6append00Ba_
FN:279,_RNCNCNvMNtNtCsfrV5S290jXb_12synap_server11persistence13wal_optimizedNtB6_12OptimizedWAL6append0s_0Ba_
FN:251,_RNCNvMNtNtCsfrV5S290jXb_12synap_server11persistence13wal_optimizedNtB4_12OptimizedWAL11write_entry0B8_
FN:319,_RNCNvMNtNtCsfrV5S290jXb_12synap_server11persistence13wal_optimizedNtB4_12OptimizedWAL20scan_for_last_offset0B8_
FN:105,_RNCNvMNtNtCsfrV5S290jXb_12synap_server11persistence13wal_optimizedNtB4_12OptimizedWAL23redis_style_writer_loop0B8_
FN:47,_RNCNvMNtNtCsfrV5S290jXb_12synap_server11persistence13wal_optimizedNtB4_12OptimizedWAL4open0B8_
FN:283,_RNCNvMNtNtCsfrV5S290jXb_12synap_server11persistence13wal_optimizedNtB4_12OptimizedWAL5flush0B8_
FN:267,_RNCNvMNtNtCsfrV5S290jXb_12synap_server11persistence13wal_optimizedNtB4_12OptimizedWAL6append0B8_
FN:353,_RNCNvMNtNtCsfrV5S290jXb_12synap_server11persistence13wal_optimizedNtB4_12OptimizedWAL8read_all0B8_
FN:301,_RNCNvMNtNtCsfrV5S290jXb_12synap_server11persistence13wal_optimizedNtB4_12OptimizedWAL5stats0B8_
FN:296,_RNvMNtNtCsfrV5S290jXb_12synap_server11persistence13wal_optimizedNtB2_12OptimizedWAL14current_offset
FN:301,_RNvMNtNtCsfrV5S290jXb_12synap_server11persistence13wal_optimizedNtB2_12OptimizedWAL5stats
FN:419,_RNCNCNvNtNtNtCsfrV5S290jXb_12synap_server11persistence13wal_optimized5testss_27test_optimized_wal_batching00Bb_
FN:399,_RNCNvNtNtNtCsfrV5S290jXb_12synap_server11persistence13wal_optimized5testss_27test_optimized_wal_batching0B9_
FN:251,_RNvMNtNtCsfrV5S290jXb_12synap_server11persistence13wal_optimizedNtB2_12OptimizedWAL11write_entry
FN:311,_RNvMNtNtCsfrV5S290jXb_12synap_server11persistence13wal_optimizedNtB2_12OptimizedWAL17current_timestamp
FN:319,_RNvMNtNtCsfrV5S290jXb_12synap_server11persistence13wal_optimizedNtB2_12OptimizedWAL20scan_for_last_offset
FN:99,_RNvMNtNtCsfrV5S290jXb_12synap_server11persistence13wal_optimizedNtB2_12OptimizedWAL23redis_style_writer_loop
FN:47,_RNvMNtNtCsfrV5S290jXb_12synap_server11persistence13wal_optimizedNtB2_12OptimizedWAL4open
FN:283,_RNvMNtNtCsfrV5S290jXb_12synap_server11persistence13wal_optimizedNtB2_12OptimizedWAL5flush
FN:267,_RNvMNtNtCsfrV5S290jXb_12synap_server11persistence13wal_optimizedNtB2_12OptimizedWAL6append
FN:353,_RNvMNtNtCsfrV5S290jXb_12synap_server11persistence13wal_optimizedNtB2_12OptimizedWAL8read_all
FNDA:0,_RNCNCNvMNtNtCsitBd8PkZ0O7_12synap_server11persistence13wal_optimizedNtB6_12OptimizedWAL5flush00Ba_
FNDA:0,_RNCNCNvMNtNtCsitBd8PkZ0O7_12synap_server11persistence13wal_optimizedNtB6_12OptimizedWAL5flush0s_0Ba_
FNDA:0,_RNCNCNvMNtNtCsitBd8PkZ0O7_12synap_server11persistence13wal_optimizedNtB6_12OptimizedWAL6append00Ba_
FNDA:0,_RNCNCNvMNtNtCsitBd8PkZ0O7_12synap_server11persistence13wal_optimizedNtB6_12OptimizedWAL6append0s_0Ba_
FNDA:0,_RNCNvMNtNtCsitBd8PkZ0O7_12synap_server11persistence13wal_optimizedNtB4_12OptimizedWAL11write_entry0B8_
FNDA:0,_RNCNvMNtNtCsitBd8PkZ0O7_12synap_server11persistence13wal_optimizedNtB4_12OptimizedWAL20scan_for_last_offset0B8_
FNDA:0,_RNCNvMNtNtCsitBd8PkZ0O7_12synap_server11persistence13wal_optimizedNtB4_12OptimizedWAL23redis_style_writer_loop0B8_
FNDA:0,_RNCNvMNtNtCsitBd8PkZ0O7_12synap_server11persistence13wal_optimizedNtB4_12OptimizedWAL4open0B8_
FNDA:0,_RNCNvMNtNtCsitBd8PkZ0O7_12synap_server11persistence13wal_optimizedNtB4_12OptimizedWAL5flush0B8_
FNDA:0,_RNCNvMNtNtCsitBd8PkZ0O7_12synap_server11persistence13wal_optimizedNtB4_12OptimizedWAL5stats0B8_
FNDA:0,_RNCNvMNtNtCsitBd8PkZ0O7_12synap_server11persistence13wal_optimizedNtB4_12OptimizedWAL6append0B8_
FNDA:0,_RNCNvMNtNtCsitBd8PkZ0O7_12synap_server11persistence13wal_optimizedNtB4_12OptimizedWAL8read_all0B8_
FNDA:0,_RNvMNtNtCsitBd8PkZ0O7_12synap_server11persistence13wal_optimizedNtB2_12OptimizedWAL11write_entry
FNDA:0,_RNvMNtNtCsitBd8PkZ0O7_12synap_server11persistence13wal_optimizedNtB2_12OptimizedWAL14current_offset
FNDA:0,_RNvMNtNtCsitBd8PkZ0O7_12synap_server11persistence13wal_optimizedNtB2_12OptimizedWAL17current_timestamp
FNDA:0,_RNvMNtNtCsitBd8PkZ0O7_12synap_server11persistence13wal_optimizedNtB2_12OptimizedWAL20scan_for_last_offset
FNDA:0,_RNvMNtNtCsitBd8PkZ0O7_12synap_server11persistence13wal_optimizedNtB2_12OptimizedWAL23redis_style_writer_loop
FNDA:0,_RNvMNtNtCsitBd8PkZ0O7_12synap_server11persistence13wal_optimizedNtB2_12OptimizedWAL4open
FNDA:0,_RNvMNtNtCsitBd8PkZ0O7_12synap_server11persistence13wal_optimizedNtB2_12OptimizedWAL5flush
FNDA:0,_RNvMNtNtCsitBd8PkZ0O7_12synap_server11persistence13wal_optimizedNtB2_12OptimizedWAL5stats
FNDA:0,_RNvMNtNtCsitBd8PkZ0O7_12synap_server11persistence13wal_optimizedNtB2_12OptimizedWAL6append
FNDA:0,_RNvMNtNtCsitBd8PkZ0O7_12synap_server11persistence13wal_optimizedNtB2_12OptimizedWAL8read_all
FNDA:2,_RNvNtNtNtCsfrV5S290jXb_12synap_server11persistence13wal_optimized5testss_27test_optimized_wal_batching
FNDA:0,_RNCNCNvMNtNtCsfrV5S290jXb_12synap_server11persistence13wal_optimizedNtB6_12OptimizedWAL5flush00Ba_
FNDA:0,_RNCNCNvMNtNtCsfrV5S290jXb_12synap_server11persistence13wal_optimizedNtB6_12OptimizedWAL5flush0s_0Ba_
FNDA:0,_RNCNCNvMNtNtCsfrV5S290jXb_12synap_server11persistence13wal_optimizedNtB6_12OptimizedWAL6append00Ba_
FNDA:0,_RNCNCNvMNtNtCsfrV5S290jXb_12synap_server11persistence13wal_optimizedNtB6_12OptimizedWAL6append0s_0Ba_
FNDA:216,_RNCNvMNtNtCsfrV5S290jXb_12synap_server11persistence13wal_optimizedNtB4_12OptimizedWAL11write_entry0B8_
FNDA:6,_RNCNvMNtNtCsfrV5S290jXb_12synap_server11persistence13wal_optimizedNtB4_12OptimizedWAL20scan_for_last_offset0B8_
FNDA:6,_RNCNvMNtNtCsfrV5S290jXb_12synap_server11persistence13wal_optimizedNtB4_12OptimizedWAL23redis_style_writer_loop0B8_
FNDA:6,_RNCNvMNtNtCsfrV5S290jXb_12synap_server11persistence13wal_optimizedNtB4_12OptimizedWAL4open0B8_
FNDA:4,_RNCNvMNtNtCsfrV5S290jXb_12synap_server11persistence13wal_optimizedNtB4_12OptimizedWAL5flush0B8_
FNDA:216,_RNCNvMNtNtCsfrV5S290jXb_12synap_server11persistence13wal_optimizedNtB4_12OptimizedWAL6append0B8_
FNDA:4,_RNCNvMNtNtCsfrV5S290jXb_12synap_server11persistence13wal_optimizedNtB4_12OptimizedWAL8read_all0B8_
FNDA:0,_RNCNvMNtNtCsfrV5S290jXb_12synap_server11persistence13wal_optimizedNtB4_12OptimizedWAL5stats0B8_
FNDA:0,_RNvMNtNtCsfrV5S290jXb_12synap_server11persistence13wal_optimizedNtB2_12OptimizedWAL14current_offset
FNDA:0,_RNvMNtNtCsfrV5S290jXb_12synap_server11persistence13wal_optimizedNtB2_12OptimizedWAL5stats
FNDA:200,_RNCNCNvNtNtNtCsfrV5S290jXb_12synap_server11persistence13wal_optimized5testss_27test_optimized_wal_batching00Bb_
FNDA:2,_RNCNvNtNtNtCsfrV5S290jXb_12synap_server11persistence13wal_optimized5testss_27test_optimized_wal_batching0B9_
FNDA:216,_RNvMNtNtCsfrV5S290jXb_12synap_server11persistence13wal_optimizedNtB2_12OptimizedWAL11write_entry
FNDA:216,_RNvMNtNtCsfrV5S290jXb_12synap_server11persistence13wal_optimizedNtB2_12OptimizedWAL17current_timestamp
FNDA:6,_RNvMNtNtCsfrV5S290jXb_12synap_server11persistence13wal_optimizedNtB2_12OptimizedWAL20scan_for_last_offset
FNDA:6,_RNvMNtNtCsfrV5S290jXb_12synap_server11persistence13wal_optimizedNtB2_12OptimizedWAL23redis_style_writer_loop
FNDA:6,_RNvMNtNtCsfrV5S290jXb_12synap_server11persistence13wal_optimizedNtB2_12OptimizedWAL4open
FNDA:4,_RNvMNtNtCsfrV5S290jXb_12synap_server11persistence13wal_optimizedNtB2_12OptimizedWAL5flush
FNDA:216,_RNvMNtNtCsfrV5S290jXb_12synap_server11persistence13wal_optimizedNtB2_12OptimizedWAL6append
FNDA:4,_RNvMNtNtCsfrV5S290jXb_12synap_server11persistence13wal_optimizedNtB2_12OptimizedWAL8read_all
FNF:25
FNH:18
DA:47,6
DA:49,6
DA:50,6
DA:51,0
DA:54,6
DA:55,6
DA:56,6
DA:57,6
DA:58,6
DA:59,6
DA:62,6
DA:63,6
DA:66,6
DA:67,6
DA:68,6
DA:70,6
DA:71,0
DA:74,0
DA:77,6
DA:78,6
DA:81,6
DA:82,6
DA:83,6
DA:84,6
DA:85,6
DA:86,6
DA:87,6
DA:88,6
DA:91,6
DA:92,6
DA:93,6
DA:94,6
DA:95,6
DA:96,6
DA:99,6
DA:100,6
DA:101,6
DA:102,6
DA:103,6
DA:104,6
DA:105,6
DA:107,6
DA:109,6
DA:110,6
DA:111,6
DA:113,6
DA:114,0
DA:115,0
DA:116,0
DA:117,0
DA:118,0
DA:124,28
DA:125,28
DA:127,28
DA:128,28
DA:129,22
DA:130,0
DA:131,0
DA:132,22
DA:133,22
DA:136,220
DA:137,220
DA:138,198
DA:139,198
DA:140,0
DA:141,198
DA:142,198
DA:144,22
DA:149,28
DA:150,0
DA:151,0
DA:153,4
DA:156,22
DA:157,0
DA:158,22
DA:161,22
DA:162,22
DA:163,22
DA:165,220
DA:166,220
DA:168,216
DA:169,216
DA:170,216
DA:171,216
DA:172,216
DA:173,4
DA:174,4
DA:175,4
DA:176,0
DA:181,22
DA:182,238
DA:183,216
DA:184,216
DA:185,216
DA:186,216
DA:187,216
DA:188,216
DA:190,216
DA:191,216
DA:192,216
DA:193,216
DA:194,216
DA:195,216
DA:197,0
DA:198,0
DA:199,0
DA:204,22
DA:205,0
DA:207,22
DA:208,22
DA:209,22
DA:213,22
DA:214,18
DA:215,4
DA:216,0
DA:219,22
DA:220,18
DA:221,18
DA:222,18
DA:223,18
DA:224,18
DA:225,0
DA:226,4
DA:229,216
DA:230,216
DA:231,216
DA:234,26
DA:235,4
DA:236,4
DA:240,4
DA:241,0
DA:242,4
DA:243,4
DA:244,0
DA:245,2
DA:247,2
DA:248,2
DA:251,216
DA:252,216
DA:253,216
DA:256,216
DA:259,216
DA:260,216
DA:261,216
DA:263,216
DA:264,216
DA:267,216
DA:268,216
DA:270,216
DA:271,216
DA:272,216
DA:273,216
DA:274,216
DA:275,216
DA:277,216
DA:278,216
DA:279,216
DA:280,216
DA:283,4
DA:284,4
DA:286,4
DA:287,4
DA:288,4
DA:290,4
DA:291,4
DA:292,4
DA:293,4
DA:296,0
DA:297,0
DA:298,0
DA:301,0
DA:302,0
DA:303,0
DA:304,0
DA:305,0
DA:306,0
DA:307,0
DA:308,0
DA:309,0
DA:311,216
DA:312,216
DA:313,216
DA:314,216
DA:315,216
DA:316,216
DA:319,6
DA:320,6
DA:321,0
DA:322,6
DA:324,6
DA:325,6
DA:328,22
DA:329,16
DA:330,6
DA:333,16
DA:334,16
DA:335,0
DA:338,16
DA:339,16
DA:340,0
DA:341,16
DA:343,16
DA:344,16
DA:345,16
DA:348,6
DA:349,6
DA:353,4
DA:354,4
DA:355,4
DA:358,220
DA:359,216
DA:360,4
DA:363,216
DA:364,216
DA:365,0
DA:368,216
DA:369,216
DA:370,0
DA:371,0
DA:372,216
DA:374,216
DA:375,216
DA:376,0
DA:377,0
DA:378,216
DA:380,216
DA:381,216
DA:382,0
DA:383,0
DA:384,0
DA:389,4
DA:390,4
DA:391,4
DA:399,2
DA:400,2
DA:401,2
DA:402,2
DA:404,2
DA:405,2
DA:406,2
DA:407,2
DA:408,2
DA:409,2
DA:410,2
DA:411,2
DA:413,2
DA:416,2
DA:417,202
DA:418,200
DA:419,200
DA:420,200
DA:421,200
DA:422,200
DA:423,200
DA:424,200
DA:425,200
DA:426,200
DA:427,200
DA:428,200
DA:431,202
DA:432,200
DA:436,2
DA:439,2
DA:440,2
DA:443,2
DA:444,2
BRF:0
BRH:0
LF:281
LH:230
end_of_record
SF:/mnt/f/Node/hivellm/synap/synap-server/src/protocol/envelope.rs
FN:29,_RINvMNtNtCsitBd8PkZ0O7_12synap_server8protocol8envelopeNtB3_7Request3newpEB7_
FN:50,_RINvMs_NtNtCsitBd8PkZ0O7_12synap_server8protocol8envelopeNtB5_8Response5errorpEB9_
FN:40,_RNvMs_NtNtCsitBd8PkZ0O7_12synap_server8protocol8envelopeNtB4_8Response7success
FN:29,_RINvMNtNtCsitBd8PkZ0O7_12synap_server8protocol8envelopeNtB3_7Request3newReECs8aI4Hk7hqWj_14protocol_tests
FN:50,_RINvMs_NtNtCsitBd8PkZ0O7_12synap_server8protocol8envelopeNtB5_8Response5errorReECs8aI4Hk7hqWj_14protocol_tests
FN:29,_RINvMNtNtCsfrV5S290jXb_12synap_server8protocol8envelopeNtB3_7Request3newReEB7_
FN:50,_RINvMs_NtNtCsfrV5S290jXb_12synap_server8protocol8envelopeNtB5_8Response5errorNtNtCsjftXE05v0h2_5alloc6string6StringEB9_
FN:50,_RINvMs_NtNtCsfrV5S290jXb_12synap_server8protocol8envelopeNtB5_8Response5errorReEB9_
FN:66,_RNvNtNtNtCsfrV5S290jXb_12synap_server8protocol8envelope5testss_16test_request_new
FN:101,_RNvNtNtNtCsfrV5S290jXb_12synap_server8protocol8envelope5testss_19test_response_error
FN:89,_RNvNtNtNtCsfrV5S290jXb_12synap_server8protocol8envelope5testss_21test_response_success
FN:126,_RNvNtNtNtCsfrV5S290jXb_12synap_server8protocol8envelope5testss_23test_request_unique_ids
FN:76,_RNvNtNtNtCsfrV5S290jXb_12synap_server8protocol8envelope5testss_26test_request_serialization
FN:113,_RNvNtNtNtCsfrV5S290jXb_12synap_server8protocol8envelope5testss_27test_response_serialization
FN:135,_RNvNtNtNtCsfrV5S290jXb_12synap_server8protocol8envelope5testss_37test_response_error_string_conversion
FN:40,_RNvMs_NtNtCsfrV5S290jXb_12synap_server8protocol8envelopeNtB4_8Response7success
FNDA:0,_RINvMNtNtCsitBd8PkZ0O7_12synap_server8protocol8envelopeNtB3_7Request3newpEB7_
FNDA:0,_RINvMs_NtNtCsitBd8PkZ0O7_12synap_server8protocol8envelopeNtB5_8Response5errorpEB9_
FNDA:4,_RNvMs_NtNtCsitBd8PkZ0O7_12synap_server8protocol8envelopeNtB4_8Response7success
FNDA:4,_RINvMNtNtCsitBd8PkZ0O7_12synap_server8protocol8envelopeNtB3_7Request3newReECs8aI4Hk7hqWj_14protocol_tests
FNDA:1,_RINvMs_NtNtCsitBd8PkZ0O7_12synap_server8protocol8envelopeNtB5_8Response5errorReECs8aI4Hk7hqWj_14protocol_tests
FNDA:8,_RINvMNtNtCsfrV5S290jXb_12synap_server8protocol8envelopeNtB3_7Request3newReEB7_
FNDA:2,_RINvMs_NtNtCsfrV5S290jXb_12synap_server8protocol8envelopeNtB5_8Response5errorNtNtCsjftXE05v0h2_5alloc6string6StringEB9_
FNDA:4,_RINvMs_NtNtCsfrV5S290jXb_12synap_server8protocol8envelopeNtB5_8Response5errorReEB9_
FNDA:2,_RNvNtNtNtCsfrV5S290jXb_12synap_server8protocol8envelope5testss_16test_request_new
FNDA:2,_RNvNtNtNtCsfrV5S290jXb_12synap_server8protocol8envelope5testss_19test_response_error
FNDA:2,_RNvNtNtNtCsfrV5S290jXb_12synap_server8protocol8envelope5testss_21test_response_success
FNDA:2,_RNvNtNtNtCsfrV5S290jXb_12synap_server8protocol8envelope5testss_23test_request_unique_ids
FNDA:2,_RNvNtNtNtCsfrV5S290jXb_12synap_server8protocol8envelope5testss_26test_request_serialization
FNDA:2,_RNvNtNtNtCsfrV5S290jXb_12synap_server8protocol8envelope5testss_27test_response_serialization
FNDA:2,_RNvNtNtNtCsfrV5S290jXb_12synap_server8protocol8envelope5testss_37test_response_error_string_conversion
FNDA:4,_RNvMs_NtNtCsfrV5S290jXb_12synap_server8protocol8envelopeNtB4_8Response7success
FNF:10
FNH:10
DA:29,12
DA:30,12
DA:31,12
DA:32,12
DA:33,12
DA:34,12
DA:35,12
DA:40,8
DA:41,8
DA:42,8
DA:43,8
DA:44,8
DA:45,8
DA:46,8
DA:47,8
DA:50,7
DA:51,7
DA:52,7
DA:53,7
DA:54,7
DA:55,7
DA:56,7
DA:57,7
DA:66,2
DA:67,2
DA:68,2
DA:70,2
DA:71,2
DA:72,2
DA:73,2
DA:76,2
DA:77,2
DA:78,2
DA:80,2
DA:81,2
DA:83,2
DA:84,2
DA:85,2
DA:86,2
DA:89,2
DA:90,2
DA:91,2
DA:92,2
DA:94,2
DA:95,2
DA:96,2
DA:97,2
DA:98,2
DA:101,2
DA:102,2
DA:103,2
DA:104,2
DA:106,2
DA:107,2
DA:108,2
DA:109,2
DA:110,2
DA:113,2
DA:114,2
DA:116,2
DA:117,2
DA:119,2
DA:120,2
DA:121,2
DA:122,2
DA:123,2
DA:126,2
DA:127,2
DA:128,2
DA:131,2
DA:132,2
DA:135,2
DA:136,2
DA:137,2
DA:139,2
DA:140,2
DA:141,2
BRF:0
BRH:0
LF:77
LH:77
end_of_record
SF:/mnt/f/Node/hivellm/synap/synap-server/src/replication/config.rs
FN:90,_RNvMs_NtNtCsitBd8PkZ0O7_12synap_server11replication6configNtB4_17ReplicationConfig10is_replica
FN:58,_RNvMs_NtNtCsitBd8PkZ0O7_12synap_server11replication6configNtB4_17ReplicationConfig8validate
FN:85,_RNvMs_NtNtCsitBd8PkZ0O7_12synap_server11replication6configNtB4_17ReplicationConfig9is_master
FN:40,_RNvXNtNtCsitBd8PkZ0O7_12synap_server11replication6configNtB2_17ReplicationConfigNtNtCsluXpZPV6FGj_4core7default7Default7default
FN:90,_RNvMs_NtNtCsfrV5S290jXb_12synap_server11replication6configNtB4_17ReplicationConfig10is_replica
FN:58,_RNvMs_NtNtCsfrV5S290jXb_12synap_server11replication6configNtB4_17ReplicationConfig8validate
FN:85,_RNvMs_NtNtCsfrV5S290jXb_12synap_server11replication6configNtB4_17ReplicationConfig9is_master
FN:40,_RNvXNtNtCsfrV5S290jXb_12synap_server11replication6configNtB2_17ReplicationConfigNtNtCsluXpZPV6FGj_4core7default7Default7default
FN:136,_RNvNtNtNtCsfrV5S290jXb_12synap_server11replication6config5testss_16test_role_checks
FN:101,_RNvNtNtNtCsfrV5S290jXb_12synap_server11replication6config5testss_19test_default_config
FN:108,_RNvNtNtNtCsfrV5S290jXb_12synap_server11replication6config5testss_22test_master_validation
FN:122,_RNvNtNtNtCsfrV5S290jXb_12synap_server11replication6config5testss_23test_replica_validation
FNDA:35,_RNvMs_NtNtCsitBd8PkZ0O7_12synap_server11replication6configNtB4_17ReplicationConfig10is_replica
FNDA:2,_RNvMs_NtNtCsitBd8PkZ0O7_12synap_server11replication6configNtB4_17ReplicationConfig8validate
FNDA:34,_RNvMs_NtNtCsitBd8PkZ0O7_12synap_server11replication6configNtB4_17ReplicationConfig9is_master
FNDA:134,_RNvXNtNtCsitBd8PkZ0O7_12synap_server11replication6configNtB2_17ReplicationConfigNtNtCsluXpZPV6FGj_4core7default7Default7default
FNDA:12,_RNvMs_NtNtCsfrV5S290jXb_12synap_server11replication6configNtB4_17ReplicationConfig10is_replica
FNDA:16,_RNvMs_NtNtCsfrV5S290jXb_12synap_server11replication6configNtB4_17ReplicationConfig8validate
FNDA:12,_RNvMs_NtNtCsfrV5S290jXb_12synap_server11replication6configNtB4_17ReplicationConfig9is_master
FNDA:34,_RNvXNtNtCsfrV5S290jXb_12synap_server11replication6configNtB2_17ReplicationConfigNtNtCsluXpZPV6FGj_4core7default7Default7default
FNDA:2,_RNvNtNtNtCsfrV5S290jXb_12synap_server11replication6config5testss_16test_role_checks
FNDA:2,_RNvNtNtNtCsfrV5S290jXb_12synap_server11replication6config5testss_19test_default_config
FNDA:2,_RNvNtNtNtCsfrV5S290jXb_12synap_server11replication6config5testss_22test_master_validation
FNDA:2,_RNvNtNtNtCsfrV5S290jXb_12synap_server11replication6config5testss_23test_replica_validation
FNF:8
FNH:8
DA:40,168
DA:41,168
DA:42,168
DA:43,168
DA:44,168
DA:45,168
DA:46,168
DA:47,168
DA:48,168
DA:49,168
DA:50,168
DA:51,168
DA:52,168
DA:53,168
DA:58,18
DA:59,18
DA:60,0
DA:61,18
DA:63,18
DA:65,9
DA:66,5
DA:67,4
DA:70,9
DA:71,5
DA:72,4
DA:75,0
DA:76,0
DA:77,0
DA:81,8
DA:82,18
DA:85,46
DA:86,46
DA:87,46
DA:90,47
DA:91,47
DA:92,47
DA:101,2
DA:102,2
DA:103,2
DA:104,2
DA:105,2
DA:108,2
DA:109,2
DA:110,2
DA:111,2
DA:114,2
DA:117,2
DA:118,2
DA:119,2
DA:122,2
DA:123,2
DA:124,2
DA:125,2
DA:128,2
DA:131,2
DA:132,2
DA:133,2
DA:136,2
DA:137,2
DA:138,2
DA:140,2
DA:141,2
DA:142,2
DA:144,2
DA:145,2
DA:146,2
DA:147,2
BRF:0
BRH:0
LF:67
LH:63
end_of_record
SF:/mnt/f/Node/hivellm/synap/synap-server/src/replication/failover.rs
FN:72,_RNCNvMNtNtCsitBd8PkZ0O7_12synap_server11replication8failoverNtB4_15FailoverManager13wait_for_sync0B8_
FN:102,_RNCNvMNtNtCsitBd8PkZ0O7_12synap_server11replication8failoverNtB4_15FailoverManager24demote_master_to_replica0B8_
FN:39,_RNCNvMNtNtCsitBd8PkZ0O7_12synap_server11replication8failoverNtB4_15FailoverManager25promote_replica_to_master0B8_
FN:72,_RNvMNtNtCsitBd8PkZ0O7_12synap_server11replication8failoverNtB2_15FailoverManager13wait_for_sync
FN:98,_RNvMNtNtCsitBd8PkZ0O7_12synap_server11replication8failoverNtB2_15FailoverManager24demote_master_to_replica
FN:36,_RNvMNtNtCsitBd8PkZ0O7_12synap_server11replication8failoverNtB2_15FailoverManager25promote_replica_to_master
FN:23,_RNvMNtNtCsitBd8PkZ0O7_12synap_server11replication8failoverNtB2_15FailoverManager3new
FN:144,_RNvNtNtNtCsfrV5S290jXb_12synap_server11replication8failover5testss_20test_promote_replica
FN:136,_RNvNtNtNtCsfrV5S290jXb_12synap_server11replication8failover5testss_30test_failover_manager_creation
FN:72,_RNvMNtNtCsfrV5S290jXb_12synap_server11replication8failoverNtB2_15FailoverManager13wait_for_sync
FN:36,_RNvMNtNtCsfrV5S290jXb_12synap_server11replication8failoverNtB2_15FailoverManager25promote_replica_to_master
FN:23,_RNvMNtNtCsfrV5S290jXb_12synap_server11replication8failoverNtB2_15FailoverManager3new
FN:144,_RNCNvNtNtNtCsfrV5S290jXb_12synap_server11replication8failover5testss_20test_promote_replica0B9_
FN:136,_RNCNvNtNtNtCsfrV5S290jXb_12synap_server11replication8failover5testss_30test_failover_manager_creation0B9_
FN:102,_RNCNvMNtNtCsfrV5S290jXb_12synap_server11replication8failoverNtB4_15FailoverManager24demote_master_to_replica0B8_
FN:98,_RNvMNtNtCsfrV5S290jXb_12synap_server11replication8failoverNtB2_15FailoverManager24demote_master_to_replica
FN:72,_RNCNvMNtNtCsfrV5S290jXb_12synap_server11replication8failoverNtB4_15FailoverManager13wait_for_sync0B8_
FN:39,_RNCNvMNtNtCsfrV5S290jXb_12synap_server11replication8failoverNtB4_15FailoverManager25promote_replica_to_master0B8_
FNDA:0,_RNCNvMNtNtCsitBd8PkZ0O7_12synap_server11replication8failoverNtB4_15FailoverManager13wait_for_sync0B8_
FNDA:0,_RNCNvMNtNtCsitBd8PkZ0O7_12synap_server11replication8failoverNtB4_15FailoverManager24demote_master_to_replica0B8_
FNDA:0,_RNCNvMNtNtCsitBd8PkZ0O7_12synap_server11replication8failoverNtB4_15FailoverManager25promote_replica_to_master0B8_
FNDA:0,_RNvMNtNtCsitBd8PkZ0O7_12synap_server11replication8failoverNtB2_15FailoverManager13wait_for_sync
FNDA:0,_RNvMNtNtCsitBd8PkZ0O7_12synap_server11replication8failoverNtB2_15FailoverManager24demote_master_to_replica
FNDA:0,_RNvMNtNtCsitBd8PkZ0O7_12synap_server11replication8failoverNtB2_15FailoverManager25promote_replica_to_master
FNDA:0,_RNvMNtNtCsitBd8PkZ0O7_12synap_server11replication8failoverNtB2_15FailoverManager3new
FNDA:2,_RNvNtNtNtCsfrV5S290jXb_12synap_server11replication8failover5testss_20test_promote_replica
FNDA:2,_RNvNtNtNtCsfrV5S290jXb_12synap_server11replication8failover5testss_30test_failover_manager_creation
FNDA:2,_RNvMNtNtCsfrV5S290jXb_12synap_server11replication8failoverNtB2_15FailoverManager13wait_for_sync
FNDA:2,_RNvMNtNtCsfrV5S290jXb_12synap_server11replication8failoverNtB2_15FailoverManager25promote_replica_to_master
FNDA:2,_RNvMNtNtCsfrV5S290jXb_12synap_server11replication8failoverNtB2_15FailoverManager3new
FNDA:2,_RNCNvNtNtNtCsfrV5S290jXb_12synap_server11replication8failover5testss_20test_promote_replica0B9_
FNDA:2,_RNCNvNtNtNtCsfrV5S290jXb_12synap_server11replication8failover5testss_30test_failover_manager_creation0B9_
FNDA:0,_RNCNvMNtNtCsfrV5S290jXb_12synap_server11replication8failoverNtB4_15FailoverManager24demote_master_to_replica0B8_
FNDA:0,_RNvMNtNtCsfrV5S290jXb_12synap_server11replication8failoverNtB2_15FailoverManager24demote_master_to_replica
FNDA:2,_RNCNvMNtNtCsfrV5S290jXb_12synap_server11replication8failoverNtB4_15FailoverManager13wait_for_sync0B8_
FNDA:2,_RNCNvMNtNtCsfrV5S290jXb_12synap_server11replication8failoverNtB4_15FailoverManager25promote_replica_to_master0B8_
FNF:11
FNH:9
DA:23,2
DA:24,2
DA:25,2
DA:36,2
DA:37,2
DA:38,2
DA:39,2
DA:40,2
DA:43,2
DA:46,2
DA:47,2
DA:51,2
DA:54,2
DA:55,2
DA:56,2
DA:57,2
DA:58,2
DA:59,2
DA:60,2
DA:61,2
DA:64,2
DA:66,2
DA:68,2
DA:69,2
DA:72,2
DA:76,2
DA:79,2
DA:82,2
DA:83,2
DA:84,2
DA:85,0
DA:88,0
DA:89,0
DA:90,0
DA:93,0
DA:95,2
DA:98,0
DA:99,0
DA:100,0
DA:101,0
DA:102,0
DA:103,0
DA:104,0
DA:110,0
DA:113,0
DA:114,0
DA:115,0
DA:116,0
DA:117,0
DA:118,0
DA:119,0
DA:122,0
DA:124,0
DA:126,0
DA:127,0
DA:136,2
DA:137,2
DA:138,2
DA:141,2
DA:144,2
DA:146,2
DA:147,2
DA:148,2
DA:149,2
DA:150,2
DA:152,2
DA:153,2
DA:154,2
DA:155,2
DA:158,2
DA:159,2
DA:160,2
DA:163,2
DA:165,2
DA:166,2
BRF:0
BRH:0
LF:82
LH:57
end_of_record
SF:/mnt/f/Node/hivellm/synap/synap-server/src/replication/master.rs
FN:222,_RNCNCNvMNtNtCsitBd8PkZ0O7_12synap_server11replication6masterNtB6_10MasterNode14handle_replica00Ba_
FN:323,_RNCNvMNtNtCsitBd8PkZ0O7_12synap_server11replication6masterNtB4_10MasterNode12send_command0B8_
FN:169,_RNCNvMNtNtCsitBd8PkZ0O7_12synap_server11replication6masterNtB4_10MasterNode14handle_replica0B8_
FN:362,_RNCNvMNtNtCsitBd8PkZ0O7_12synap_server11replication6masterNtB4_10MasterNode14heartbeat_task0B8_
FN:292,_RNCNvMNtNtCsitBd8PkZ0O7_12synap_server11replication6masterNtB4_10MasterNode14send_full_sync0B8_
FN:385,_RNCNvMNtNtCsitBd8PkZ0O7_12synap_server11replication6masterNtB4_10MasterNode16replication_task0B8_
FN:341,_RNCNvMNtNtCsitBd8PkZ0O7_12synap_server11replication6masterNtB4_10MasterNode17send_partial_sync0B8_
FN:124,_RNCNvMNtNtCsitBd8PkZ0O7_12synap_server11replication6masterNtB4_10MasterNode19listen_for_replicas0B8_
FN:63,_RNCNvMNtNtCsitBd8PkZ0O7_12synap_server11replication6masterNtB4_10MasterNode3new0B8_
FN:320,_RNvMNtNtCsitBd8PkZ0O7_12synap_server11replication6masterNtB2_10MasterNode12send_command
FN:424,_RNvMNtNtCsitBd8PkZ0O7_12synap_server11replication6masterNtB2_10MasterNode13list_replicas
FN:162,_RNvMNtNtCsitBd8PkZ0O7_12synap_server11replication6masterNtB2_10MasterNode14handle_replica
FN:359,_RNvMNtNtCsitBd8PkZ0O7_12synap_server11replication6masterNtB2_10MasterNode14heartbeat_task
FN:287,_RNvMNtNtCsitBd8PkZ0O7_12synap_server11replication6masterNtB2_10MasterNode14send_full_sync
FN:381,_RNvMNtNtCsitBd8PkZ0O7_12synap_server11replication6masterNtB2_10MasterNode16replication_task
FN:463,_RNvMNtNtCsitBd8PkZ0O7_12synap_server11replication6masterNtB2_10MasterNode17current_timestamp
FN:337,_RNvMNtNtCsitBd8PkZ0O7_12synap_server11replication6masterNtB2_10MasterNode17send_partial_sync
FN:118,_RNvMNtNtCsitBd8PkZ0O7_12synap_server11replication6masterNtB2_10MasterNode19listen_for_replicas
FN:59,_RNvMNtNtCsitBd8PkZ0O7_12synap_server11replication6masterNtB2_10MasterNode3new
FN:440,_RNvMNtNtCsitBd8PkZ0O7_12synap_server11replication6masterNtB2_10MasterNode5stats
FN:412,_RNvMNtNtCsitBd8PkZ0O7_12synap_server11replication6masterNtB2_10MasterNode9replicate
FN:428,_RNCNvMNtNtCsitBd8PkZ0O7_12synap_server11replication6masterNtB4_10MasterNode13list_replicas0B8_
FN:222,_RNCNCNvMNtNtCsitBd8PkZ0O7_12synap_server11replication6masterNtB6_10MasterNode14handle_replica00CsgjR3Yp6g7MS_20kv_replication_tests
FN:323,_RNCNvMNtNtCsitBd8PkZ0O7_12synap_server11replication6masterNtB4_10MasterNode12send_command0CsgjR3Yp6g7MS_20kv_replication_tests
FN:169,_RNCNvMNtNtCsitBd8PkZ0O7_12synap_server11replication6masterNtB4_10MasterNode14handle_replica0CsgjR3Yp6g7MS_20kv_replication_tests
FN:362,_RNCNvMNtNtCsitBd8PkZ0O7_12synap_server11replication6masterNtB4_10MasterNode14heartbeat_task0CsgjR3Yp6g7MS_20kv_replication_tests
FN:292,_RNCNvMNtNtCsitBd8PkZ0O7_12synap_server11replication6masterNtB4_10MasterNode14send_full_sync0CsgjR3Yp6g7MS_20kv_replication_tests
FN:385,_RNCNvMNtNtCsitBd8PkZ0O7_12synap_server11replication6masterNtB4_10MasterNode16replication_task0CsgjR3Yp6g7MS_20kv_replication_tests
FN:341,_RNCNvMNtNtCsitBd8PkZ0O7_12synap_server11replication6masterNtB4_10MasterNode17send_partial_sync0CsgjR3Yp6g7MS_20kv_replication_tests
FN:124,_RNCNvMNtNtCsitBd8PkZ0O7_12synap_server11replication6masterNtB4_10MasterNode19listen_for_replicas0CsgjR3Yp6g7MS_20kv_replication_tests
FN:63,_RNCNvMNtNtCsitBd8PkZ0O7_12synap_server11replication6masterNtB4_10MasterNode3new0CsgjR3Yp6g7MS_20kv_replication_tests
FN:222,_RNCNCNvMNtNtCsitBd8PkZ0O7_12synap_server11replication6masterNtB6_10MasterNode14handle_replica00Cs2pBc2xJXSiG_20replication_extended
FN:323,_RNCNvMNtNtCsitBd8PkZ0O7_12synap_server11replication6masterNtB4_10MasterNode12send_command0Cs2pBc2xJXSiG_20replication_extended
FN:169,_RNCNvMNtNtCsitBd8PkZ0O7_12synap_server11replication6masterNtB4_10MasterNode14handle_replica0Cs2pBc2xJXSiG_20replication_extended
FN:362,_RNCNvMNtNtCsitBd8PkZ0O7_12synap_server11replication6masterNtB4_10MasterNode14heartbeat_task0Cs2pBc2xJXSiG_20replication_extended
FN:292,_RNCNvMNtNtCsitBd8PkZ0O7_12synap_server11replication6masterNtB4_10MasterNode14send_full_sync0Cs2pBc2xJXSiG_20replication_extended
FN:385,_RNCNvMNtNtCsitBd8PkZ0O7_12synap_server11replication6masterNtB4_10MasterNode16replication_task0Cs2pBc2xJXSiG_20replication_extended
FN:341,_RNCNvMNtNtCsitBd8PkZ0O7_12synap_server11replication6masterNtB4_10MasterNode17send_partial_sync0Cs2pBc2xJXSiG_20replication_extended
FN:124,_RNCNvMNtNtCsitBd8PkZ0O7_12synap_server11replication6masterNtB4_10MasterNode19listen_for_replicas0Cs2pBc2xJXSiG_20replication_extended
FN:63,_RNCNvMNtNtCsitBd8PkZ0O7_12synap_server11replication6masterNtB4_10MasterNode3new0Cs2pBc2xJXSiG_20replication_extended
FN:222,_RNCNCNvMNtNtCsitBd8PkZ0O7_12synap_server11replication6masterNtB6_10MasterNode14handle_replica00CsbXjVQbO2bnJ_23replication_integration
FN:323,_RNCNvMNtNtCsitBd8PkZ0O7_12synap_server11replication6masterNtB4_10MasterNode12send_command0CsbXjVQbO2bnJ_23replication_integration
FN:169,_RNCNvMNtNtCsitBd8PkZ0O7_12synap_server11replication6masterNtB4_10MasterNode14handle_replica0CsbXjVQbO2bnJ_23replication_integration
FN:362,_RNCNvMNtNtCsitBd8PkZ0O7_12synap_server11replication6masterNtB4_10MasterNode14heartbeat_task0CsbXjVQbO2bnJ_23replication_integration
FN:292,_RNCNvMNtNtCsitBd8PkZ0O7_12synap_server11replication6masterNtB4_10MasterNode14send_full_sync0CsbXjVQbO2bnJ_23replication_integration
FN:385,_RNCNvMNtNtCsitBd8PkZ0O7_12synap_server11replication6masterNtB4_10MasterNode16replication_task0CsbXjVQbO2bnJ_23replication_integration
FN:341,_RNCNvMNtNtCsitBd8PkZ0O7_12synap_server11replication6masterNtB4_10MasterNode17send_partial_sync0CsbXjVQbO2bnJ_23replication_integration
FN:124,_RNCNvMNtNtCsitBd8PkZ0O7_12synap_server11replication6masterNtB4_10MasterNode19listen_for_replicas0CsbXjVQbO2bnJ_23replication_integration
FN:63,_RNCNvMNtNtCsitBd8PkZ0O7_12synap_server11replication6masterNtB4_10MasterNode3new0CsbXjVQbO2bnJ_23replication_integration
FN:222,_RNCNCNvMNtNtCsitBd8PkZ0O7_12synap_server11replication6masterNtB6_10MasterNode14handle_replica00CsloXyHHqBjUg_24stream_replication_tests
FN:323,_RNCNvMNtNtCsitBd8PkZ0O7_12synap_server11replication6masterNtB4_10MasterNode12send_command0CsloXyHHqBjUg_24stream_replication_tests
FN:169,_RNCNvMNtNtCsitBd8PkZ0O7_12synap_server11replication6masterNtB4_10MasterNode14handle_replica0CsloXyHHqBjUg_24stream_replication_tests
FN:362,_RNCNvMNtNtCsitBd8PkZ0O7_12synap_server11replication6masterNtB4_10MasterNode14heartbeat_task0CsloXyHHqBjUg_24stream_replication_tests
FN:292,_RNCNvMNtNtCsitBd8PkZ0O7_12synap_server11replication6masterNtB4_10MasterNode14send_full_sync0CsloXyHHqBjUg_24stream_replication_tests
FN:385,_RNCNvMNtNtCsitBd8PkZ0O7_12synap_server11replication6masterNtB4_10MasterNode16replication_task0CsloXyHHqBjUg_24stream_replication_tests
FN:341,_RNCNvMNtNtCsitBd8PkZ0O7_12synap_server11replication6masterNtB4_10MasterNode17send_partial_sync0CsloXyHHqBjUg_24stream_replication_tests
FN:124,_RNCNvMNtNtCsitBd8PkZ0O7_12synap_server11replication6masterNtB4_10MasterNode19listen_for_replicas0CsloXyHHqBjUg_24stream_replication_tests
FN:63,_RNCNvMNtNtCsitBd8PkZ0O7_12synap_server11replication6masterNtB4_10MasterNode3new0CsloXyHHqBjUg_24stream_replication_tests
FN:477,_RNCNvNtNtNtCsfrV5S290jXb_12synap_server11replication6master5testss_26test_master_initialization0B9_
FN:490,_RNCNvNtNtNtCsfrV5S290jXb_12synap_server11replication6master5testss_27test_master_replication_log0B9_
FN:477,_RNvNtNtNtCsfrV5S290jXb_12synap_server11replication6master5testss_26test_master_initialization
FN:490,_RNvNtNtNtCsfrV5S290jXb_12synap_server11replication6master5testss_27test_master_replication_log
FN:428,_RNCNvMNtNtCsfrV5S290jXb_12synap_server11replication6masterNtB4_10MasterNode13list_replicas0B8_
FN:424,_RNvMNtNtCsfrV5S290jXb_12synap_server11replication6masterNtB2_10MasterNode13list_replicas
FN:222,_RNCNCNvMNtNtCsfrV5S290jXb_12synap_server11replication6masterNtB6_10MasterNode14handle_replica00Ba_
FN:323,_RNCNvMNtNtCsfrV5S290jXb_12synap_server11replication6masterNtB4_10MasterNode12send_command0B8_
FN:169,_RNCNvMNtNtCsfrV5S290jXb_12synap_server11replication6masterNtB4_10MasterNode14handle_replica0B8_
FN:362,_RNCNvMNtNtCsfrV5S290jXb_12synap_server11replication6masterNtB4_10MasterNode14heartbeat_task0B8_
FN:292,_RNCNvMNtNtCsfrV5S290jXb_12synap_server11replication6masterNtB4_10MasterNode14send_full_sync0B8_
FN:385,_RNCNvMNtNtCsfrV5S290jXb_12synap_server11replication6masterNtB4_10MasterNode16replication_task0B8_
FN:341,_RNCNvMNtNtCsfrV5S290jXb_12synap_server11replication6masterNtB4_10MasterNode17send_partial_sync0B8_
FN:124,_RNCNvMNtNtCsfrV5S290jXb_12synap_server11replication6masterNtB4_10MasterNode19listen_for_replicas0B8_
FN:63,_RNCNvMNtNtCsfrV5S290jXb_12synap_server11replication6masterNtB4_10MasterNode3new0B8_
FN:320,_RNvMNtNtCsfrV5S290jXb_12synap_server11replication6masterNtB2_10MasterNode12send_command
FN:162,_RNvMNtNtCsfrV5S290jXb_12synap_server11replication6masterNtB2_10MasterNode14handle_replica
FN:359,_RNvMNtNtCsfrV5S290jXb_12synap_server11replication6masterNtB2_10MasterNode14heartbeat_task
FN:287,_RNvMNtNtCsfrV5S290jXb_12synap_server11replication6masterNtB2_10MasterNode14send_full_sync
FN:381,_RNvMNtNtCsfrV5S290jXb_12synap_server11replication6masterNtB2_10MasterNode16replication_task
FN:463,_RNvMNtNtCsfrV5S290jXb_12synap_server11replication6masterNtB2_10MasterNode17current_timestamp
FN:337,_RNvMNtNtCsfrV5S290jXb_12synap_server11replication6masterNtB2_10MasterNode17send_partial_sync
FN:118,_RNvMNtNtCsfrV5S290jXb_12synap_server11replication6masterNtB2_10MasterNode19listen_for_replicas
FN:59,_RNvMNtNtCsfrV5S290jXb_12synap_server11replication6masterNtB2_10MasterNode3new
FN:440,_RNvMNtNtCsfrV5S290jXb_12synap_server11replication6masterNtB2_10MasterNode5stats
FN:412,_RNvMNtNtCsfrV5S290jXb_12synap_server11replication6masterNtB2_10MasterNode9replicate
FNDA:0,_RNCNCNvMNtNtCsitBd8PkZ0O7_12synap_server11replication6masterNtB6_10MasterNode14handle_replica00Ba_
FNDA:0,_RNCNvMNtNtCsitBd8PkZ0O7_12synap_server11replication6masterNtB4_10MasterNode12send_command0B8_
FNDA:0,_RNCNvMNtNtCsitBd8PkZ0O7_12synap_server11replication6masterNtB4_10MasterNode14handle_replica0B8_
FNDA:0,_RNCNvMNtNtCsitBd8PkZ0O7_12synap_server11replication6masterNtB4_10MasterNode14heartbeat_task0B8_
FNDA:0,_RNCNvMNtNtCsitBd8PkZ0O7_12synap_server11replication6masterNtB4_10MasterNode14send_full_sync0B8_
FNDA:0,_RNCNvMNtNtCsitBd8PkZ0O7_12synap_server11replication6masterNtB4_10MasterNode16replication_task0B8_
FNDA:0,_RNCNvMNtNtCsitBd8PkZ0O7_12synap_server11replication6masterNtB4_10MasterNode17send_partial_sync0B8_
FNDA:0,_RNCNvMNtNtCsitBd8PkZ0O7_12synap_server11replication6masterNtB4_10MasterNode19listen_for_replicas0B8_
FNDA:0,_RNCNvMNtNtCsitBd8PkZ0O7_12synap_server11replication6masterNtB4_10MasterNode3new0B8_
FNDA:5194,_RNvMNtNtCsitBd8PkZ0O7_12synap_server11replication6masterNtB2_10MasterNode12send_command
FNDA:1,_RNvMNtNtCsitBd8PkZ0O7_12synap_server11replication6masterNtB2_10MasterNode13list_replicas
FNDA:33,_RNvMNtNtCsitBd8PkZ0O7_12synap_server11replication6masterNtB2_10MasterNode14handle_replica
FNDA:34,_RNvMNtNtCsitBd8PkZ0O7_12synap_server11replication6masterNtB2_10MasterNode14heartbeat_task
FNDA:33,_RNvMNtNtCsitBd8PkZ0O7_12synap_server11replication6masterNtB2_10MasterNode14send_full_sync
FNDA:34,_RNvMNtNtCsitBd8PkZ0O7_12synap_server11replication6masterNtB2_10MasterNode16replication_task
FNDA:5230,_RNvMNtNtCsitBd8PkZ0O7_12synap_server11replication6masterNtB2_10MasterNode17current_timestamp
FNDA:0,_RNvMNtNtCsitBd8PkZ0O7_12synap_server11replication6masterNtB2_10MasterNode17send_partial_sync
FNDA:34,_RNvMNtNtCsitBd8PkZ0O7_12synap_server11replication6masterNtB2_10MasterNode19listen_for_replicas
FNDA:34,_RNvMNtNtCsitBd8PkZ0O7_12synap_server11replication6masterNtB2_10MasterNode3new
FNDA:3,_RNvMNtNtCsitBd8PkZ0O7_12synap_server11replication6masterNtB2_10MasterNode5stats
FNDA:5451,_RNvMNtNtCsitBd8PkZ0O7_12synap_server11replication6masterNtB2_10MasterNode9replicate
FNDA:0,_RNCNvMNtNtCsitBd8PkZ0O7_12synap_server11replication6masterNtB4_10MasterNode13list_replicas0B8_
FNDA:0,_RNCNCNvMNtNtCsitBd8PkZ0O7_12synap_server11replication6masterNtB6_10MasterNode14handle_replica00CsgjR3Yp6g7MS_20kv_replication_tests
FNDA:425,_RNCNvMNtNtCsitBd8PkZ0O7_12synap_server11replication6masterNtB4_10MasterNode12send_command0CsgjR3Yp6g7MS_20kv_replication_tests
FNDA:16,_RNCNvMNtNtCsitBd8PkZ0O7_12synap_server11replication6masterNtB4_10MasterNode14handle_replica0CsgjR3Yp6g7MS_20kv_replication_tests
FNDA:16,_RNCNvMNtNtCsitBd8PkZ0O7_12synap_server11replication6masterNtB4_10MasterNode14heartbeat_task0CsgjR3Yp6g7MS_20kv_replication_tests
FNDA:16,_RNCNvMNtNtCsitBd8PkZ0O7_12synap_server11replication6masterNtB4_10MasterNode14send_full_sync0CsgjR3Yp6g7MS_20kv_replication_tests
FNDA:16,_RNCNvMNtNtCsitBd8PkZ0O7_12synap_server11replication6masterNtB4_10MasterNode16replication_task0CsgjR3Yp6g7MS_20kv_replication_tests
FNDA:0,_RNCNvMNtNtCsitBd8PkZ0O7_12synap_server11replication6masterNtB4_10MasterNode17send_partial_sync0CsgjR3Yp6g7MS_20kv_replication_tests
FNDA:16,_RNCNvMNtNtCsitBd8PkZ0O7_12synap_server11replication6masterNtB4_10MasterNode19listen_for_replicas0CsgjR3Yp6g7MS_20kv_replication_tests
FNDA:16,_RNCNvMNtNtCsitBd8PkZ0O7_12synap_server11replication6masterNtB4_10MasterNode3new0CsgjR3Yp6g7MS_20kv_replication_tests
FNDA:0,_RNCNCNvMNtNtCsitBd8PkZ0O7_12synap_server11replication6masterNtB6_10MasterNode14handle_replica00Cs2pBc2xJXSiG_20replication_extended
FNDA:0,_RNCNvMNtNtCsitBd8PkZ0O7_12synap_server11replication6masterNtB4_10MasterNode12send_command0Cs2pBc2xJXSiG_20replication_extended
FNDA:0,_RNCNvMNtNtCsitBd8PkZ0O7_12synap_server11replication6masterNtB4_10MasterNode14handle_replica0Cs2pBc2xJXSiG_20replication_extended
FNDA:0,_RNCNvMNtNtCsitBd8PkZ0O7_12synap_server11replication6masterNtB4_10MasterNode14heartbeat_task0Cs2pBc2xJXSiG_20replication_extended
FNDA:0,_RNCNvMNtNtCsitBd8PkZ0O7_12synap_server11replication6masterNtB4_10MasterNode14send_full_sync0Cs2pBc2xJXSiG_20replication_extended
FNDA:0,_RNCNvMNtNtCsitBd8PkZ0O7_12synap_server11replication6masterNtB4_10MasterNode16replication_task0Cs2pBc2xJXSiG_20replication_extended
FNDA:0,_RNCNvMNtNtCsitBd8PkZ0O7_12synap_server11replication6masterNtB4_10MasterNode17send_partial_sync0Cs2pBc2xJXSiG_20replication_extended
FNDA:0,_RNCNvMNtNtCsitBd8PkZ0O7_12synap_server11replication6masterNtB4_10MasterNode19listen_for_replicas0Cs2pBc2xJXSiG_20replication_extended
FNDA:3,_RNCNvMNtNtCsitBd8PkZ0O7_12synap_server11replication6masterNtB4_10MasterNode3new0Cs2pBc2xJXSiG_20replication_extended
FNDA:0,_RNCNCNvMNtNtCsitBd8PkZ0O7_12synap_server11replication6masterNtB6_10MasterNode14handle_replica00CsbXjVQbO2bnJ_23replication_integration
FNDA:4632,_RNCNvMNtNtCsitBd8PkZ0O7_12synap_server11replication6masterNtB4_10MasterNode12send_command0CsbXjVQbO2bnJ_23replication_integration
FNDA:12,_RNCNvMNtNtCsitBd8PkZ0O7_12synap_server11replication6masterNtB4_10MasterNode14handle_replica0CsbXjVQbO2bnJ_23replication_integration
FNDA:10,_RNCNvMNtNtCsitBd8PkZ0O7_12synap_server11replication6masterNtB4_10MasterNode14heartbeat_task0CsbXjVQbO2bnJ_23replication_integration
FNDA:12,_RNCNvMNtNtCsitBd8PkZ0O7_12synap_server11replication6masterNtB4_10MasterNode14send_full_sync0CsbXjVQbO2bnJ_23replication_integration
FNDA:10,_RNCNvMNtNtCsitBd8PkZ0O7_12synap_server11replication6masterNtB4_10MasterNode16replication_task0CsbXjVQbO2bnJ_23replication_integration
FNDA:0,_RNCNvMNtNtCsitBd8PkZ0O7_12synap_server11replication6masterNtB4_10MasterNode17send_partial_sync0CsbXjVQbO2bnJ_23replication_integration
FNDA:10,_RNCNvMNtNtCsitBd8PkZ0O7_12synap_server11replication6masterNtB4_10MasterNode19listen_for_replicas0CsbXjVQbO2bnJ_23replication_integration
FNDA:10,_RNCNvMNtNtCsitBd8PkZ0O7_12synap_server11replication6masterNtB4_10MasterNode3new0CsbXjVQbO2bnJ_23replication_integration
FNDA:5,_RNCNCNvMNtNtCsitBd8PkZ0O7_12synap_server11replication6masterNtB6_10MasterNode14handle_replica00CsloXyHHqBjUg_24stream_replication_tests
FNDA:137,_RNCNvMNtNtCsitBd8PkZ0O7_12synap_server11replication6masterNtB4_10MasterNode12send_command0CsloXyHHqBjUg_24stream_replication_tests
FNDA:5,_RNCNvMNtNtCsitBd8PkZ0O7_12synap_server11replication6masterNtB4_10MasterNode14handle_replica0CsloXyHHqBjUg_24stream_replication_tests
FNDA:5,_RNCNvMNtNtCsitBd8PkZ0O7_12synap_server11replication6masterNtB4_10MasterNode14heartbeat_task0CsloXyHHqBjUg_24stream_replication_tests
FNDA:5,_RNCNvMNtNtCsitBd8PkZ0O7_12synap_server11replication6masterNtB4_10MasterNode14send_full_sync0CsloXyHHqBjUg_24stream_replication_tests
FNDA:5,_RNCNvMNtNtCsitBd8PkZ0O7_12synap_server11replication6masterNtB4_10MasterNode16replication_task0CsloXyHHqBjUg_24stream_replication_tests
FNDA:0,_RNCNvMNtNtCsitBd8PkZ0O7_12synap_server11replication6masterNtB4_10MasterNode17send_partial_sync0CsloXyHHqBjUg_24stream_replication_tests
FNDA:5,_RNCNvMNtNtCsitBd8PkZ0O7_12synap_server11replication6masterNtB4_10MasterNode19listen_for_replicas0CsloXyHHqBjUg_24stream_replication_tests
FNDA:5,_RNCNvMNtNtCsitBd8PkZ0O7_12synap_server11replication6masterNtB4_10MasterNode3new0CsloXyHHqBjUg_24stream_replication_tests
FNDA:2,_RNCNvNtNtNtCsfrV5S290jXb_12synap_server11replication6master5testss_26test_master_initialization0B9_
FNDA:2,_RNCNvNtNtNtCsfrV5S290jXb_12synap_server11replication6master5testss_27test_master_replication_log0B9_
FNDA:2,_RNvNtNtNtCsfrV5S290jXb_12synap_server11replication6master5testss_26test_master_initialization
FNDA:2,_RNvNtNtNtCsfrV5S290jXb_12synap_server11replication6master5testss_27test_master_replication_log
FNDA:0,_RNCNvMNtNtCsfrV5S290jXb_12synap_server11replication6masterNtB4_10MasterNode13list_replicas0B8_
FNDA:0,_RNvMNtNtCsfrV5S290jXb_12synap_server11replication6masterNtB2_10MasterNode13list_replicas
FNDA:0,_RNCNCNvMNtNtCsfrV5S290jXb_12synap_server11replication6masterNtB6_10MasterNode14handle_replica00Ba_
FNDA:0,_RNCNvMNtNtCsfrV5S290jXb_12synap_server11replication6masterNtB4_10MasterNode12send_command0B8_
FNDA:0,_RNCNvMNtNtCsfrV5S290jXb_12synap_server11replication6masterNtB4_10MasterNode14handle_replica0B8_
FNDA:0,_RNCNvMNtNtCsfrV5S290jXb_12synap_server11replication6masterNtB4_10MasterNode14heartbeat_task0B8_
FNDA:0,_RNCNvMNtNtCsfrV5S290jXb_12synap_server11replication6masterNtB4_10MasterNode14send_full_sync0B8_
FNDA:0,_RNCNvMNtNtCsfrV5S290jXb_12synap_server11replication6masterNtB4_10MasterNode16replication_task0B8_
FNDA:0,_RNCNvMNtNtCsfrV5S290jXb_12synap_server11replication6masterNtB4_10MasterNode17send_partial_sync0B8_
FNDA:0,_RNCNvMNtNtCsfrV5S290jXb_12synap_server11replication6masterNtB4_10MasterNode19listen_for_replicas0B8_
FNDA:8,_RNCNvMNtNtCsfrV5S290jXb_12synap_server11replication6masterNtB4_10MasterNode3new0B8_
FNDA:0,_RNvMNtNtCsfrV5S290jXb_12synap_server11replication6masterNtB2_10MasterNode12send_command
FNDA:0,_RNvMNtNtCsfrV5S290jXb_12synap_server11replication6masterNtB2_10MasterNode14handle_replica
FNDA:8,_RNvMNtNtCsfrV5S290jXb_12synap_server11replication6masterNtB2_10MasterNode14heartbeat_task
FNDA:0,_RNvMNtNtCsfrV5S290jXb_12synap_server11replication6masterNtB2_10MasterNode14send_full_sync
FNDA:8,_RNvMNtNtCsfrV5S290jXb_12synap_server11replication6masterNtB2_10MasterNode16replication_task
FNDA:6,_RNvMNtNtCsfrV5S290jXb_12synap_server11replication6masterNtB2_10MasterNode17current_timestamp
FNDA:0,_RNvMNtNtCsfrV5S290jXb_12synap_server11replication6masterNtB2_10MasterNode17send_partial_sync
FNDA:8,_RNvMNtNtCsfrV5S290jXb_12synap_server11replication6masterNtB2_10MasterNode19listen_for_replicas
FNDA:8,_RNvMNtNtCsfrV5S290jXb_12synap_server11replication6masterNtB2_10MasterNode3new
FNDA:6,_RNvMNtNtCsfrV5S290jXb_12synap_server11replication6masterNtB2_10MasterNode5stats
FNDA:6,_RNvMNtNtCsfrV5S290jXb_12synap_server11replication6masterNtB2_10MasterNode9replicate
FNF:26
FNH:23
DA:59,42
DA:60,42
DA:61,42
DA:62,42
DA:63,42
DA:64,42
DA:65,0
DA:66,42
DA:68,42
DA:69,0
DA:70,0
DA:74,42
DA:76,42
DA:77,42
DA:80,42
DA:81,42
DA:82,42
DA:83,42
DA:84,42
DA:86,42
DA:87,42
DA:88,42
DA:89,42
DA:90,42
DA:91,42
DA:95,42
DA:96,42
DA:97,42
DA:100,42
DA:101,42
DA:102,42
DA:103,42
DA:104,42
DA:105,42
DA:108,42
DA:109,42
DA:110,42
DA:111,42
DA:112,42
DA:113,42
DA:114,42
DA:115,42
DA:118,42
DA:119,42
DA:120,42
DA:121,42
DA:122,42
DA:123,42
DA:124,42
DA:125,31
DA:126,31
DA:127,0
DA:128,0
DA:129,0
DA:133,31
DA:136,64
DA:137,33
DA:138,33
DA:140,33
DA:141,33
DA:142,33
DA:143,33
DA:145,33
DA:146,33
DA:147,33
DA:148,33
DA:149,33
DA:150,33
DA:151,33
DA:154,0
DA:155,0
DA:159,0
DA:162,33
DA:163,33
DA:164,33
DA:165,33
DA:166,33
DA:167,33
DA:168,33
DA:169,33
DA:170,33
DA:171,33
DA:172,33
DA:177,33
DA:178,33
DA:179,33
DA:180,33
DA:181,33
DA:182,0
DA:183,0
DA:184,33
DA:185,33
DA:186,33
DA:188,0
DA:189,0
DA:190,0
DA:194,33
DA:195,33
DA:200,33
DA:201,33
DA:206,33
DA:207,33
DA:209,33
DA:210,33
DA:214,33
DA:215,33
DA:218,33
DA:219,33
DA:220,33
DA:221,33
DA:222,33
DA:223,33
DA:225,33
DA:227,0
DA:228,0
DA:231,0
DA:232,33
DA:233,33
DA:235,0
DA:236,0
DA:241,0
DA:242,0
DA:244,0
DA:245,0
DA:248,0
DA:249,0
DA:250,0
DA:254,33
DA:255,33
DA:256,33
DA:257,33
DA:258,33
DA:259,33
DA:260,33
DA:261,33
DA:262,33
DA:263,33
DA:264,33
DA:265,33
DA:266,33
DA:267,33
DA:268,33
DA:270,33
DA:273,5194
DA:275,5161
DA:276,0
DA:277,0
DA:278,5161
DA:282,0
DA:283,0
DA:284,0
DA:287,33
DA:288,33
DA:289,33
DA:290,33
DA:291,33
DA:292,33
DA:293,33
DA:296,33
DA:297,33
DA:298,33
DA:299,33
DA:301,33
DA:302,0
DA:303,0
DA:304,0
DA:307,33
DA:308,33
DA:309,33
DA:310,33
DA:313,33
DA:315,33
DA:316,33
DA:317,33
DA:320,5194
DA:321,5194
DA:322,5194
DA:323,5194
DA:324,5194
DA:325,5194
DA:328,5194
DA:330,5194
DA:331,5194
DA:333,5194
DA:334,5194
DA:337,0
DA:338,0
DA:339,0
DA:340,0
DA:341,0
DA:342,0
DA:343,0
DA:345,0
DA:346,0
DA:347,0
DA:348,0
DA:350,0
DA:351,0
DA:352,0
DA:354,0
DA:355,0
DA:356,0
DA:359,42
DA:360,42
DA:361,42
DA:362,42
DA:363,31
DA:366,759
DA:368,728
DA:369,728
DA:370,721
DA:371,721
DA:372,721
DA:373,721
DA:374,721
DA:375,721
DA:376,721
DA:381,42
DA:382,42
DA:383,42
DA:384,42
DA:385,42
DA:386,4471
DA:387,4440
DA:388,4440
DA:390,4440
DA:393,4440
DA:394,4440
DA:395,4440
DA:396,4440
DA:397,4440
DA:398,4440
DA:399,4440
DA:400,4440
DA:401,4440
DA:402,4440
DA:404,0
DA:405,0
DA:406,0
DA:409,0
DA:412,5457
DA:413,5457
DA:416,5457
DA:417,5457
DA:418,5457
DA:420,5457
DA:421,5457
DA:424,1
DA:425,1
DA:426,1
DA:427,1
DA:428,0
DA:429,0
DA:430,0
DA:431,0
DA:432,0
DA:433,0
DA:435,0
DA:436,1
DA:437,1
DA:440,9
DA:441,9
DA:442,9
DA:445,9
DA:446,9
DA:447,9
DA:448,9
DA:449,9
DA:451,9
DA:452,9
DA:453,9
DA:454,9
DA:455,9
DA:456,9
DA:457,9
DA:458,9
DA:459,9
DA:460,9
DA:461,9
DA:463,5236
DA:464,5236
DA:465,5236
DA:466,5236
DA:467,5236
DA:468,5236
DA:477,2
DA:478,2
DA:479,2
DA:480,2
DA:481,2
DA:483,2
DA:484,2
DA:486,2
DA:487,2
DA:490,2
DA:491,2
DA:492,2
DA:493,2
DA:494,2
DA:496,2
DA:497,2
DA:500,2
DA:501,2
DA:502,2
DA:503,2
DA:504,2
DA:506,2
DA:507,2
DA:510,2
DA:511,2
DA:512,2
BRF:0
BRH:0
LF:324
LH:261
end_of_record
SF:/mnt/f/Node/hivellm/synap/synap-server/src/replication/replica.rs
FN:161,_RNCNCNvMNtNtCsitBd8PkZ0O7_12synap_server11replication7replicaNtB6_11ReplicaNode12receive_sync00Ba_
FN:186,_RNCNCNvMNtNtCsitBd8PkZ0O7_12synap_server11replication7replicaNtB6_11ReplicaNode12receive_sync0s0_0Ba_
FN:182,_RNCNCNvMNtNtCsitBd8PkZ0O7_12synap_server11replication7replicaNtB6_11ReplicaNode12receive_sync0s_0Ba_
FN:124,_RNCNCNvMNtNtCsitBd8PkZ0O7_12synap_server11replication7replicaNtB6_11ReplicaNode16connect_and_sync00Ba_
FN:74,_RNCNCNvMNtNtCsitBd8PkZ0O7_12synap_server11replication7replicaNtB6_11ReplicaNode3new00Ba_
FN:220,_RNCNvMNtNtCsitBd8PkZ0O7_12synap_server11replication7replicaNtB4_11ReplicaNode12read_command0B8_
FN:157,_RNCNvMNtNtCsitBd8PkZ0O7_12synap_server11replication7replicaNtB4_11ReplicaNode12receive_sync0B8_
FN:272,_RNCNvMNtNtCsitBd8PkZ0O7_12synap_server11replication7replicaNtB4_11ReplicaNode15apply_operation0B8_
FN:120,_RNCNvMNtNtCsitBd8PkZ0O7_12synap_server11replication7replicaNtB4_11ReplicaNode16connect_and_sync0B8_
FN:236,_RNCNvMNtNtCsitBd8PkZ0O7_12synap_server11replication7replicaNtB4_11ReplicaNode16receive_commands0B8_
FN:85,_RNCNvMNtNtCsitBd8PkZ0O7_12synap_server11replication7replicaNtB4_11ReplicaNode16replication_loop0B8_
FN:51,_RNCNvMNtNtCsitBd8PkZ0O7_12synap_server11replication7replicaNtB4_11ReplicaNode3new0B8_
FN:333,_RNCNvMNtNtCsitBd8PkZ0O7_12synap_server11replication7replicaNtB4_11ReplicaNode5stats0B8_
FN:358,_RNvMNtNtCsitBd8PkZ0O7_12synap_server11replication7replicaNtB2_11ReplicaNode12is_connected
FN:220,_RNvMNtNtCsitBd8PkZ0O7_12synap_server11replication7replicaNtB2_11ReplicaNode12read_command
FN:157,_RNvMNtNtCsitBd8PkZ0O7_12synap_server11replication7replicaNtB2_11ReplicaNode12receive_sync
FN:363,_RNvMNtNtCsitBd8PkZ0O7_12synap_server11replication7replicaNtB2_11ReplicaNode14current_offset
FN:272,_RNvMNtNtCsitBd8PkZ0O7_12synap_server11replication7replicaNtB2_11ReplicaNode15apply_operation
FN:120,_RNvMNtNtCsitBd8PkZ0O7_12synap_server11replication7replicaNtB2_11ReplicaNode16connect_and_sync
FN:325,_RNvMNtNtCsitBd8PkZ0O7_12synap_server11replication7replicaNtB2_11ReplicaNode16handle_heartbeat
FN:236,_RNvMNtNtCsitBd8PkZ0O7_12synap_server11replication7replicaNtB2_11ReplicaNode16receive_commands
FN:85,_RNvMNtNtCsitBd8PkZ0O7_12synap_server11replication7replicaNtB2_11ReplicaNode16replication_loop
FN:375,_RNvMNtNtCsitBd8PkZ0O7_12synap_server11replication7replicaNtB2_11ReplicaNode17current_timestamp
FN:368,_RNvMNtNtCsitBd8PkZ0O7_12synap_server11replication7replicaNtB2_11ReplicaNode3lag
FN:47,_RNvMNtNtCsitBd8PkZ0O7_12synap_server11replication7replicaNtB2_11ReplicaNode3new
FN:333,_RNvMNtNtCsitBd8PkZ0O7_12synap_server11replication7replicaNtB2_11ReplicaNode5stats
FN:161,_RNCNCNvMNtNtCsitBd8PkZ0O7_12synap_server11replication7replicaNtB6_11ReplicaNode12receive_sync00CsgjR3Yp6g7MS_20kv_replication_tests
FN:186,_RNCNCNvMNtNtCsitBd8PkZ0O7_12synap_server11replication7replicaNtB6_11ReplicaNode12receive_sync0s0_0CsgjR3Yp6g7MS_20kv_replication_tests
FN:182,_RNCNCNvMNtNtCsitBd8PkZ0O7_12synap_server11replication7replicaNtB6_11ReplicaNode12receive_sync0s_0CsgjR3Yp6g7MS_20kv_replication_tests
FN:124,_RNCNCNvMNtNtCsitBd8PkZ0O7_12synap_server11replication7replicaNtB6_11ReplicaNode16connect_and_sync00CsgjR3Yp6g7MS_20kv_replication_tests
FN:74,_RNCNCNvMNtNtCsitBd8PkZ0O7_12synap_server11replication7replicaNtB6_11ReplicaNode3new00CsgjR3Yp6g7MS_20kv_replication_tests
FN:220,_RNCNvMNtNtCsitBd8PkZ0O7_12synap_server11replication7replicaNtB4_11ReplicaNode12read_command0CsgjR3Yp6g7MS_20kv_replication_tests
FN:157,_RNCNvMNtNtCsitBd8PkZ0O7_12synap_server11replication7replicaNtB4_11ReplicaNode12receive_sync0CsgjR3Yp6g7MS_20kv_replication_tests
FN:272,_RNCNvMNtNtCsitBd8PkZ0O7_12synap_server11replication7replicaNtB4_11ReplicaNode15apply_operation0CsgjR3Yp6g7MS_20kv_replication_tests
FN:120,_RNCNvMNtNtCsitBd8PkZ0O7_12synap_server11replication7replicaNtB4_11ReplicaNode16connect_and_sync0CsgjR3Yp6g7MS_20kv_replication_tests
FN:236,_RNCNvMNtNtCsitBd8PkZ0O7_12synap_server11replication7replicaNtB4_11ReplicaNode16receive_commands0CsgjR3Yp6g7MS_20kv_replication_tests
FN:85,_RNCNvMNtNtCsitBd8PkZ0O7_12synap_server11replication7replicaNtB4_11ReplicaNode16replication_loop0CsgjR3Yp6g7MS_20kv_replication_tests
FN:51,_RNCNvMNtNtCsitBd8PkZ0O7_12synap_server11replication7replicaNtB4_11ReplicaNode3new0CsgjR3Yp6g7MS_20kv_replication_tests
FN:161,_RNCNCNvMNtNtCsitBd8PkZ0O7_12synap_server11replication7replicaNtB6_11ReplicaNode12receive_sync00Cs2pBc2xJXSiG_20replication_extended
FN:186,_RNCNCNvMNtNtCsitBd8PkZ0O7_12synap_server11replication7replicaNtB6_11ReplicaNode12receive_sync0s0_0Cs2pBc2xJXSiG_20replication_extended
FN:182,_RNCNCNvMNtNtCsitBd8PkZ0O7_12synap_server11replication7replicaNtB6_11ReplicaNode12receive_sync0s_0Cs2pBc2xJXSiG_20replication_extended
FN:124,_RNCNCNvMNtNtCsitBd8PkZ0O7_12synap_server11replication7replicaNtB6_11ReplicaNode16connect_and_sync00Cs2pBc2xJXSiG_20replication_extended
FN:74,_RNCNCNvMNtNtCsitBd8PkZ0O7_12synap_server11replication7replicaNtB6_11ReplicaNode3new00Cs2pBc2xJXSiG_20replication_extended
FN:220,_RNCNvMNtNtCsitBd8PkZ0O7_12synap_server11replication7replicaNtB4_11ReplicaNode12read_command0Cs2pBc2xJXSiG_20replication_extended
FN:157,_RNCNvMNtNtCsitBd8PkZ0O7_12synap_server11replication7replicaNtB4_11ReplicaNode12receive_sync0Cs2pBc2xJXSiG_20replication_extended
FN:272,_RNCNvMNtNtCsitBd8PkZ0O7_12synap_server11replication7replicaNtB4_11ReplicaNode15apply_operation0Cs2pBc2xJXSiG_20replication_extended
FN:120,_RNCNvMNtNtCsitBd8PkZ0O7_12synap_server11replication7replicaNtB4_11ReplicaNode16connect_and_sync0Cs2pBc2xJXSiG_20replication_extended
FN:236,_RNCNvMNtNtCsitBd8PkZ0O7_12synap_server11replication7replicaNtB4_11ReplicaNode16receive_commands0Cs2pBc2xJXSiG_20replication_extended
FN:85,_RNCNvMNtNtCsitBd8PkZ0O7_12synap_server11replication7replicaNtB4_11ReplicaNode16replication_loop0Cs2pBc2xJXSiG_20replication_extended
FN:51,_RNCNvMNtNtCsitBd8PkZ0O7_12synap_server11replication7replicaNtB4_11ReplicaNode3new0Cs2pBc2xJXSiG_20replication_extended
FN:333,_RNCNvMNtNtCsitBd8PkZ0O7_12synap_server11replication7replicaNtB4_11ReplicaNode5stats0Cs2pBc2xJXSiG_20replication_extended
FN:161,_RNCNCNvMNtNtCsitBd8PkZ0O7_12synap_server11replication7replicaNtB6_11ReplicaNode12receive_sync00CsbXjVQbO2bnJ_23replication_integration
FN:186,_RNCNCNvMNtNtCsitBd8PkZ0O7_12synap_server11replication7replicaNtB6_11ReplicaNode12receive_sync0s0_0CsbXjVQbO2bnJ_23replication_integration
FN:182,_RNCNCNvMNtNtCsitBd8PkZ0O7_12synap_server11replication7replicaNtB6_11ReplicaNode12receive_sync0s_0CsbXjVQbO2bnJ_23replication_integration
FN:124,_RNCNCNvMNtNtCsitBd8PkZ0O7_12synap_server11replication7replicaNtB6_11ReplicaNode16connect_and_sync00CsbXjVQbO2bnJ_23replication_integration
FN:74,_RNCNCNvMNtNtCsitBd8PkZ0O7_12synap_server11replication7replicaNtB6_11ReplicaNode3new00CsbXjVQbO2bnJ_23replication_integration
FN:220,_RNCNvMNtNtCsitBd8PkZ0O7_12synap_server11replication7replicaNtB4_11ReplicaNode12read_command0CsbXjVQbO2bnJ_23replication_integration
FN:157,_RNCNvMNtNtCsitBd8PkZ0O7_12synap_server11replication7replicaNtB4_11ReplicaNode12receive_sync0CsbXjVQbO2bnJ_23replication_integration
FN:272,_RNCNvMNtNtCsitBd8PkZ0O7_12synap_server11replication7replicaNtB4_11ReplicaNode15apply_operation0CsbXjVQbO2bnJ_23replication_integration
FN:120,_RNCNvMNtNtCsitBd8PkZ0O7_12synap_server11replication7replicaNtB4_11ReplicaNode16connect_and_sync0CsbXjVQbO2bnJ_23replication_integration
FN:236,_RNCNvMNtNtCsitBd8PkZ0O7_12synap_server11replication7replicaNtB4_11ReplicaNode16receive_commands0CsbXjVQbO2bnJ_23replication_integration
FN:85,_RNCNvMNtNtCsitBd8PkZ0O7_12synap_server11replication7replicaNtB4_11ReplicaNode16replication_loop0CsbXjVQbO2bnJ_23replication_integration
FN:51,_RNCNvMNtNtCsitBd8PkZ0O7_12synap_server11replication7replicaNtB4_11ReplicaNode3new0CsbXjVQbO2bnJ_23replication_integration
FN:161,_RNCNCNvMNtNtCsitBd8PkZ0O7_12synap_server11replication7replicaNtB6_11ReplicaNode12receive_sync00CsloXyHHqBjUg_24stream_replication_tests
FN:186,_RNCNCNvMNtNtCsitBd8PkZ0O7_12synap_server11replication7replicaNtB6_11ReplicaNode12receive_sync0s0_0CsloXyHHqBjUg_24stream_replication_tests
FN:182,_RNCNCNvMNtNtCsitBd8PkZ0O7_12synap_server11replication7replicaNtB6_11ReplicaNode12receive_sync0s_0CsloXyHHqBjUg_24stream_replication_tests
FN:124,_RNCNCNvMNtNtCsitBd8PkZ0O7_12synap_server11replication7replicaNtB6_11ReplicaNode16connect_and_sync00CsloXyHHqBjUg_24stream_replication_tests
FN:74,_RNCNCNvMNtNtCsitBd8PkZ0O7_12synap_server11replication7replicaNtB6_11ReplicaNode3new00CsloXyHHqBjUg_24stream_replication_tests
FN:220,_RNCNvMNtNtCsitBd8PkZ0O7_12synap_server11replication7replicaNtB4_11ReplicaNode12read_command0CsloXyHHqBjUg_24stream_replication_tests
FN:157,_RNCNvMNtNtCsitBd8PkZ0O7_12synap_server11replication7replicaNtB4_11ReplicaNode12receive_sync0CsloXyHHqBjUg_24stream_replication_tests
FN:272,_RNCNvMNtNtCsitBd8PkZ0O7_12synap_server11replication7replicaNtB4_11ReplicaNode15apply_operation0CsloXyHHqBjUg_24stream_replication_tests
FN:120,_RNCNvMNtNtCsitBd8PkZ0O7_12synap_server11replication7replicaNtB4_11ReplicaNode16connect_and_sync0CsloXyHHqBjUg_24stream_replication_tests
FN:236,_RNCNvMNtNtCsitBd8PkZ0O7_12synap_server11replication7replicaNtB4_11ReplicaNode16receive_commands0CsloXyHHqBjUg_24stream_replication_tests
FN:85,_RNCNvMNtNtCsitBd8PkZ0O7_12synap_server11replication7replicaNtB4_11ReplicaNode16replication_loop0CsloXyHHqBjUg_24stream_replication_tests
FN:51,_RNCNvMNtNtCsitBd8PkZ0O7_12synap_server11replication7replicaNtB4_11ReplicaNode3new0CsloXyHHqBjUg_24stream_replication_tests
FN:389,_RNvNtNtNtCsfrV5S290jXb_12synap_server11replication7replica5testss_27test_replica_initialization
FN:403,_RNvNtNtNtCsfrV5S290jXb_12synap_server11replication7replica5testss_28test_replica_apply_operation
FN:358,_RNvMNtNtCsfrV5S290jXb_12synap_server11replication7replicaNtB2_11ReplicaNode12is_connected
FN:220,_RNvMNtNtCsfrV5S290jXb_12synap_server11replication7replicaNtB2_11ReplicaNode12read_command
FN:157,_RNvMNtNtCsfrV5S290jXb_12synap_server11replication7replicaNtB2_11ReplicaNode12receive_sync
FN:363,_RNvMNtNtCsfrV5S290jXb_12synap_server11replication7replicaNtB2_11ReplicaNode14current_offset
FN:272,_RNvMNtNtCsfrV5S290jXb_12synap_server11replication7replicaNtB2_11ReplicaNode15apply_operation
FN:120,_RNvMNtNtCsfrV5S290jXb_12synap_server11replication7replicaNtB2_11ReplicaNode16connect_and_sync
FN:325,_RNvMNtNtCsfrV5S290jXb_12synap_server11replication7replicaNtB2_11ReplicaNode16handle_heartbeat
FN:236,_RNvMNtNtCsfrV5S290jXb_12synap_server11replication7replicaNtB2_11ReplicaNode16receive_commands
FN:85,_RNvMNtNtCsfrV5S290jXb_12synap_server11replication7replicaNtB2_11ReplicaNode16replication_loop
FN:375,_RNvMNtNtCsfrV5S290jXb_12synap_server11replication7replicaNtB2_11ReplicaNode17current_timestamp
FN:47,_RNvMNtNtCsfrV5S290jXb_12synap_server11replication7replicaNtB2_11ReplicaNode3new
FN:333,_RNvMNtNtCsfrV5S290jXb_12synap_server11replication7replicaNtB2_11ReplicaNode5stats
FN:368,_RNvMNtNtCsfrV5S290jXb_12synap_server11replication7replicaNtB2_11ReplicaNode3lag
FN:389,_RNCNvNtNtNtCsfrV5S290jXb_12synap_server11replication7replica5testss_27test_replica_initialization0B9_
FN:403,_RNCNvNtNtNtCsfrV5S290jXb_12synap_server11replication7replica5testss_28test_replica_apply_operation0B9_
FN:161,_RNCNCNvMNtNtCsfrV5S290jXb_12synap_server11replication7replicaNtB6_11ReplicaNode12receive_sync00Ba_
FN:186,_RNCNCNvMNtNtCsfrV5S290jXb_12synap_server11replication7replicaNtB6_11ReplicaNode12receive_sync0s0_0Ba_
FN:182,_RNCNCNvMNtNtCsfrV5S290jXb_12synap_server11replication7replicaNtB6_11ReplicaNode12receive_sync0s_0Ba_
FN:124,_RNCNCNvMNtNtCsfrV5S290jXb_12synap_server11replication7replicaNtB6_11ReplicaNode16connect_and_sync00Ba_
FN:74,_RNCNCNvMNtNtCsfrV5S290jXb_12synap_server11replication7replicaNtB6_11ReplicaNode3new00Ba_
FN:220,_RNCNvMNtNtCsfrV5S290jXb_12synap_server11replication7replicaNtB4_11ReplicaNode12read_command0B8_
FN:157,_RNCNvMNtNtCsfrV5S290jXb_12synap_server11replication7replicaNtB4_11ReplicaNode12receive_sync0B8_
FN:272,_RNCNvMNtNtCsfrV5S290jXb_12synap_server11replication7replicaNtB4_11ReplicaNode15apply_operation0B8_
FN:120,_RNCNvMNtNtCsfrV5S290jXb_12synap_server11replication7replicaNtB4_11ReplicaNode16connect_and_sync0B8_
FN:236,_RNCNvMNtNtCsfrV5S290jXb_12synap_server11replication7replicaNtB4_11ReplicaNode16receive_commands0B8_
FN:85,_RNCNvMNtNtCsfrV5S290jXb_12synap_server11replication7replicaNtB4_11ReplicaNode16replication_loop0B8_
FN:51,_RNCNvMNtNtCsfrV5S290jXb_12synap_server11replication7replicaNtB4_11ReplicaNode3new0B8_
FN:333,_RNCNvMNtNtCsfrV5S290jXb_12synap_server11replication7replicaNtB4_11ReplicaNode5stats0B8_
FNDA:0,_RNCNCNvMNtNtCsitBd8PkZ0O7_12synap_server11replication7replicaNtB6_11ReplicaNode12receive_sync00Ba_
FNDA:0,_RNCNCNvMNtNtCsitBd8PkZ0O7_12synap_server11replication7replicaNtB6_11ReplicaNode12receive_sync0s0_0Ba_
FNDA:0,_RNCNCNvMNtNtCsitBd8PkZ0O7_12synap_server11replication7replicaNtB6_11ReplicaNode12receive_sync0s_0Ba_
FNDA:0,_RNCNCNvMNtNtCsitBd8PkZ0O7_12synap_server11replication7replicaNtB6_11ReplicaNode16connect_and_sync00Ba_
FNDA:0,_RNCNCNvMNtNtCsitBd8PkZ0O7_12synap_server11replication7replicaNtB6_11ReplicaNode3new00Ba_
FNDA:0,_RNCNvMNtNtCsitBd8PkZ0O7_12synap_server11replication7replicaNtB4_11ReplicaNode12read_command0B8_
FNDA:0,_RNCNvMNtNtCsitBd8PkZ0O7_12synap_server11replication7replicaNtB4_11ReplicaNode12receive_sync0B8_
FNDA:0,_RNCNvMNtNtCsitBd8PkZ0O7_12synap_server11replication7replicaNtB4_11ReplicaNode15apply_operation0B8_
FNDA:0,_RNCNvMNtNtCsitBd8PkZ0O7_12synap_server11replication7replicaNtB4_11ReplicaNode16connect_and_sync0B8_
FNDA:0,_RNCNvMNtNtCsitBd8PkZ0O7_12synap_server11replication7replicaNtB4_11ReplicaNode16receive_commands0B8_
FNDA:0,_RNCNvMNtNtCsitBd8PkZ0O7_12synap_server11replication7replicaNtB4_11ReplicaNode16replication_loop0B8_
FNDA:0,_RNCNvMNtNtCsitBd8PkZ0O7_12synap_server11replication7replicaNtB4_11ReplicaNode3new0B8_
FNDA:0,_RNCNvMNtNtCsitBd8PkZ0O7_12synap_server11replication7replicaNtB4_11ReplicaNode5stats0B8_
FNDA:5,_RNvMNtNtCsitBd8PkZ0O7_12synap_server11replication7replicaNtB2_11ReplicaNode12is_connected
FNDA:5226,_RNvMNtNtCsitBd8PkZ0O7_12synap_server11replication7replicaNtB2_11ReplicaNode12read_command
FNDA:33,_RNvMNtNtCsitBd8PkZ0O7_12synap_server11replication7replicaNtB2_11ReplicaNode12receive_sync
FNDA:4,_RNvMNtNtCsitBd8PkZ0O7_12synap_server11replication7replicaNtB2_11ReplicaNode14current_offset
FNDA:4440,_RNvMNtNtCsitBd8PkZ0O7_12synap_server11replication7replicaNtB2_11ReplicaNode15apply_operation
FNDA:35,_RNvMNtNtCsitBd8PkZ0O7_12synap_server11replication7replicaNtB2_11ReplicaNode16connect_and_sync
FNDA:720,_RNvMNtNtCsitBd8PkZ0O7_12synap_server11replication7replicaNtB2_11ReplicaNode16handle_heartbeat
FNDA:33,_RNvMNtNtCsitBd8PkZ0O7_12synap_server11replication7replicaNtB2_11ReplicaNode16receive_commands
FNDA:35,_RNvMNtNtCsitBd8PkZ0O7_12synap_server11replication7replicaNtB2_11ReplicaNode16replication_loop
FNDA:1,_RNvMNtNtCsitBd8PkZ0O7_12synap_server11replication7replicaNtB2_11ReplicaNode17current_timestamp
FNDA:2,_RNvMNtNtCsitBd8PkZ0O7_12synap_server11replication7replicaNtB2_11ReplicaNode3lag
FNDA:35,_RNvMNtNtCsitBd8PkZ0O7_12synap_server11replication7replicaNtB2_11ReplicaNode3new
FNDA:1,_RNvMNtNtCsitBd8PkZ0O7_12synap_server11replication7replicaNtB2_11ReplicaNode5stats
FNDA:0,_RNCNCNvMNtNtCsitBd8PkZ0O7_12synap_server11replication7replicaNtB6_11ReplicaNode12receive_sync00CsgjR3Yp6g7MS_20kv_replication_tests
FNDA:0,_RNCNCNvMNtNtCsitBd8PkZ0O7_12synap_server11replication7replicaNtB6_11ReplicaNode12receive_sync0s0_0CsgjR3Yp6g7MS_20kv_replication_tests
FNDA:0,_RNCNCNvMNtNtCsitBd8PkZ0O7_12synap_server11replication7replicaNtB6_11ReplicaNode12receive_sync0s_0CsgjR3Yp6g7MS_20kv_replication_tests
FNDA:0,_RNCNCNvMNtNtCsitBd8PkZ0O7_12synap_server11replication7replicaNtB6_11ReplicaNode16connect_and_sync00CsgjR3Yp6g7MS_20kv_replication_tests
FNDA:16,_RNCNCNvMNtNtCsitBd8PkZ0O7_12synap_server11replication7replicaNtB6_11ReplicaNode3new00CsgjR3Yp6g7MS_20kv_replication_tests
FNDA:441,_RNCNvMNtNtCsitBd8PkZ0O7_12synap_server11replication7replicaNtB4_11ReplicaNode12read_command0CsgjR3Yp6g7MS_20kv_replication_tests
FNDA:16,_RNCNvMNtNtCsitBd8PkZ0O7_12synap_server11replication7replicaNtB4_11ReplicaNode12receive_sync0CsgjR3Yp6g7MS_20kv_replication_tests
FNDA:85,_RNCNvMNtNtCsitBd8PkZ0O7_12synap_server11replication7replicaNtB4_11ReplicaNode15apply_operation0CsgjR3Yp6g7MS_20kv_replication_tests
FNDA:16,_RNCNvMNtNtCsitBd8PkZ0O7_12synap_server11replication7replicaNtB4_11ReplicaNode16connect_and_sync0CsgjR3Yp6g7MS_20kv_replication_tests
FNDA:16,_RNCNvMNtNtCsitBd8PkZ0O7_12synap_server11replication7replicaNtB4_11ReplicaNode16receive_commands0CsgjR3Yp6g7MS_20kv_replication_tests
FNDA:16,_RNCNvMNtNtCsitBd8PkZ0O7_12synap_server11replication7replicaNtB4_11ReplicaNode16replication_loop0CsgjR3Yp6g7MS_20kv_replication_tests
FNDA:16,_RNCNvMNtNtCsitBd8PkZ0O7_12synap_server11replication7replicaNtB4_11ReplicaNode3new0CsgjR3Yp6g7MS_20kv_replication_tests
FNDA:0,_RNCNCNvMNtNtCsitBd8PkZ0O7_12synap_server11replication7replicaNtB6_11ReplicaNode12receive_sync00Cs2pBc2xJXSiG_20replication_extended
FNDA:0,_RNCNCNvMNtNtCsitBd8PkZ0O7_12synap_server11replication7replicaNtB6_11ReplicaNode12receive_sync0s0_0Cs2pBc2xJXSiG_20replication_extended
FNDA:0,_RNCNCNvMNtNtCsitBd8PkZ0O7_12synap_server11replication7replicaNtB6_11ReplicaNode12receive_sync0s_0Cs2pBc2xJXSiG_20replication_extended
FNDA:2,_RNCNCNvMNtNtCsitBd8PkZ0O7_12synap_server11replication7replicaNtB6_11ReplicaNode16connect_and_sync00Cs2pBc2xJXSiG_20replication_extended
FNDA:2,_RNCNCNvMNtNtCsitBd8PkZ0O7_12synap_server11replication7replicaNtB6_11ReplicaNode3new00Cs2pBc2xJXSiG_20replication_extended
FNDA:0,_RNCNvMNtNtCsitBd8PkZ0O7_12synap_server11replication7replicaNtB4_11ReplicaNode12read_command0Cs2pBc2xJXSiG_20replication_extended
FNDA:0,_RNCNvMNtNtCsitBd8PkZ0O7_12synap_server11replication7replicaNtB4_11ReplicaNode12receive_sync0Cs2pBc2xJXSiG_20replication_extended
FNDA:0,_RNCNvMNtNtCsitBd8PkZ0O7_12synap_server11replication7replicaNtB4_11ReplicaNode15apply_operation0Cs2pBc2xJXSiG_20replication_extended
FNDA:2,_RNCNvMNtNtCsitBd8PkZ0O7_12synap_server11replication7replicaNtB4_11ReplicaNode16connect_and_sync0Cs2pBc2xJXSiG_20replication_extended
FNDA:0,_RNCNvMNtNtCsitBd8PkZ0O7_12synap_server11replication7replicaNtB4_11ReplicaNode16receive_commands0Cs2pBc2xJXSiG_20replication_extended
FNDA:2,_RNCNvMNtNtCsitBd8PkZ0O7_12synap_server11replication7replicaNtB4_11ReplicaNode16replication_loop0Cs2pBc2xJXSiG_20replication_extended
FNDA:2,_RNCNvMNtNtCsitBd8PkZ0O7_12synap_server11replication7replicaNtB4_11ReplicaNode3new0Cs2pBc2xJXSiG_20replication_extended
FNDA:1,_RNCNvMNtNtCsitBd8PkZ0O7_12synap_server11replication7replicaNtB4_11ReplicaNode5stats0Cs2pBc2xJXSiG_20replication_extended
FNDA:0,_RNCNCNvMNtNtCsitBd8PkZ0O7_12synap_server11replication7replicaNtB6_11ReplicaNode12receive_sync00CsbXjVQbO2bnJ_23replication_integration
FNDA:0,_RNCNCNvMNtNtCsitBd8PkZ0O7_12synap_server11replication7replicaNtB6_11ReplicaNode12receive_sync0s0_0CsbXjVQbO2bnJ_23replication_integration
FNDA:0,_RNCNCNvMNtNtCsitBd8PkZ0O7_12synap_server11replication7replicaNtB6_11ReplicaNode12receive_sync0s_0CsbXjVQbO2bnJ_23replication_integration
FNDA:0,_RNCNCNvMNtNtCsitBd8PkZ0O7_12synap_server11replication7replicaNtB6_11ReplicaNode16connect_and_sync00CsbXjVQbO2bnJ_23replication_integration
FNDA:12,_RNCNCNvMNtNtCsitBd8PkZ0O7_12synap_server11replication7replicaNtB6_11ReplicaNode3new00CsbXjVQbO2bnJ_23replication_integration
FNDA:4644,_RNCNvMNtNtCsitBd8PkZ0O7_12synap_server11replication7replicaNtB4_11ReplicaNode12read_command0CsbXjVQbO2bnJ_23replication_integration
FNDA:12,_RNCNvMNtNtCsitBd8PkZ0O7_12synap_server11replication7replicaNtB4_11ReplicaNode12receive_sync0CsbXjVQbO2bnJ_23replication_integration
FNDA:4335,_RNCNvMNtNtCsitBd8PkZ0O7_12synap_server11replication7replicaNtB4_11ReplicaNode15apply_operation0CsbXjVQbO2bnJ_23replication_integration
FNDA:12,_RNCNvMNtNtCsitBd8PkZ0O7_12synap_server11replication7replicaNtB4_11ReplicaNode16connect_and_sync0CsbXjVQbO2bnJ_23replication_integration
FNDA:12,_RNCNvMNtNtCsitBd8PkZ0O7_12synap_server11replication7replicaNtB4_11ReplicaNode16receive_commands0CsbXjVQbO2bnJ_23replication_integration
FNDA:12,_RNCNvMNtNtCsitBd8PkZ0O7_12synap_server11replication7replicaNtB4_11ReplicaNode16replication_loop0CsbXjVQbO2bnJ_23replication_integration
FNDA:12,_RNCNvMNtNtCsitBd8PkZ0O7_12synap_server11replication7replicaNtB4_11ReplicaNode3new0CsbXjVQbO2bnJ_23replication_integration
FNDA:0,_RNCNCNvMNtNtCsitBd8PkZ0O7_12synap_server11replication7replicaNtB6_11ReplicaNode12receive_sync00CsloXyHHqBjUg_24stream_replication_tests
FNDA:0,_RNCNCNvMNtNtCsitBd8PkZ0O7_12synap_server11replication7replicaNtB6_11ReplicaNode12receive_sync0s0_0CsloXyHHqBjUg_24stream_replication_tests
FNDA:5,_RNCNCNvMNtNtCsitBd8PkZ0O7_12synap_server11replication7replicaNtB6_11ReplicaNode12receive_sync0s_0CsloXyHHqBjUg_24stream_replication_tests
FNDA:0,_RNCNCNvMNtNtCsitBd8PkZ0O7_12synap_server11replication7replicaNtB6_11ReplicaNode16connect_and_sync00CsloXyHHqBjUg_24stream_replication_tests
FNDA:5,_RNCNCNvMNtNtCsitBd8PkZ0O7_12synap_server11replication7replicaNtB6_11ReplicaNode3new00CsloXyHHqBjUg_24stream_replication_tests
FNDA:141,_RNCNvMNtNtCsitBd8PkZ0O7_12synap_server11replication7replicaNtB4_11ReplicaNode12read_command0CsloXyHHqBjUg_24stream_replication_tests
FNDA:5,_RNCNvMNtNtCsitBd8PkZ0O7_12synap_server11replication7replicaNtB4_11ReplicaNode12receive_sync0CsloXyHHqBjUg_24stream_replication_tests
FNDA:20,_RNCNvMNtNtCsitBd8PkZ0O7_12synap_server11replication7replicaNtB4_11ReplicaNode15apply_operation0CsloXyHHqBjUg_24stream_replication_tests
FNDA:5,_RNCNvMNtNtCsitBd8PkZ0O7_12synap_server11replication7replicaNtB4_11ReplicaNode16connect_and_sync0CsloXyHHqBjUg_24stream_replication_tests
FNDA:5,_RNCNvMNtNtCsitBd8PkZ0O7_12synap_server11replication7replicaNtB4_11ReplicaNode16receive_commands0CsloXyHHqBjUg_24stream_replication_tests
FNDA:5,_RNCNvMNtNtCsitBd8PkZ0O7_12synap_server11replication7replicaNtB4_11ReplicaNode16replication_loop0CsloXyHHqBjUg_24stream_replication_tests
FNDA:5,_RNCNvMNtNtCsitBd8PkZ0O7_12synap_server11replication7replicaNtB4_11ReplicaNode3new0CsloXyHHqBjUg_24stream_replication_tests
FNDA:2,_RNvNtNtNtCsfrV5S290jXb_12synap_server11replication7replica5testss_27test_replica_initialization
FNDA:2,_RNvNtNtNtCsfrV5S290jXb_12synap_server11replication7replica5testss_28test_replica_apply_operation
FNDA:2,_RNvMNtNtCsfrV5S290jXb_12synap_server11replication7replicaNtB2_11ReplicaNode12is_connected
FNDA:0,_RNvMNtNtCsfrV5S290jXb_12synap_server11replication7replicaNtB2_11ReplicaNode12read_command
FNDA:0,_RNvMNtNtCsfrV5S290jXb_12synap_server11replication7replicaNtB2_11ReplicaNode12receive_sync
FNDA:6,_RNvMNtNtCsfrV5S290jXb_12synap_server11replication7replicaNtB2_11ReplicaNode14current_offset
FNDA:2,_RNvMNtNtCsfrV5S290jXb_12synap_server11replication7replicaNtB2_11ReplicaNode15apply_operation
FNDA:8,_RNvMNtNtCsfrV5S290jXb_12synap_server11replication7replicaNtB2_11ReplicaNode16connect_and_sync
FNDA:0,_RNvMNtNtCsfrV5S290jXb_12synap_server11replication7replicaNtB2_11ReplicaNode16handle_heartbeat
FNDA:0,_RNvMNtNtCsfrV5S290jXb_12synap_server11replication7replicaNtB2_11ReplicaNode16receive_commands
FNDA:8,_RNvMNtNtCsfrV5S290jXb_12synap_server11replication7replicaNtB2_11ReplicaNode16replication_loop
FNDA:2,_RNvMNtNtCsfrV5S290jXb_12synap_server11replication7replicaNtB2_11ReplicaNode17current_timestamp
FNDA:8,_RNvMNtNtCsfrV5S290jXb_12synap_server11replication7replicaNtB2_11ReplicaNode3new
FNDA:2,_RNvMNtNtCsfrV5S290jXb_12synap_server11replication7replicaNtB2_11ReplicaNode5stats
FNDA:0,_RNvMNtNtCsfrV5S290jXb_12synap_server11replication7replicaNtB2_11ReplicaNode3lag
FNDA:2,_RNCNvNtNtNtCsfrV5S290jXb_12synap_server11replication7replica5testss_27test_replica_initialization0B9_
FNDA:2,_RNCNvNtNtNtCsfrV5S290jXb_12synap_server11replication7replica5testss_28test_replica_apply_operation0B9_
FNDA:0,_RNCNCNvMNtNtCsfrV5S290jXb_12synap_server11replication7replicaNtB6_11ReplicaNode12receive_sync00Ba_
FNDA:0,_RNCNCNvMNtNtCsfrV5S290jXb_12synap_server11replication7replicaNtB6_11ReplicaNode12receive_sync0s0_0Ba_
FNDA:0,_RNCNCNvMNtNtCsfrV5S290jXb_12synap_server11replication7replicaNtB6_11ReplicaNode12receive_sync0s_0Ba_
FNDA:8,_RNCNCNvMNtNtCsfrV5S290jXb_12synap_server11replication7replicaNtB6_11ReplicaNode16connect_and_sync00Ba_
FNDA:8,_RNCNCNvMNtNtCsfrV5S290jXb_12synap_server11replication7replicaNtB6_11ReplicaNode3new00Ba_
FNDA:0,_RNCNvMNtNtCsfrV5S290jXb_12synap_server11replication7replicaNtB4_11ReplicaNode12read_command0B8_
FNDA:0,_RNCNvMNtNtCsfrV5S290jXb_12synap_server11replication7replicaNtB4_11ReplicaNode12receive_sync0B8_
FNDA:2,_RNCNvMNtNtCsfrV5S290jXb_12synap_server11replication7replicaNtB4_11ReplicaNode15apply_operation0B8_
FNDA:8,_RNCNvMNtNtCsfrV5S290jXb_12synap_server11replication7replicaNtB4_11ReplicaNode16connect_and_sync0B8_
FNDA:0,_RNCNvMNtNtCsfrV5S290jXb_12synap_server11replication7replicaNtB4_11ReplicaNode16receive_commands0B8_
FNDA:8,_RNCNvMNtNtCsfrV5S290jXb_12synap_server11replication7replicaNtB4_11ReplicaNode16replication_loop0B8_
FNDA:8,_RNCNvMNtNtCsfrV5S290jXb_12synap_server11replication7replicaNtB4_11ReplicaNode3new0B8_
FNDA:2,_RNCNvMNtNtCsfrV5S290jXb_12synap_server11replication7replicaNtB4_11ReplicaNode5stats0B8_
FNF:30
FNH:28
DA:47,43
DA:48,43
DA:49,43
DA:50,43
DA:51,43
DA:52,43
DA:53,0
DA:54,43
DA:56,43
DA:57,0
DA:58,0
DA:61,43
DA:62,43
DA:63,43
DA:64,43
DA:65,43
DA:66,43
DA:67,43
DA:68,43
DA:69,43
DA:70,43
DA:73,43
DA:74,43
DA:75,43
DA:76,10
DA:79,43
DA:81,43
DA:82,43
DA:85,43
DA:86,43
DA:87,43
DA:89,43
DA:90,0
DA:91,0
DA:95,43
DA:97,43
DA:99,0
DA:101,10
DA:102,10
DA:103,10
DA:107,10
DA:108,10
DA:109,10
DA:110,0
DA:112,0
DA:113,0
DA:116,10
DA:117,10
DA:120,43
DA:121,43
DA:124,43
DA:125,10
DA:126,10
DA:127,10
DA:129,33
DA:132,33
DA:133,33
DA:134,33
DA:135,33
DA:136,33
DA:138,33
DA:141,33
DA:142,33
DA:145,33
DA:146,33
DA:147,33
DA:150,33
DA:151,33
DA:153,0
DA:154,10
DA:157,33
DA:158,33
DA:161,33
DA:162,0
DA:163,0
DA:164,0
DA:166,33
DA:168,33
DA:170,33
DA:171,33
DA:173,33
DA:174,0
DA:176,0
DA:180,33
DA:181,33
DA:182,33
DA:183,33
DA:185,33
DA:186,33
DA:187,0
DA:188,0
DA:189,0
DA:191,33
DA:192,33
DA:195,0
DA:196,0
DA:198,0
DA:199,0
DA:201,0
DA:205,0
DA:206,0
DA:209,0
DA:212,0
DA:216,33
DA:217,33
DA:220,5226
DA:222,5226
DA:223,5226
DA:224,5193
DA:227,5193
DA:228,5193
DA:231,5193
DA:232,5193
DA:233,5193
DA:236,33
DA:239,5193
DA:240,5160
DA:241,0
DA:242,0
DA:244,0
DA:245,0
DA:247,0
DA:248,0
DA:249,0
DA:254,5160
DA:255,4440
DA:256,4440
DA:259,720
DA:260,720
DA:261,720
DA:262,720
DA:263,720
DA:265,0
DA:269,0
DA:272,4442
DA:273,4442
DA:276,4442
DA:277,4442
DA:278,2778
DA:279,0
DA:283,1664
DA:286,4442
DA:287,4381
DA:288,4381
DA:290,41
DA:291,41
DA:294,20
DA:295,20
DA:296,20
DA:298,20
DA:300,20
DA:302,20
DA:304,0
DA:309,0
DA:314,4442
DA:317,4442
DA:318,4442
DA:319,4442
DA:321,4442
DA:322,4442
DA:325,720
DA:326,720
DA:327,720
DA:329,720
DA:330,720
DA:333,3
DA:334,3
DA:336,3
DA:337,3
DA:339,3
DA:340,3
DA:341,3
DA:342,3
DA:343,3
DA:346,3
DA:347,3
DA:348,3
DA:349,0
DA:351,3
DA:354,3
DA:355,3
DA:358,7
DA:359,7
DA:360,7
DA:363,10
DA:364,10
DA:365,10
DA:368,2
DA:369,2
DA:370,2
DA:372,2
DA:373,2
DA:375,3
DA:376,3
DA:377,3
DA:378,3
DA:379,3
DA:380,3
DA:389,2
DA:390,2
DA:391,2
DA:392,2
DA:393,2
DA:394,2
DA:396,2
DA:397,2
DA:399,2
DA:400,2
DA:403,2
DA:404,2
DA:405,2
DA:406,2
DA:407,2
DA:408,2
DA:410,2
DA:411,2
DA:414,2
DA:415,2
DA:416,2
DA:417,2
DA:418,2
DA:419,2
DA:420,2
DA:421,2
DA:422,2
DA:424,2
DA:427,2
DA:428,2
DA:429,2
DA:430,2
BRF:0
BRH:0
LF:250
LH:199
end_of_record
SF:/mnt/f/Node/hivellm/synap/synap-server/src/replication/replication_log.rs
FN:87,_RNCNvMNtNtCsitBd8PkZ0O7_12synap_server11replication15replication_logNtB4_14ReplicationLog15get_from_offset0B8_
FN:125,_RNvMNtNtCsitBd8PkZ0O7_12synap_server11replication15replication_logNtB2_14ReplicationLog13calculate_lag
FN:108,_RNvMNtNtCsitBd8PkZ0O7_12synap_server11replication15replication_logNtB2_14ReplicationLog13oldest_offset
FN:103,_RNvMNtNtCsitBd8PkZ0O7_12synap_server11replication15replication_logNtB2_14ReplicationLog14current_offset
FN:72,_RNvMNtNtCsitBd8PkZ0O7_12synap_server11replication15replication_logNtB2_14ReplicationLog15get_from_offset
FN:130,_RNvMNtNtCsitBd8PkZ0O7_12synap_server11replication15replication_logNtB2_14ReplicationLog17current_timestamp
FN:34,_RNvMNtNtCsitBd8PkZ0O7_12synap_server11replication15replication_logNtB2_14ReplicationLog3new
FN:113,_RNvMNtNtCsitBd8PkZ0O7_12synap_server11replication15replication_logNtB2_14ReplicationLog4size
FN:118,_RNvMNtNtCsitBd8PkZ0O7_12synap_server11replication15replication_logNtB2_14ReplicationLog5clear
FN:46,_RNvMNtNtCsitBd8PkZ0O7_12synap_server11replication15replication_logNtB2_14ReplicationLog6append
FN:125,_RNvMNtNtCsfrV5S290jXb_12synap_server11replication15replication_logNtB2_14ReplicationLog13calculate_lag
FN:108,_RNvMNtNtCsfrV5S290jXb_12synap_server11replication15replication_logNtB2_14ReplicationLog13oldest_offset
FN:103,_RNvMNtNtCsfrV5S290jXb_12synap_server11replication15replication_logNtB2_14ReplicationLog14current_offset
FN:72,_RNvMNtNtCsfrV5S290jXb_12synap_server11replication15replication_logNtB2_14ReplicationLog15get_from_offset
FN:130,_RNvMNtNtCsfrV5S290jXb_12synap_server11replication15replication_logNtB2_14ReplicationLog17current_timestamp
FN:34,_RNvMNtNtCsfrV5S290jXb_12synap_server11replication15replication_logNtB2_14ReplicationLog3new
FN:113,_RNvMNtNtCsfrV5S290jXb_12synap_server11replication15replication_logNtB2_14ReplicationLog4size
FN:46,_RNvMNtNtCsfrV5S290jXb_12synap_server11replication15replication_logNtB2_14ReplicationLog6append
FN:118,_RNvMNtNtCsfrV5S290jXb_12synap_server11replication15replication_logNtB2_14ReplicationLog5clear
FN:225,_RNvNtNtNtCsfrV5S290jXb_12synap_server11replication15replication_log5testss_18test_calculate_lag
FN:182,_RNvNtNtNtCsfrV5S290jXb_12synap_server11replication15replication_log5testss_20test_get_from_offset
FN:203,_RNvNtNtNtCsfrV5S290jXb_12synap_server11replication15replication_log5testss_23test_full_sync_required
FN:143,_RNvNtNtNtCsfrV5S290jXb_12synap_server11replication15replication_log5testss_27test_replication_log_append
FN:162,_RNvNtNtNtCsfrV5S290jXb_12synap_server11replication15replication_log5testss_29test_replication_log_overflow
FN:87,_RNCNvMNtNtCsfrV5S290jXb_12synap_server11replication15replication_logNtB4_14ReplicationLog15get_from_offset0B8_
FNDA:154,_RNCNvMNtNtCsitBd8PkZ0O7_12synap_server11replication15replication_logNtB4_14ReplicationLog15get_from_offset0B8_
FNDA:5,_RNvMNtNtCsitBd8PkZ0O7_12synap_server11replication15replication_logNtB2_14ReplicationLog13calculate_lag
FNDA:35,_RNvMNtNtCsitBd8PkZ0O7_12synap_server11replication15replication_logNtB2_14ReplicationLog13oldest_offset
FNDA:111,_RNvMNtNtCsitBd8PkZ0O7_12synap_server11replication15replication_logNtB2_14ReplicationLog14current_offset
FNDA:5,_RNvMNtNtCsitBd8PkZ0O7_12synap_server11replication15replication_logNtB2_14ReplicationLog15get_from_offset
FNDA:11645,_RNvMNtNtCsitBd8PkZ0O7_12synap_server11replication15replication_logNtB2_14ReplicationLog17current_timestamp
FNDA:42,_RNvMNtNtCsitBd8PkZ0O7_12synap_server11replication15replication_logNtB2_14ReplicationLog3new
FNDA:0,_RNvMNtNtCsitBd8PkZ0O7_12synap_server11replication15replication_logNtB2_14ReplicationLog4size
FNDA:0,_RNvMNtNtCsitBd8PkZ0O7_12synap_server11replication15replication_logNtB2_14ReplicationLog5clear
FNDA:11645,_RNvMNtNtCsitBd8PkZ0O7_12synap_server11replication15replication_logNtB2_14ReplicationLog6append
FNDA:4,_RNvMNtNtCsfrV5S290jXb_12synap_server11replication15replication_logNtB2_14ReplicationLog13calculate_lag
FNDA:6,_RNvMNtNtCsfrV5S290jXb_12synap_server11replication15replication_logNtB2_14ReplicationLog13oldest_offset
FNDA:16,_RNvMNtNtCsfrV5S290jXb_12synap_server11replication15replication_logNtB2_14ReplicationLog14current_offset
FNDA:8,_RNvMNtNtCsfrV5S290jXb_12synap_server11replication15replication_logNtB2_14ReplicationLog15get_from_offset
FNDA:628,_RNvMNtNtCsfrV5S290jXb_12synap_server11replication15replication_logNtB2_14ReplicationLog17current_timestamp
FNDA:26,_RNvMNtNtCsfrV5S290jXb_12synap_server11replication15replication_logNtB2_14ReplicationLog3new
FNDA:4,_RNvMNtNtCsfrV5S290jXb_12synap_server11replication15replication_logNtB2_14ReplicationLog4size
FNDA:628,_RNvMNtNtCsfrV5S290jXb_12synap_server11replication15replication_logNtB2_14ReplicationLog6append
FNDA:0,_RNvMNtNtCsfrV5S290jXb_12synap_server11replication15replication_logNtB2_14ReplicationLog5clear
FNDA:2,_RNvNtNtNtCsfrV5S290jXb_12synap_server11replication15replication_log5testss_18test_calculate_lag
FNDA:2,_RNvNtNtNtCsfrV5S290jXb_12synap_server11replication15replication_log5testss_20test_get_from_offset
FNDA:2,_RNvNtNtNtCsfrV5S290jXb_12synap_server11replication15replication_log5testss_23test_full_sync_required
FNDA:2,_RNvNtNtNtCsfrV5S290jXb_12synap_server11replication15replication_log5testss_27test_replication_log_append
FNDA:2,_RNvNtNtNtCsfrV5S290jXb_12synap_server11replication15replication_log5testss_29test_replication_log_overflow
FNDA:140,_RNCNvMNtNtCsfrV5S290jXb_12synap_server11replication15replication_logNtB4_14ReplicationLog15get_from_offset0B8_
FNF:15
FNH:14
DA:34,68
DA:35,68
DA:37,68
DA:38,68
DA:39,68
DA:40,68
DA:41,68
DA:42,68
DA:43,68
DA:46,12273
DA:47,12273
DA:49,12273
DA:50,12273
DA:51,12273
DA:52,12273
DA:53,12273
DA:55,12273
DA:58,12273
DA:59,220
DA:60,220
DA:61,220
DA:62,220
DA:63,0
DA:64,12053
DA:66,12273
DA:68,12273
DA:69,12273
DA:72,13
DA:73,13
DA:74,13
DA:75,13
DA:76,13
DA:77,13
DA:80,13
DA:81,4
DA:82,9
DA:85,9
DA:86,9
DA:87,294
DA:88,9
DA:89,9
DA:91,9
DA:92,0
DA:93,0
DA:96,0
DA:99,9
DA:100,13
DA:103,127
DA:104,127
DA:105,127
DA:108,41
DA:109,41
DA:110,41
DA:113,4
DA:114,4
DA:115,4
DA:118,0
DA:119,0
DA:120,0
DA:121,0
DA:122,0
DA:125,9
DA:126,9
DA:127,9
DA:128,9
DA:130,12273
DA:131,12273
DA:132,12273
DA:133,12273
DA:134,12273
DA:135,12273
DA:143,2
DA:144,2
DA:147,22
DA:148,20
DA:149,20
DA:150,20
DA:151,20
DA:152,20
DA:153,20
DA:154,20
DA:157,2
DA:158,2
DA:159,2
DA:162,2
DA:163,2
DA:166,22
DA:167,20
DA:168,20
DA:169,20
DA:170,20
DA:171,20
DA:172,20
DA:173,20
DA:176,2
DA:177,2
DA:178,2
DA:179,2
DA:182,2
DA:183,2
DA:186,42
DA:187,40
DA:188,40
DA:189,40
DA:190,40
DA:191,40
DA:192,40
DA:193,40
DA:196,2
DA:197,2
DA:198,2
DA:199,2
DA:200,2
DA:203,2
DA:204,2
DA:207,42
DA:208,40
DA:209,40
DA:210,40
DA:211,40
DA:212,40
DA:213,40
DA:214,40
DA:217,2
DA:220,2
DA:221,2
DA:222,2
DA:225,2
DA:226,2
DA:229,102
DA:230,100
DA:231,100
DA:232,100
DA:233,100
DA:234,100
DA:237,2
DA:238,2
DA:239,2
BRF:0
BRH:0
LF:139
LH:130
end_of_record
SF:/mnt/f/Node/hivellm/synap/synap-server/src/replication/sync.rs
FN:102,_RNvNtNtCsitBd8PkZ0O7_12synap_server11replication4sync14apply_snapshot
FN:25,_RNvNtNtCsitBd8PkZ0O7_12synap_server11replication4sync15create_snapshot
FN:168,_RNvNtNtCsitBd8PkZ0O7_12synap_server11replication4sync17current_timestamp
FN:107,_RNvNtNtCsitBd8PkZ0O7_12synap_server11replication4sync27apply_snapshot_with_streams
FN:30,_RNvNtNtCsitBd8PkZ0O7_12synap_server11replication4sync28create_snapshot_with_streams
FN:113,_RNCNCNvNtNtCsitBd8PkZ0O7_12synap_server11replication4sync27apply_snapshot_with_streams00B9_
FN:128,_RNCNCNvNtNtCsitBd8PkZ0O7_12synap_server11replication4sync27apply_snapshot_with_streams0s0_0B9_
FN:115,_RNCNCNvNtNtCsitBd8PkZ0O7_12synap_server11replication4sync27apply_snapshot_with_streams0s_0B9_
FN:38,_RNCNCNvNtNtCsitBd8PkZ0O7_12synap_server11replication4sync28create_snapshot_with_streams00B9_
FN:95,_RNCNCNvNtNtCsitBd8PkZ0O7_12synap_server11replication4sync28create_snapshot_with_streams0s0_0B9_
FN:71,_RNCNCNvNtNtCsitBd8PkZ0O7_12synap_server11replication4sync28create_snapshot_with_streams0s_0B9_
FN:102,_RNCNvNtNtCsitBd8PkZ0O7_12synap_server11replication4sync14apply_snapshot0B7_
FN:25,_RNCNvNtNtCsitBd8PkZ0O7_12synap_server11replication4sync15create_snapshot0B7_
FN:111,_RNCNvNtNtCsitBd8PkZ0O7_12synap_server11replication4sync27apply_snapshot_with_streams0B7_
FN:34,_RNCNvNtNtCsitBd8PkZ0O7_12synap_server11replication4sync28create_snapshot_with_streams0B7_
FN:113,_RNCNCNvNtNtCsfrV5S290jXb_12synap_server11replication4sync27apply_snapshot_with_streams00B9_
FN:128,_RNCNCNvNtNtCsfrV5S290jXb_12synap_server11replication4sync27apply_snapshot_with_streams0s0_0B9_
FN:115,_RNCNCNvNtNtCsfrV5S290jXb_12synap_server11replication4sync27apply_snapshot_with_streams0s_0B9_
FN:38,_RNCNCNvNtNtCsfrV5S290jXb_12synap_server11replication4sync28create_snapshot_with_streams00B9_
FN:95,_RNCNCNvNtNtCsfrV5S290jXb_12synap_server11replication4sync28create_snapshot_with_streams0s0_0B9_
FN:71,_RNCNCNvNtNtCsfrV5S290jXb_12synap_server11replication4sync28create_snapshot_with_streams0s_0B9_
FN:102,_RNCNvNtNtCsfrV5S290jXb_12synap_server11replication4sync14apply_snapshot0B7_
FN:25,_RNCNvNtNtCsfrV5S290jXb_12synap_server11replication4sync15create_snapshot0B7_
FN:111,_RNCNvNtNtCsfrV5S290jXb_12synap_server11replication4sync27apply_snapshot_with_streams0B7_
FN:34,_RNCNvNtNtCsfrV5S290jXb_12synap_server11replication4sync28create_snapshot_with_streams0B7_
FN:206,_RNCNvNtNtNtCsfrV5S290jXb_12synap_server11replication4sync5testss_35test_snapshot_checksum_verification0B9_
FN:181,_RNCNvNtNtNtCsfrV5S290jXb_12synap_server11replication4sync5testss_38test_snapshot_creation_and_application0B9_
FN:102,_RNvNtNtCsfrV5S290jXb_12synap_server11replication4sync14apply_snapshot
FN:25,_RNvNtNtCsfrV5S290jXb_12synap_server11replication4sync15create_snapshot
FN:168,_RNvNtNtCsfrV5S290jXb_12synap_server11replication4sync17current_timestamp
FN:107,_RNvNtNtCsfrV5S290jXb_12synap_server11replication4sync27apply_snapshot_with_streams
FN:30,_RNvNtNtCsfrV5S290jXb_12synap_server11replication4sync28create_snapshot_with_streams
FN:206,_RNvNtNtNtCsfrV5S290jXb_12synap_server11replication4sync5testss_35test_snapshot_checksum_verification
FN:181,_RNvNtNtNtCsfrV5S290jXb_12synap_server11replication4sync5testss_38test_snapshot_creation_and_application
FNDA:0,_RNvNtNtCsitBd8PkZ0O7_12synap_server11replication4sync14apply_snapshot
FNDA:0,_RNvNtNtCsitBd8PkZ0O7_12synap_server11replication4sync15create_snapshot
FNDA:33,_RNvNtNtCsitBd8PkZ0O7_12synap_server11replication4sync17current_timestamp
FNDA:33,_RNvNtNtCsitBd8PkZ0O7_12synap_server11replication4sync27apply_snapshot_with_streams
FNDA:33,_RNvNtNtCsitBd8PkZ0O7_12synap_server11replication4sync28create_snapshot_with_streams
FNDA:0,_RNCNCNvNtNtCsitBd8PkZ0O7_12synap_server11replication4sync27apply_snapshot_with_streams00B9_
FNDA:0,_RNCNCNvNtNtCsitBd8PkZ0O7_12synap_server11replication4sync27apply_snapshot_with_streams0s0_0B9_
FNDA:0,_RNCNCNvNtNtCsitBd8PkZ0O7_12synap_server11replication4sync27apply_snapshot_with_streams0s_0B9_
FNDA:0,_RNCNCNvNtNtCsitBd8PkZ0O7_12synap_server11replication4sync28create_snapshot_with_streams00B9_
FNDA:0,_RNCNCNvNtNtCsitBd8PkZ0O7_12synap_server11replication4sync28create_snapshot_with_streams0s0_0B9_
FNDA:0,_RNCNCNvNtNtCsitBd8PkZ0O7_12synap_server11replication4sync28create_snapshot_with_streams0s_0B9_
FNDA:0,_RNCNvNtNtCsitBd8PkZ0O7_12synap_server11replication4sync14apply_snapshot0B7_
FNDA:0,_RNCNvNtNtCsitBd8PkZ0O7_12synap_server11replication4sync15create_snapshot0B7_
FNDA:33,_RNCNvNtNtCsitBd8PkZ0O7_12synap_server11replication4sync27apply_snapshot_with_streams0B7_
FNDA:33,_RNCNvNtNtCsitBd8PkZ0O7_12synap_server11replication4sync28create_snapshot_with_streams0B7_
FNDA:0,_RNCNCNvNtNtCsfrV5S290jXb_12synap_server11replication4sync27apply_snapshot_with_streams00B9_
FNDA:0,_RNCNCNvNtNtCsfrV5S290jXb_12synap_server11replication4sync27apply_snapshot_with_streams0s0_0B9_
FNDA:0,_RNCNCNvNtNtCsfrV5S290jXb_12synap_server11replication4sync27apply_snapshot_with_streams0s_0B9_
FNDA:0,_RNCNCNvNtNtCsfrV5S290jXb_12synap_server11replication4sync28create_snapshot_with_streams00B9_
FNDA:0,_RNCNCNvNtNtCsfrV5S290jXb_12synap_server11replication4sync28create_snapshot_with_streams0s0_0B9_
FNDA:0,_RNCNCNvNtNtCsfrV5S290jXb_12synap_server11replication4sync28create_snapshot_with_streams0s_0B9_
FNDA:6,_RNCNvNtNtCsfrV5S290jXb_12synap_server11replication4sync14apply_snapshot0B7_
FNDA:6,_RNCNvNtNtCsfrV5S290jXb_12synap_server11replication4sync15create_snapshot0B7_
FNDA:6,_RNCNvNtNtCsfrV5S290jXb_12synap_server11replication4sync27apply_snapshot_with_streams0B7_
FNDA:6,_RNCNvNtNtCsfrV5S290jXb_12synap_server11replication4sync28create_snapshot_with_streams0B7_
FNDA:2,_RNCNvNtNtNtCsfrV5S290jXb_12synap_server11replication4sync5testss_35test_snapshot_checksum_verification0B9_
FNDA:2,_RNCNvNtNtNtCsfrV5S290jXb_12synap_server11replication4sync5testss_38test_snapshot_creation_and_application0B9_
FNDA:6,_RNvNtNtCsfrV5S290jXb_12synap_server11replication4sync14apply_snapshot
FNDA:6,_RNvNtNtCsfrV5S290jXb_12synap_server11replication4sync15create_snapshot
FNDA:6,_RNvNtNtCsfrV5S290jXb_12synap_server11replication4sync17current_timestamp
FNDA:6,_RNvNtNtCsfrV5S290jXb_12synap_server11replication4sync27apply_snapshot_with_streams
FNDA:6,_RNvNtNtCsfrV5S290jXb_12synap_server11replication4sync28create_snapshot_with_streams
FNDA:2,_RNvNtNtNtCsfrV5S290jXb_12synap_server11replication4sync5testss_35test_snapshot_checksum_verification
FNDA:2,_RNvNtNtNtCsfrV5S290jXb_12synap_server11replication4sync5testss_38test_snapshot_creation_and_application
FNF:19
FNH:13
DA:25,6
DA:26,6
DA:27,6
DA:30,39
DA:31,39
DA:32,39
DA:33,39
DA:34,39
DA:35,39
DA:38,39
DA:39,39
DA:42,39
DA:43,2967
DA:44,2928
DA:45,2928
DA:46,2928
DA:47,2928
DA:48,2928
DA:49,2928
DA:50,2928
DA:54,39
DA:55,39
DA:56,5
DA:57,5
DA:59,14
DA:60,219
DA:61,210
DA:62,210
DA:63,210
DA:64,210
DA:65,210
DA:66,210
DA:68,34
DA:71,39
DA:74,39
DA:77,39
DA:78,39
DA:79,39
DA:80,39
DA:81,39
DA:82,39
DA:83,39
DA:84,39
DA:86,39
DA:87,0
DA:90,0
DA:95,39
DA:96,39
DA:98,39
DA:99,39
DA:102,6
DA:103,6
DA:104,6
DA:107,39
DA:108,39
DA:109,39
DA:110,39
DA:111,39
DA:113,39
DA:115,39
DA:116,39
DA:119,39
DA:120,39
DA:121,2
DA:122,2
DA:123,2
DA:124,2
DA:125,37
DA:128,37
DA:130,37
DA:131,0
DA:132,0
DA:139,3173
DA:140,3136
DA:141,2926
DA:142,2926
DA:145,210
DA:146,210
DA:147,210
DA:149,210
DA:151,210
DA:153,210
DA:155,0
DA:159,0
DA:164,37
DA:165,37
DA:166,39
DA:168,39
DA:169,39
DA:170,39
DA:171,39
DA:172,39
DA:173,39
DA:181,2
DA:182,2
DA:185,2
DA:186,2
DA:187,2
DA:190,2
DA:191,2
DA:194,2
DA:195,2
DA:197,2
DA:200,2
DA:201,2
DA:202,2
DA:203,2
DA:206,2
DA:207,2
DA:208,2
DA:210,2
DA:213,2
DA:214,2
DA:215,2
DA:218,2
DA:219,2
DA:221,2
DA:222,2
DA:223,2
BRF:0
BRH:0
LF:133
LH:117
end_of_record
SF:/mnt/f/Node/hivellm/synap/synap-server/src/replication/tests.rs
FN:79,_RNvNtNtCsfrV5S290jXb_12synap_server11replication5testss_18test_snapshot_sync
FN:120,_RNvNtNtCsfrV5S290jXb_12synap_server11replication5testss_19test_partial_resync
FN:161,_RNvNtNtCsfrV5S290jXb_12synap_server11replication5testss_22test_config_validation
FN:140,_RNvNtNtCsfrV5S290jXb_12synap_server11replication5testss_23test_full_sync_required
FN:21,_RNvNtNtCsfrV5S290jXb_12synap_server11replication5testss_24test_master_replica_sync
FN:6,_RNvNtNtCsfrV5S290jXb_12synap_server11replication5testss_26test_replication_log_basic
FN:62,_RNvNtNtCsfrV5S290jXb_12synap_server11replication5testss_27test_replica_initialization
FN:102,_RNvNtNtCsfrV5S290jXb_12synap_server11replication5testss_32test_replication_lag_calculation
FN:79,_RNCNvNtNtCsfrV5S290jXb_12synap_server11replication5testss_18test_snapshot_sync0B7_
FN:120,_RNCNvNtNtCsfrV5S290jXb_12synap_server11replication5testss_19test_partial_resync0B7_
FN:161,_RNCNvNtNtCsfrV5S290jXb_12synap_server11replication5testss_22test_config_validation0B7_
FN:140,_RNCNvNtNtCsfrV5S290jXb_12synap_server11replication5testss_23test_full_sync_required0B7_
FN:21,_RNCNvNtNtCsfrV5S290jXb_12synap_server11replication5testss_24test_master_replica_sync0B7_
FN:6,_RNCNvNtNtCsfrV5S290jXb_12synap_server11replication5testss_26test_replication_log_basic0B7_
FN:62,_RNCNvNtNtCsfrV5S290jXb_12synap_server11replication5testss_27test_replica_initialization0B7_
FN:102,_RNCNvNtNtCsfrV5S290jXb_12synap_server11replication5testss_32test_replication_lag_calculation0B7_
FNDA:2,_RNvNtNtCsfrV5S290jXb_12synap_server11replication5testss_18test_snapshot_sync
FNDA:2,_RNvNtNtCsfrV5S290jXb_12synap_server11replication5testss_19test_partial_resync
FNDA:2,_RNvNtNtCsfrV5S290jXb_12synap_server11replication5testss_22test_config_validation
FNDA:2,_RNvNtNtCsfrV5S290jXb_12synap_server11replication5testss_23test_full_sync_required
FNDA:2,_RNvNtNtCsfrV5S290jXb_12synap_server11replication5testss_24test_master_replica_sync
FNDA:2,_RNvNtNtCsfrV5S290jXb_12synap_server11replication5testss_26test_replication_log_basic
FNDA:2,_RNvNtNtCsfrV5S290jXb_12synap_server11replication5testss_27test_replica_initialization
FNDA:2,_RNvNtNtCsfrV5S290jXb_12synap_server11replication5testss_32test_replication_lag_calculation
FNDA:2,_RNCNvNtNtCsfrV5S290jXb_12synap_server11replication5testss_18test_snapshot_sync0B7_
FNDA:2,_RNCNvNtNtCsfrV5S290jXb_12synap_server11replication5testss_19test_partial_resync0B7_
FNDA:2,_RNCNvNtNtCsfrV5S290jXb_12synap_server11replication5testss_22test_config_validation0B7_
FNDA:2,_RNCNvNtNtCsfrV5S290jXb_12synap_server11replication5testss_23test_full_sync_required0B7_
FNDA:2,_RNCNvNtNtCsfrV5S290jXb_12synap_server11replication5testss_24test_master_replica_sync0B7_
FNDA:2,_RNCNvNtNtCsfrV5S290jXb_12synap_server11replication5testss_26test_replication_log_basic0B7_
FNDA:2,_RNCNvNtNtCsfrV5S290jXb_12synap_server11replication5testss_27test_replica_initialization0B7_
FNDA:2,_RNCNvNtNtCsfrV5S290jXb_12synap_server11replication5testss_32test_replication_lag_calculation0B7_
FNF:16
FNH:16
DA:6,2
DA:7,2
DA:9,2
DA:10,2
DA:11,2
DA:12,2
DA:13,2
DA:15,2
DA:16,2
DA:17,2
DA:18,2
DA:21,2
DA:23,2
DA:24,2
DA:25,2
DA:26,2
DA:28,2
DA:29,2
DA:30,2
DA:31,2
DA:34,2
DA:35,2
DA:36,2
DA:37,2
DA:38,2
DA:39,2
DA:40,2
DA:41,2
DA:44,2
DA:45,2
DA:46,2
DA:47,2
DA:48,2
DA:50,2
DA:51,2
DA:52,2
DA:53,2
DA:54,2
DA:57,2
DA:58,2
DA:59,2
DA:62,2
DA:63,2
DA:64,2
DA:65,2
DA:66,2
DA:67,2
DA:69,2
DA:70,2
DA:71,2
DA:72,2
DA:74,2
DA:75,2
DA:76,2
DA:79,2
DA:80,2
DA:83,2
DA:84,2
DA:85,2
DA:88,2
DA:89,2
DA:92,2
DA:93,2
DA:95,2
DA:96,2
DA:97,2
DA:98,2
DA:99,2
DA:102,2
DA:103,2
DA:106,202
DA:107,200
DA:108,200
DA:109,200
DA:110,200
DA:111,200
DA:112,200
DA:115,2
DA:116,2
DA:117,2
DA:120,2
DA:121,2
DA:124,102
DA:125,100
DA:126,100
DA:127,100
DA:128,100
DA:129,100
DA:130,100
DA:133,2
DA:134,2
DA:135,2
DA:136,2
DA:137,2
DA:140,2
DA:141,2
DA:144,102
DA:145,100
DA:146,100
DA:147,100
DA:148,100
DA:149,100
DA:150,100
DA:153,2
DA:156,2
DA:157,2
DA:158,2
DA:161,2
DA:163,2
DA:164,2
DA:165,2
DA:166,2
DA:167,2
DA:170,2
DA:171,2
DA:172,2
DA:173,2
DA:176,2
DA:177,2
DA:178,2
DA:179,2
DA:180,2
DA:183,2
DA:184,2
DA:185,2
DA:186,2
DA:187,2
BRF:0
BRH:0
LF:143
LH:143
end_of_record
SF:/mnt/f/Node/hivellm/synap/synap-server/src/replication/types.rs
FN:113,_RNvXNtNtCsitBd8PkZ0O7_12synap_server11replication5typesNtB2_16ReplicationErrorINtNtCsluXpZPV6FGj_4core7convert4FromNtNtCs50utreyAwLK_10serde_json5error5ErrorE4from
FN:119,_RNvXs_NtNtCsitBd8PkZ0O7_12synap_server11replication5typesNtB4_16ReplicationErrorINtNtCsluXpZPV6FGj_4core7convert4FromINtNtCsjftXE05v0h2_5alloc5boxed3BoxNtNtCs1P7IgVNB6kP_7bincode5error9ErrorKindEE4from
FN:113,_RNvXNtNtCsfrV5S290jXb_12synap_server11replication5typesNtB2_16ReplicationErrorINtNtCsluXpZPV6FGj_4core7convert4FromNtNtCs50utreyAwLK_10serde_json5error5ErrorE4from
FN:119,_RNvXs_NtNtCsfrV5S290jXb_12synap_server11replication5typesNtB4_16ReplicationErrorINtNtCsluXpZPV6FGj_4core7convert4FromINtNtCsjftXE05v0h2_5alloc5boxed3BoxNtNtCs1P7IgVNB6kP_7bincode5error9ErrorKindEE4from
FNDA:0,_RNvXNtNtCsitBd8PkZ0O7_12synap_server11replication5typesNtB2_16ReplicationErrorINtNtCsluXpZPV6FGj_4core7convert4FromNtNtCs50utreyAwLK_10serde_json5error5ErrorE4from
FNDA:0,_RNvXs_NtNtCsitBd8PkZ0O7_12synap_server11replication5typesNtB4_16ReplicationErrorINtNtCsluXpZPV6FGj_4core7convert4FromINtNtCsjftXE05v0h2_5alloc5boxed3BoxNtNtCs1P7IgVNB6kP_7bincode5error9ErrorKindEE4from
FNDA:0,_RNvXNtNtCsfrV5S290jXb_12synap_server11replication5typesNtB2_16ReplicationErrorINtNtCsluXpZPV6FGj_4core7convert4FromNtNtCs50utreyAwLK_10serde_json5error5ErrorE4from
FNDA:0,_RNvXs_NtNtCsfrV5S290jXb_12synap_server11replication5typesNtB4_16ReplicationErrorINtNtCsluXpZPV6FGj_4core7convert4FromINtNtCsjftXE05v0h2_5alloc5boxed3BoxNtNtCs1P7IgVNB6kP_7bincode5error9ErrorKindEE4from
FNF:2
FNH:0
DA:113,0
DA:114,0
DA:115,0
DA:119,0
DA:120,0
DA:121,0
BRF:0
BRH:0
LF:6
LH:0
end_of_record
SF:/mnt/f/Node/hivellm/synap/synap-server/src/server/handlers.rs
FN:2074,_RNCNCNCNCNvNtNtCsitBd8PkZ0O7_12synap_server6server8handlers25handle_pubsub_publish_cmd0s2_000Bd_
FN:2109,_RNCNCNCNCNvNtNtCsitBd8PkZ0O7_12synap_server6server8handlers29handle_pubsub_unsubscribe_cmd0s1_000Bd_
FN:937,_RNCNCNCNvNtNtCsitBd8PkZ0O7_12synap_server6server8handlers18handle_kv_mget_cmd0s0_00Bb_
FN:1106,_RNCNCNCNvNtNtCsitBd8PkZ0O7_12synap_server6server8handlers23handle_queue_create_cmd0s1_00Bb_
FN:1108,_RNCNCNCNvNtNtCsitBd8PkZ0O7_12synap_server6server8handlers23handle_queue_create_cmd0s1_0s0_0Bb_
FN:1111,_RNCNCNCNvNtNtCsitBd8PkZ0O7_12synap_server6server8handlers23handle_queue_create_cmd0s1_0s1_0Bb_
FN:1112,_RNCNCNCNvNtNtCsitBd8PkZ0O7_12synap_server6server8handlers23handle_queue_create_cmd0s1_0s2_0Bb_
FN:1115,_RNCNCNCNvNtNtCsitBd8PkZ0O7_12synap_server6server8handlers23handle_queue_create_cmd0s1_0s3_0Bb_
FN:1116,_RNCNCNCNvNtNtCsitBd8PkZ0O7_12synap_server6server8handlers23handle_queue_create_cmd0s1_0s4_0Bb_
FN:1107,_RNCNCNCNvNtNtCsitBd8PkZ0O7_12synap_server6server8handlers23handle_queue_create_cmd0s1_0s_0Bb_
FN:1181,_RNCNCNCNvNtNtCsitBd8PkZ0O7_12synap_server6server8handlers24handle_queue_publish_cmd0s3_00Bb_
FN:2074,_RNCNCNCNvNtNtCsitBd8PkZ0O7_12synap_server6server8handlers25handle_pubsub_publish_cmd0s2_00Bb_
FN:2031,_RNCNCNCNvNtNtCsitBd8PkZ0O7_12synap_server6server8handlers27handle_pubsub_subscribe_cmd0s1_00Bb_
FN:2107,_RNCNCNCNvNtNtCsitBd8PkZ0O7_12synap_server6server8handlers29handle_pubsub_unsubscribe_cmd0s1_00Bb_
FN:593,_RNCNCNvNtNtCsitBd8PkZ0O7_12synap_server6server8handlers10queue_list00B9_
FN:556,_RNCNCNvNtNtCsitBd8PkZ0O7_12synap_server6server8handlers10queue_nack00B9_
FN:2550,_RNCNCNvNtNtCsitBd8PkZ0O7_12synap_server6server8handlers11list_topics00B9_
FN:610,_RNCNCNvNtNtCsitBd8PkZ0O7_12synap_server6server8handlers11queue_purge00B9_
FN:575,_RNCNCNvNtNtCsitBd8PkZ0O7_12synap_server6server8handlers11queue_stats00B9_
FN:579,_RNCNCNvNtNtCsitBd8PkZ0O7_12synap_server6server8handlers11queue_stats0s_0B9_
FN:2568,_RNCNCNvNtNtCsitBd8PkZ0O7_12synap_server6server8handlers12delete_topic00B9_
FN:1367,_RNCNCNvNtNtCsitBd8PkZ0O7_12synap_server6server8handlers12kv_websocket00B9_
FN:1368,_RNCNCNvNtNtCsitBd8PkZ0O7_12synap_server6server8handlers12kv_websocket0s_0B9_
FN:1957,_RNCNCNvNtNtCsitBd8PkZ0O7_12synap_server6server8handlers12pubsub_stats00B9_
FN:443,_RNCNCNvNtNtCsitBd8PkZ0O7_12synap_server6server8handlers12queue_create00B9_
FN:630,_RNCNCNvNtNtCsitBd8PkZ0O7_12synap_server6server8handlers12queue_delete00B9_
FN:2728,_RNCNCNvNtNtCsitBd8PkZ0O7_12synap_server6server8handlers13commit_offset00B9_
FN:498,_RNCNCNvNtNtCsitBd8PkZ0O7_12synap_server6server8handlers13queue_consume00B9_
FN:475,_RNCNCNvNtNtCsitBd8PkZ0O7_12synap_server6server8handlers13queue_publish00B9_
FN:1901,_RNCNCNvNtNtCsitBd8PkZ0O7_12synap_server6server8handlers14pubsub_publish00B9_
FN:343,_RNCNCNvNtNtCsitBd8PkZ0O7_12synap_server6server8handlers14stream_consume00B9_
FN:352,_RNCNCNvNtNtCsitBd8PkZ0O7_12synap_server6server8handlers14stream_consume0s0_0B9_
FN:360,_RNCNCNvNtNtCsitBd8PkZ0O7_12synap_server6server8handlers14stream_consume0s1_0B9_
FN:347,_RNCNCNvNtNtCsitBd8PkZ0O7_12synap_server6server8handlers14stream_consume0s_0B9_
FN:313,_RNCNCNvNtNtCsitBd8PkZ0O7_12synap_server6server8handlers14stream_publish00B9_
FN:316,_RNCNCNvNtNtCsitBd8PkZ0O7_12synap_server6server8handlers14stream_publish0s_0B9_
FN:2530,_RNCNCNvNtNtCsitBd8PkZ0O7_12synap_server6server8handlers15get_topic_stats00B9_
FN:1417,_RNCNCNvNtNtCsitBd8PkZ0O7_12synap_server6server8handlers15queue_websocket00B9_
FN:1872,_RNCNCNvNtNtCsitBd8PkZ0O7_12synap_server6server8handlers16pubsub_subscribe00B9_
FN:1704,_RNCNCNvNtNtCsitBd8PkZ0O7_12synap_server6server8handlers16pubsub_websocket00B9_
FN:1718,_RNCNCNvNtNtCsitBd8PkZ0O7_12synap_server6server8handlers16pubsub_websocket0s0_0B9_
FN:1705,_RNCNCNvNtNtCsitBd8PkZ0O7_12synap_server6server8handlers16pubsub_websocket0s_0B9_
FN:1557,_RNCNCNvNtNtCsitBd8PkZ0O7_12synap_server6server8handlers16stream_websocket00B9_
FN:1565,_RNCNCNvNtNtCsitBd8PkZ0O7_12synap_server6server8handlers16stream_websocket0s_0B9_
FN:244,_RNCNCNvNtNtCsitBd8PkZ0O7_12synap_server6server8handlers16trigger_snapshot00B9_
FN:793,_RNCNCNvNtNtCsitBd8PkZ0O7_12synap_server6server8handlers17handle_kv_del_cmd00B9_
FN:794,_RNCNCNvNtNtCsitBd8PkZ0O7_12synap_server6server8handlers17handle_kv_del_cmd0s_0B9_
FN:759,_RNCNCNvNtNtCsitBd8PkZ0O7_12synap_server6server8handlers17handle_kv_get_cmd00B9_
FN:765,_RNCNCNvNtNtCsitBd8PkZ0O7_12synap_server6server8handlers17handle_kv_get_cmd0s0_0B9_
FN:776,_RNCNCNvNtNtCsitBd8PkZ0O7_12synap_server6server8handlers17handle_kv_get_cmd0s1_0B9_
FN:760,_RNCNCNvNtNtCsitBd8PkZ0O7_12synap_server6server8handlers17handle_kv_get_cmd0s_0B9_
FN:727,_RNCNCNvNtNtCsitBd8PkZ0O7_12synap_server6server8handlers17handle_kv_set_cmd00B9_
FN:733,_RNCNCNvNtNtCsitBd8PkZ0O7_12synap_server6server8handlers17handle_kv_set_cmd0s0_0B9_
FN:735,_RNCNCNvNtNtCsitBd8PkZ0O7_12synap_server6server8handlers17handle_kv_set_cmd0s1_0B9_
FN:738,_RNCNCNvNtNtCsitBd8PkZ0O7_12synap_server6server8handlers17handle_kv_set_cmd0s2_0B9_
FN:728,_RNCNCNvNtNtCsitBd8PkZ0O7_12synap_server6server8handlers17handle_kv_set_cmd0s_0B9_
FN:1065,_RNCNCNvNtNtCsitBd8PkZ0O7_12synap_server6server8handlers17handle_kv_ttl_cmd00B9_
FN:1066,_RNCNCNvNtNtCsitBd8PkZ0O7_12synap_server6server8handlers17handle_kv_ttl_cmd0s_0B9_
FN:1993,_RNCNCNvNtNtCsitBd8PkZ0O7_12synap_server6server8handlers17pubsub_topic_info00B9_
FN:397,_RNCNCNvNtNtCsitBd8PkZ0O7_12synap_server6server8handlers17stream_list_rooms00B9_
FN:378,_RNCNCNvNtNtCsitBd8PkZ0O7_12synap_server6server8handlers17stream_room_stats00B9_
FN:2809,_RNCNCNvNtNtCsitBd8PkZ0O7_12synap_server6server8handlers18consumer_heartbeat00B9_
FN:858,_RNCNCNvNtNtCsitBd8PkZ0O7_12synap_server6server8handlers18handle_kv_decr_cmd00B9_
FN:864,_RNCNCNvNtNtCsitBd8PkZ0O7_12synap_server6server8handlers18handle_kv_decr_cmd0s0_0B9_
FN:859,_RNCNCNvNtNtCsitBd8PkZ0O7_12synap_server6server8handlers18handle_kv_decr_cmd0s_0B9_
FN:830,_RNCNCNvNtNtCsitBd8PkZ0O7_12synap_server6server8handlers18handle_kv_incr_cmd00B9_
FN:836,_RNCNCNvNtNtCsitBd8PkZ0O7_12synap_server6server8handlers18handle_kv_incr_cmd0s0_0B9_
FN:831,_RNCNCNvNtNtCsitBd8PkZ0O7_12synap_server6server8handlers18handle_kv_incr_cmd0s_0B9_
FN:950,_RNCNCNvNtNtCsitBd8PkZ0O7_12synap_server6server8handlers18handle_kv_mdel_cmd00B9_
FN:953,_RNCNCNvNtNtCsitBd8PkZ0O7_12synap_server6server8handlers18handle_kv_mdel_cmd0s_0B9_
FN:928,_RNCNCNvNtNtCsitBd8PkZ0O7_12synap_server6server8handlers18handle_kv_mget_cmd00B9_
FN:937,_RNCNCNvNtNtCsitBd8PkZ0O7_12synap_server6server8handlers18handle_kv_mget_cmd0s0_0B9_
FN:931,_RNCNCNvNtNtCsitBd8PkZ0O7_12synap_server6server8handlers18handle_kv_mget_cmd0s_0B9_
FN:886,_RNCNCNvNtNtCsitBd8PkZ0O7_12synap_server6server8handlers18handle_kv_mset_cmd00B9_
FN:896,_RNCNCNvNtNtCsitBd8PkZ0O7_12synap_server6server8handlers18handle_kv_mset_cmd0s0_0B9_
FN:897,_RNCNCNvNtNtCsitBd8PkZ0O7_12synap_server6server8handlers18handle_kv_mset_cmd0s1_0B9_
FN:901,_RNCNCNvNtNtCsitBd8PkZ0O7_12synap_server6server8handlers18handle_kv_mset_cmd0s2_0B9_
FN:904,_RNCNCNvNtNtCsitBd8PkZ0O7_12synap_server6server8handlers18handle_kv_mset_cmd0s3_0B9_
FN:890,_RNCNCNvNtNtCsitBd8PkZ0O7_12synap_server6server8handlers18handle_kv_mset_cmd0s_0B9_
FN:971,_RNCNCNvNtNtCsitBd8PkZ0O7_12synap_server6server8handlers18handle_kv_scan_cmd00B9_
FN:975,_RNCNCNvNtNtCsitBd8PkZ0O7_12synap_server6server8handlers18handle_kv_scan_cmd0s_0B9_
FN:1973,_RNCNCNvNtNtCsitBd8PkZ0O7_12synap_server6server8handlers18pubsub_list_topics00B9_
FN:1932,_RNCNCNvNtNtCsitBd8PkZ0O7_12synap_server6server8handlers18pubsub_unsubscribe00B9_
FN:289,_RNCNCNvNtNtCsitBd8PkZ0O7_12synap_server6server8handlers18stream_create_room00B9_
FN:417,_RNCNCNvNtNtCsitBd8PkZ0O7_12synap_server6server8handlers18stream_delete_room00B9_
FN:2649,_RNCNCNvNtNtCsitBd8PkZ0O7_12synap_server6server8handlers19join_consumer_group00B9_
FN:2750,_RNCNCNvNtNtCsitBd8PkZ0O7_12synap_server6server8handlers20get_committed_offset00B9_
FN:815,_RNCNCNvNtNtCsitBd8PkZ0O7_12synap_server6server8handlers20handle_kv_exists_cmd00B9_
FN:816,_RNCNCNvNtNtCsitBd8PkZ0O7_12synap_server6server8handlers20handle_kv_exists_cmd0s_0B9_
FN:1045,_RNCNCNvNtNtCsitBd8PkZ0O7_12synap_server6server8handlers20handle_kv_expire_cmd00B9_
FN:1051,_RNCNCNvNtNtCsitBd8PkZ0O7_12synap_server6server8handlers20handle_kv_expire_cmd0s0_0B9_
FN:1052,_RNCNCNvNtNtCsitBd8PkZ0O7_12synap_server6server8handlers20handle_kv_expire_cmd0s1_0B9_
FN:1046,_RNCNCNvNtNtCsitBd8PkZ0O7_12synap_server6server8handlers20handle_kv_expire_cmd0s_0B9_
FN:1248,_RNCNCNvNtNtCsitBd8PkZ0O7_12synap_server6server8handlers20handle_queue_ack_cmd00B9_
FN:1254,_RNCNCNvNtNtCsitBd8PkZ0O7_12synap_server6server8handlers20handle_queue_ack_cmd0s0_0B9_
FN:1259,_RNCNCNvNtNtCsitBd8PkZ0O7_12synap_server6server8handlers20handle_queue_ack_cmd0s1_0B9_
FN:1260,_RNCNCNvNtNtCsitBd8PkZ0O7_12synap_server6server8handlers20handle_queue_ack_cmd0s2_0B9_
FN:1253,_RNCNCNvNtNtCsitBd8PkZ0O7_12synap_server6server8handlers20handle_queue_ack_cmd0s_0B9_
FN:2675,_RNCNCNvNtNtCsitBd8PkZ0O7_12synap_server6server8handlers20leave_consumer_group00B9_
FN:2791,_RNCNCNvNtNtCsitBd8PkZ0O7_12synap_server6server8handlers20list_consumer_groups00B9_
FN:2467,_RNCNCNvNtNtCsitBd8PkZ0O7_12synap_server6server8handlers20publish_to_partition00B9_
FN:2472,_RNCNCNvNtNtCsitBd8PkZ0O7_12synap_server6server8handlers20publish_to_partition0s0_0B9_
FN:2470,_RNCNCNvNtNtCsitBd8PkZ0O7_12synap_server6server8handlers20publish_to_partition0s_0B9_
FN:2602,_RNCNCNvNtNtCsitBd8PkZ0O7_12synap_server6server8handlers21create_consumer_group00B9_
FN:1079,_RNCNCNvNtNtCsitBd8PkZ0O7_12synap_server6server8handlers21handle_kv_persist_cmd00B9_
FN:1080,_RNCNCNvNtNtCsitBd8PkZ0O7_12synap_server6server8handlers21handle_kv_persist_cmd0s_0B9_
FN:1304,_RNCNCNvNtNtCsitBd8PkZ0O7_12synap_server6server8handlers21handle_queue_list_cmd00B9_
FN:1273,_RNCNCNvNtNtCsitBd8PkZ0O7_12synap_server6server8handlers21handle_queue_nack_cmd00B9_
FN:1279,_RNCNCNvNtNtCsitBd8PkZ0O7_12synap_server6server8handlers21handle_queue_nack_cmd0s0_0B9_
FN:1284,_RNCNCNvNtNtCsitBd8PkZ0O7_12synap_server6server8handlers21handle_queue_nack_cmd0s1_0B9_
FN:1285,_RNCNCNvNtNtCsitBd8PkZ0O7_12synap_server6server8handlers21handle_queue_nack_cmd0s2_0B9_
FN:1290,_RNCNCNvNtNtCsitBd8PkZ0O7_12synap_server6server8handlers21handle_queue_nack_cmd0s3_0B9_
FN:1278,_RNCNCNvNtNtCsitBd8PkZ0O7_12synap_server6server8handlers21handle_queue_nack_cmd0s_0B9_
FN:2501,_RNCNCNvNtNtCsitBd8PkZ0O7_12synap_server6server8handlers22consume_from_partition00B9_
FN:2511,_RNCNCNvNtNtCsitBd8PkZ0O7_12synap_server6server8handlers22consume_from_partition0s_0B9_
FN:2155,_RNCNCNvNtNtCsitBd8PkZ0O7_12synap_server6server8handlers22handle_pubsub_info_cmd00B9_
FN:2161,_RNCNCNvNtNtCsitBd8PkZ0O7_12synap_server6server8handlers22handle_pubsub_info_cmd0s0_0B9_
FN:2165,_RNCNCNvNtNtCsitBd8PkZ0O7_12synap_server6server8handlers22handle_pubsub_info_cmd0s1_0B9_
FN:2160,_RNCNCNvNtNtCsitBd8PkZ0O7_12synap_server6server8handlers22handle_pubsub_info_cmd0s_0B9_
FN:1336,_RNCNCNvNtNtCsitBd8PkZ0O7_12synap_server6server8handlers22handle_queue_purge_cmd00B9_
FN:1342,_RNCNCNvNtNtCsitBd8PkZ0O7_12synap_server6server8handlers22handle_queue_purge_cmd0s0_0B9_
FN:1341,_RNCNCNvNtNtCsitBd8PkZ0O7_12synap_server6server8handlers22handle_queue_purge_cmd0s_0B9_
FN:1317,_RNCNCNvNtNtCsitBd8PkZ0O7_12synap_server6server8handlers22handle_queue_stats_cmd00B9_
FN:1323,_RNCNCNvNtNtCsitBd8PkZ0O7_12synap_server6server8handlers22handle_queue_stats_cmd0s0_0B9_
FN:1326,_RNCNCNvNtNtCsitBd8PkZ0O7_12synap_server6server8handlers22handle_queue_stats_cmd0s1_0B9_
FN:1322,_RNCNCNvNtNtCsitBd8PkZ0O7_12synap_server6server8handlers22handle_queue_stats_cmd0s_0B9_
FN:2319,_RNCNCNvNtNtCsitBd8PkZ0O7_12synap_server6server8handlers22handle_stream_list_cmd00B9_
FN:2126,_RNCNCNvNtNtCsitBd8PkZ0O7_12synap_server6server8handlers23handle_pubsub_stats_cmd00B9_
FN:2129,_RNCNCNvNtNtCsitBd8PkZ0O7_12synap_server6server8handlers23handle_pubsub_stats_cmd0s_0B9_
FN:1095,_RNCNCNvNtNtCsitBd8PkZ0O7_12synap_server6server8handlers23handle_queue_create_cmd00B9_
FN:1101,_RNCNCNvNtNtCsitBd8PkZ0O7_12synap_server6server8handlers23handle_queue_create_cmd0s0_0B9_
FN:1103,_RNCNCNvNtNtCsitBd8PkZ0O7_12synap_server6server8handlers23handle_queue_create_cmd0s1_0B9_
FN:1100,_RNCNCNvNtNtCsitBd8PkZ0O7_12synap_server6server8handlers23handle_queue_create_cmd0s_0B9_
FN:1145,_RNCNCNvNtNtCsitBd8PkZ0O7_12synap_server6server8handlers23handle_queue_delete_cmd00B9_
FN:1151,_RNCNCNvNtNtCsitBd8PkZ0O7_12synap_server6server8handlers23handle_queue_delete_cmd0s0_0B9_
FN:1152,_RNCNCNvNtNtCsitBd8PkZ0O7_12synap_server6server8handlers23handle_queue_delete_cmd0s1_0B9_
FN:1150,_RNCNCNvNtNtCsitBd8PkZ0O7_12synap_server6server8handlers23handle_queue_delete_cmd0s_0B9_
FN:2296,_RNCNCNvNtNtCsitBd8PkZ0O7_12synap_server6server8handlers23handle_stream_stats_cmd00B9_
FN:2302,_RNCNCNvNtNtCsitBd8PkZ0O7_12synap_server6server8handlers23handle_stream_stats_cmd0s0_0B9_
FN:2309,_RNCNCNvNtNtCsitBd8PkZ0O7_12synap_server6server8handlers23handle_stream_stats_cmd0s1_0B9_
FN:2301,_RNCNCNvNtNtCsitBd8PkZ0O7_12synap_server6server8handlers23handle_stream_stats_cmd0s_0B9_
FN:2422,_RNCNCNvNtNtCsitBd8PkZ0O7_12synap_server6server8handlers24create_partitioned_topic00B9_
FN:2772,_RNCNCNvNtNtCsitBd8PkZ0O7_12synap_server6server8handlers24get_consumer_group_stats00B9_
FN:2779,_RNCNCNvNtNtCsitBd8PkZ0O7_12synap_server6server8handlers24get_consumer_group_stats0s_0B9_
FN:2699,_RNCNCNvNtNtCsitBd8PkZ0O7_12synap_server6server8handlers24get_partition_assignment00B9_
FN:2139,_RNCNCNvNtNtCsitBd8PkZ0O7_12synap_server6server8handlers24handle_pubsub_topics_cmd00B9_
FN:1210,_RNCNCNvNtNtCsitBd8PkZ0O7_12synap_server6server8handlers24handle_queue_consume_cmd00B9_
FN:1216,_RNCNCNvNtNtCsitBd8PkZ0O7_12synap_server6server8handlers24handle_queue_consume_cmd0s0_0B9_
FN:1221,_RNCNCNvNtNtCsitBd8PkZ0O7_12synap_server6server8handlers24handle_queue_consume_cmd0s1_0B9_
FN:1222,_RNCNCNvNtNtCsitBd8PkZ0O7_12synap_server6server8handlers24handle_queue_consume_cmd0s2_0B9_
FN:1215,_RNCNCNvNtNtCsitBd8PkZ0O7_12synap_server6server8handlers24handle_queue_consume_cmd0s_0B9_
FN:1165,_RNCNCNvNtNtCsitBd8PkZ0O7_12synap_server6server8handlers24handle_queue_publish_cmd00B9_
FN:1171,_RNCNCNvNtNtCsitBd8PkZ0O7_12synap_server6server8handlers24handle_queue_publish_cmd0s0_0B9_
FN:1176,_RNCNCNvNtNtCsitBd8PkZ0O7_12synap_server6server8handlers24handle_queue_publish_cmd0s1_0B9_
FN:1177,_RNCNCNvNtNtCsitBd8PkZ0O7_12synap_server6server8handlers24handle_queue_publish_cmd0s2_0B9_
FN:1181,_RNCNCNvNtNtCsitBd8PkZ0O7_12synap_server6server8handlers24handle_queue_publish_cmd0s3_0B9_
FN:1187,_RNCNCNvNtNtCsitBd8PkZ0O7_12synap_server6server8handlers24handle_queue_publish_cmd0s4_0B9_
FN:1188,_RNCNCNvNtNtCsitBd8PkZ0O7_12synap_server6server8handlers24handle_queue_publish_cmd0s5_0B9_
FN:1192,_RNCNCNvNtNtCsitBd8PkZ0O7_12synap_server6server8handlers24handle_queue_publish_cmd0s6_0B9_
FN:1193,_RNCNCNvNtNtCsitBd8PkZ0O7_12synap_server6server8handlers24handle_queue_publish_cmd0s7_0B9_
FN:1170,_RNCNCNvNtNtCsitBd8PkZ0O7_12synap_server6server8handlers24handle_queue_publish_cmd0s_0B9_
FN:2184,_RNCNCNvNtNtCsitBd8PkZ0O7_12synap_server6server8handlers24handle_stream_create_cmd00B9_
FN:2190,_RNCNCNvNtNtCsitBd8PkZ0O7_12synap_server6server8handlers24handle_stream_create_cmd0s0_0B9_
FN:2189,_RNCNCNvNtNtCsitBd8PkZ0O7_12synap_server6server8handlers24handle_stream_create_cmd0s_0B9_
FN:2336,_RNCNCNvNtNtCsitBd8PkZ0O7_12synap_server6server8handlers24handle_stream_delete_cmd00B9_
FN:2342,_RNCNCNvNtNtCsitBd8PkZ0O7_12synap_server6server8handlers24handle_stream_delete_cmd0s0_0B9_
FN:2341,_RNCNCNvNtNtCsitBd8PkZ0O7_12synap_server6server8handlers24handle_stream_delete_cmd0s_0B9_
FN:2056,_RNCNCNvNtNtCsitBd8PkZ0O7_12synap_server6server8handlers25handle_pubsub_publish_cmd00B9_
FN:2062,_RNCNCNvNtNtCsitBd8PkZ0O7_12synap_server6server8handlers25handle_pubsub_publish_cmd0s0_0B9_
FN:2067,_RNCNCNvNtNtCsitBd8PkZ0O7_12synap_server6server8handlers25handle_pubsub_publish_cmd0s1_0B9_
FN:2070,_RNCNCNvNtNtCsitBd8PkZ0O7_12synap_server6server8handlers25handle_pubsub_publish_cmd0s2_0B9_
FN:2061,_RNCNCNvNtNtCsitBd8PkZ0O7_12synap_server6server8handlers25handle_pubsub_publish_cmd0s_0B9_
FN:2250,_RNCNCNvNtNtCsitBd8PkZ0O7_12synap_server6server8handlers25handle_stream_consume_cmd00B9_
FN:2256,_RNCNCNvNtNtCsitBd8PkZ0O7_12synap_server6server8handlers25handle_stream_consume_cmd0s0_0B9_
FN:2261,_RNCNCNvNtNtCsitBd8PkZ0O7_12synap_server6server8handlers25handle_stream_consume_cmd0s1_0B9_
FN:2262,_RNCNCNvNtNtCsitBd8PkZ0O7_12synap_server6server8handlers25handle_stream_consume_cmd0s2_0B9_
FN:2267,_RNCNCNvNtNtCsitBd8PkZ0O7_12synap_server6server8handlers25handle_stream_consume_cmd0s3_0B9_
FN:2273,_RNCNCNvNtNtCsitBd8PkZ0O7_12synap_server6server8handlers25handle_stream_consume_cmd0s4_0B9_
FN:2281,_RNCNCNvNtNtCsitBd8PkZ0O7_12synap_server6server8handlers25handle_stream_consume_cmd0s5_0B9_
FN:2255,_RNCNCNvNtNtCsitBd8PkZ0O7_12synap_server6server8handlers25handle_stream_consume_cmd0s_0B9_
FN:2210,_RNCNCNvNtNtCsitBd8PkZ0O7_12synap_server6server8handlers25handle_stream_publish_cmd00B9_
FN:2216,_RNCNCNvNtNtCsitBd8PkZ0O7_12synap_server6server8handlers25handle_stream_publish_cmd0s0_0B9_
FN:2221,_RNCNCNvNtNtCsitBd8PkZ0O7_12synap_server6server8handlers25handle_stream_publish_cmd0s1_0B9_
FN:2222,_RNCNCNvNtNtCsitBd8PkZ0O7_12synap_server6server8handlers25handle_stream_publish_cmd0s2_0B9_
FN:2227,_RNCNCNvNtNtCsitBd8PkZ0O7_12synap_server6server8handlers25handle_stream_publish_cmd0s3_0B9_
FN:2230,_RNCNCNvNtNtCsitBd8PkZ0O7_12synap_server6server8handlers25handle_stream_publish_cmd0s4_0B9_
FN:2215,_RNCNCNvNtNtCsitBd8PkZ0O7_12synap_server6server8handlers25handle_stream_publish_cmd0s_0B9_
FN:2018,_RNCNCNvNtNtCsitBd8PkZ0O7_12synap_server6server8handlers27handle_pubsub_subscribe_cmd00B9_
FN:2027,_RNCNCNvNtNtCsitBd8PkZ0O7_12synap_server6server8handlers27handle_pubsub_subscribe_cmd0s0_0B9_
FN:2031,_RNCNCNvNtNtCsitBd8PkZ0O7_12synap_server6server8handlers27handle_pubsub_subscribe_cmd0s1_0B9_
FN:2023,_RNCNCNvNtNtCsitBd8PkZ0O7_12synap_server6server8handlers27handle_pubsub_subscribe_cmd0s_0B9_
FN:2098,_RNCNCNvNtNtCsitBd8PkZ0O7_12synap_server6server8handlers29handle_pubsub_unsubscribe_cmd00B9_
FN:2104,_RNCNCNvNtNtCsitBd8PkZ0O7_12synap_server6server8handlers29handle_pubsub_unsubscribe_cmd0s0_0B9_
FN:2106,_RNCNCNvNtNtCsitBd8PkZ0O7_12synap_server6server8handlers29handle_pubsub_unsubscribe_cmd0s1_0B9_
FN:2103,_RNCNCNvNtNtCsitBd8PkZ0O7_12synap_server6server8handlers29handle_pubsub_unsubscribe_cmd0s_0B9_
FN:185,_RNCNCNvNtNtCsitBd8PkZ0O7_12synap_server6server8handlers6kv_get00B9_
FN:196,_RNCNCNvNtNtCsitBd8PkZ0O7_12synap_server6server8handlers6kv_get0s_0B9_
FN:154,_RNCNCNvNtNtCsitBd8PkZ0O7_12synap_server6server8handlers6kv_set00B9_
FN:535,_RNCNCNvNtNtCsitBd8PkZ0O7_12synap_server6server8handlers9queue_ack00B9_
FN:587,_RNCNvNtNtCsitBd8PkZ0O7_12synap_server6server8handlers10queue_list0B7_
FN:547,_RNCNvNtNtCsitBd8PkZ0O7_12synap_server6server8handlers10queue_nack0B7_
FN:2546,_RNCNvNtNtCsitBd8PkZ0O7_12synap_server6server8handlers11list_topics0B7_
FN:604,_RNCNvNtNtCsitBd8PkZ0O7_12synap_server6server8handlers11queue_purge0B7_
FN:569,_RNCNvNtNtCsitBd8PkZ0O7_12synap_server6server8handlers11queue_stats0B7_
FN:2564,_RNCNvNtNtCsitBd8PkZ0O7_12synap_server6server8handlers12delete_topic0B7_
FN:77,_RNCNvNtNtCsitBd8PkZ0O7_12synap_server6server8handlers12health_check0B7_
FN:1362,_RNCNvNtNtCsitBd8PkZ0O7_12synap_server6server8handlers12kv_websocket0B7_
FN:1954,_RNCNvNtNtCsitBd8PkZ0O7_12synap_server6server8handlers12pubsub_stats0B7_
FN:437,_RNCNvNtNtCsitBd8PkZ0O7_12synap_server6server8handlers12queue_create0B7_
FN:624,_RNCNvNtNtCsitBd8PkZ0O7_12synap_server6server8handlers12queue_delete0B7_
FN:2724,_RNCNvNtNtCsitBd8PkZ0O7_12synap_server6server8handlers13commit_offset0B7_
FN:492,_RNCNvNtNtCsitBd8PkZ0O7_12synap_server6server8handlers13queue_consume0B7_
FN:469,_RNCNvNtNtCsitBd8PkZ0O7_12synap_server6server8handlers13queue_publish0B7_
FN:655,_RNCNvNtNtCsitBd8PkZ0O7_12synap_server6server8handlers14handle_command0B7_
FN:1898,_RNCNvNtNtCsitBd8PkZ0O7_12synap_server6server8handlers14pubsub_publish0B7_
FN:334,_RNCNvNtNtCsitBd8PkZ0O7_12synap_server6server8handlers14stream_consume0B7_
FN:307,_RNCNvNtNtCsitBd8PkZ0O7_12synap_server6server8handlers14stream_publish0B7_
FN:644,_RNCNvNtNtCsitBd8PkZ0O7_12synap_server6server8handlers15command_handler0B7_
FN:2526,_RNCNvNtNtCsitBd8PkZ0O7_12synap_server6server8handlers15get_topic_stats0B7_
FN:1400,_RNCNvNtNtCsitBd8PkZ0O7_12synap_server6server8handlers15queue_websocket0B7_
FN:1869,_RNCNvNtNtCsitBd8PkZ0O7_12synap_server6server8handlers16pubsub_subscribe0B7_
FN:1688,_RNCNvNtNtCsitBd8PkZ0O7_12synap_server6server8handlers16pubsub_websocket0B7_
FN:1543,_RNCNvNtNtCsitBd8PkZ0O7_12synap_server6server8handlers16stream_websocket0B7_
FN:233,_RNCNvNtNtCsitBd8PkZ0O7_12synap_server6server8handlers16trigger_snapshot0B7_
FN:789,_RNCNvNtNtCsitBd8PkZ0O7_12synap_server6server8handlers17handle_kv_del_cmd0B7_
FN:755,_RNCNvNtNtCsitBd8PkZ0O7_12synap_server6server8handlers17handle_kv_get_cmd0B7_
FN:723,_RNCNvNtNtCsitBd8PkZ0O7_12synap_server6server8handlers17handle_kv_set_cmd0B7_
FN:1061,_RNCNvNtNtCsitBd8PkZ0O7_12synap_server6server8handlers17handle_kv_ttl_cmd0B7_
FN:1990,_RNCNvNtNtCsitBd8PkZ0O7_12synap_server6server8handlers17pubsub_topic_info0B7_
FN:391,_RNCNvNtNtCsitBd8PkZ0O7_12synap_server6server8handlers17stream_list_rooms0B7_
FN:372,_RNCNvNtNtCsitBd8PkZ0O7_12synap_server6server8handlers17stream_room_stats0B7_
FN:2805,_RNCNvNtNtCsitBd8PkZ0O7_12synap_server6server8handlers18consumer_heartbeat0B7_
FN:854,_RNCNvNtNtCsitBd8PkZ0O7_12synap_server6server8handlers18handle_kv_decr_cmd0B7_
FN:826,_RNCNvNtNtCsitBd8PkZ0O7_12synap_server6server8handlers18handle_kv_incr_cmd0B7_
FN:1009,_RNCNvNtNtCsitBd8PkZ0O7_12synap_server6server8handlers18handle_kv_keys_cmd0B7_
FN:946,_RNCNvNtNtCsitBd8PkZ0O7_12synap_server6server8handlers18handle_kv_mdel_cmd0B7_
FN:924,_RNCNvNtNtCsitBd8PkZ0O7_12synap_server6server8handlers18handle_kv_mget_cmd0B7_
FN:882,_RNCNvNtNtCsitBd8PkZ0O7_12synap_server6server8handlers18handle_kv_mset_cmd0B7_
FN:970,_RNCNvNtNtCsitBd8PkZ0O7_12synap_server6server8handlers18handle_kv_scan_cmd0B7_
FN:1970,_RNCNvNtNtCsitBd8PkZ0O7_12synap_server6server8handlers18pubsub_list_topics0B7_
FN:1926,_RNCNvNtNtCsitBd8PkZ0O7_12synap_server6server8handlers18pubsub_unsubscribe0B7_
FN:283,_RNCNvNtNtCsitBd8PkZ0O7_12synap_server6server8handlers18stream_create_room0B7_
FN:411,_RNCNvNtNtCsitBd8PkZ0O7_12synap_server6server8handlers18stream_delete_room0B7_
FN:989,_RNCNvNtNtCsitBd8PkZ0O7_12synap_server6server8handlers19handle_kv_stats_cmd0B7_
FN:1426,_RNCNvNtNtCsitBd8PkZ0O7_12synap_server6server8handlers19handle_queue_socket0B7_
FN:2645,_RNCNvNtNtCsitBd8PkZ0O7_12synap_server6server8handlers19join_consumer_group0B7_
FN:2746,_RNCNvNtNtCsitBd8PkZ0O7_12synap_server6server8handlers20get_committed_offset0B7_
FN:1017,_RNCNvNtNtCsitBd8PkZ0O7_12synap_server6server8handlers20handle_kv_dbsize_cmd0B7_
FN:811,_RNCNvNtNtCsitBd8PkZ0O7_12synap_server6server8handlers20handle_kv_exists_cmd0B7_
FN:1041,_RNCNvNtNtCsitBd8PkZ0O7_12synap_server6server8handlers20handle_kv_expire_cmd0B7_
FN:1726,_RNCNvNtNtCsitBd8PkZ0O7_12synap_server6server8handlers20handle_pubsub_socket0B7_
FN:1244,_RNCNvNtNtCsitBd8PkZ0O7_12synap_server6server8handlers20handle_queue_ack_cmd0B7_
FN:1583,_RNCNvNtNtCsitBd8PkZ0O7_12synap_server6server8handlers20handle_stream_socket0B7_
FN:2671,_RNCNvNtNtCsitBd8PkZ0O7_12synap_server6server8handlers20leave_consumer_group0B7_
FN:2787,_RNCNvNtNtCsitBd8PkZ0O7_12synap_server6server8handlers20list_consumer_groups0B7_
FN:2463,_RNCNvNtNtCsitBd8PkZ0O7_12synap_server6server8handlers20publish_to_partition0B7_
FN:2598,_RNCNvNtNtCsitBd8PkZ0O7_12synap_server6server8handlers21create_consumer_group0B7_
FN:1025,_RNCNvNtNtCsitBd8PkZ0O7_12synap_server6server8handlers21handle_kv_flushdb_cmd0B7_
FN:1075,_RNCNvNtNtCsitBd8PkZ0O7_12synap_server6server8handlers21handle_kv_persist_cmd0B7_
FN:1300,_RNCNvNtNtCsitBd8PkZ0O7_12synap_server6server8handlers21handle_queue_list_cmd0B7_
FN:1269,_RNCNvNtNtCsitBd8PkZ0O7_12synap_server6server8handlers21handle_queue_nack_cmd0B7_
FN:2497,_RNCNvNtNtCsitBd8PkZ0O7_12synap_server6server8handlers22consume_from_partition0B7_
FN:1033,_RNCNvNtNtCsitBd8PkZ0O7_12synap_server6server8handlers22handle_kv_flushall_cmd0B7_
FN:2151,_RNCNvNtNtCsitBd8PkZ0O7_12synap_server6server8handlers22handle_pubsub_info_cmd0B7_
FN:1332,_RNCNvNtNtCsitBd8PkZ0O7_12synap_server6server8handlers22handle_queue_purge_cmd0B7_
FN:1313,_RNCNvNtNtCsitBd8PkZ0O7_12synap_server6server8handlers22handle_queue_stats_cmd0B7_
FN:2315,_RNCNvNtNtCsitBd8PkZ0O7_12synap_server6server8handlers22handle_stream_list_cmd0B7_
FN:2122,_RNCNvNtNtCsitBd8PkZ0O7_12synap_server6server8handlers23handle_pubsub_stats_cmd0B7_
FN:1091,_RNCNvNtNtCsitBd8PkZ0O7_12synap_server6server8handlers23handle_queue_create_cmd0B7_
FN:1141,_RNCNvNtNtCsitBd8PkZ0O7_12synap_server6server8handlers23handle_queue_delete_cmd0B7_
FN:2292,_RNCNvNtNtCsitBd8PkZ0O7_12synap_server6server8handlers23handle_stream_stats_cmd0B7_
FN:2418,_RNCNvNtNtCsitBd8PkZ0O7_12synap_server6server8handlers24create_partitioned_topic0B7_
FN:2768,_RNCNvNtNtCsitBd8PkZ0O7_12synap_server6server8handlers24get_consumer_group_stats0B7_
FN:2695,_RNCNvNtNtCsitBd8PkZ0O7_12synap_server6server8handlers24get_partition_assignment0B7_
FN:2135,_RNCNvNtNtCsitBd8PkZ0O7_12synap_server6server8handlers24handle_pubsub_topics_cmd0B7_
FN:1206,_RNCNvNtNtCsitBd8PkZ0O7_12synap_server6server8handlers24handle_queue_consume_cmd0B7_
FN:1161,_RNCNvNtNtCsitBd8PkZ0O7_12synap_server6server8handlers24handle_queue_publish_cmd0B7_
FN:2180,_RNCNvNtNtCsitBd8PkZ0O7_12synap_server6server8handlers24handle_stream_create_cmd0B7_
FN:2332,_RNCNvNtNtCsitBd8PkZ0O7_12synap_server6server8handlers24handle_stream_delete_cmd0B7_
FN:2052,_RNCNvNtNtCsitBd8PkZ0O7_12synap_server6server8handlers25handle_pubsub_publish_cmd0B7_
FN:2246,_RNCNvNtNtCsitBd8PkZ0O7_12synap_server6server8handlers25handle_stream_consume_cmd0B7_
FN:2206,_RNCNvNtNtCsitBd8PkZ0O7_12synap_server6server8handlers25handle_stream_publish_cmd0B7_
FN:2014,_RNCNvNtNtCsitBd8PkZ0O7_12synap_server6server8handlers27handle_pubsub_subscribe_cmd0B7_
FN:2094,_RNCNvNtNtCsitBd8PkZ0O7_12synap_server6server8handlers29handle_pubsub_unsubscribe_cmd0B7_
FN:184,_RNCNvNtNtCsitBd8PkZ0O7_12synap_server6server8handlers6kv_get0B7_
FN:150,_RNCNvNtNtCsitBd8PkZ0O7_12synap_server6server8handlers6kv_set0B7_
FN:258,_RNCNvNtNtCsitBd8PkZ0O7_12synap_server6server8handlers8kv_stats0B7_
FN:213,_RNCNvNtNtCsitBd8PkZ0O7_12synap_server6server8handlers9kv_delete0B7_
FN:526,_RNCNvNtNtCsitBd8PkZ0O7_12synap_server6server8handlers9queue_ack0B7_
FN:585,_RNvNtNtCsitBd8PkZ0O7_12synap_server6server8handlers10queue_list
FN:543,_RNvNtNtCsitBd8PkZ0O7_12synap_server6server8handlers10queue_nack
FN:2544,_RNvNtNtCsitBd8PkZ0O7_12synap_server6server8handlers11list_topics
FN:601,_RNvNtNtCsitBd8PkZ0O7_12synap_server6server8handlers11queue_purge
FN:566,_RNvNtNtCsitBd8PkZ0O7_12synap_server6server8handlers11queue_stats
FN:2561,_RNvNtNtCsitBd8PkZ0O7_12synap_server6server8handlers12delete_topic
FN:77,_RNvNtNtCsitBd8PkZ0O7_12synap_server6server8handlers12health_check
FN:1358,_RNvNtNtCsitBd8PkZ0O7_12synap_server6server8handlers12kv_websocket
FN:1952,_RNvNtNtCsitBd8PkZ0O7_12synap_server6server8handlers12pubsub_stats
FN:433,_RNvNtNtCsitBd8PkZ0O7_12synap_server6server8handlers12queue_create
FN:621,_RNvNtNtCsitBd8PkZ0O7_12synap_server6server8handlers12queue_delete
FN:2720,_RNvNtNtCsitBd8PkZ0O7_12synap_server6server8handlers13commit_offset
FN:489,_RNvNtNtCsitBd8PkZ0O7_12synap_server6server8handlers13queue_consume
FN:465,_RNvNtNtCsitBd8PkZ0O7_12synap_server6server8handlers13queue_publish
FN:655,_RNvNtNtCsitBd8PkZ0O7_12synap_server6server8handlers14handle_command
FN:1894,_RNvNtNtCsitBd8PkZ0O7_12synap_server6server8handlers14pubsub_publish
FN:330,_RNvNtNtCsitBd8PkZ0O7_12synap_server6server8handlers14stream_consume
FN:303,_RNvNtNtCsitBd8PkZ0O7_12synap_server6server8handlers14stream_publish
FN:641,_RNvNtNtCsitBd8PkZ0O7_12synap_server6server8handlers15command_handler
FN:2523,_RNvNtNtCsitBd8PkZ0O7_12synap_server6server8handlers15get_topic_stats
FN:1396,_RNvNtNtCsitBd8PkZ0O7_12synap_server6server8handlers15queue_websocket
FN:1866,_RNvNtNtCsitBd8PkZ0O7_12synap_server6server8handlers16pubsub_subscribe
FN:1684,_RNvNtNtCsitBd8PkZ0O7_12synap_server6server8handlers16pubsub_websocket
FN:1538,_RNvNtNtCsitBd8PkZ0O7_12synap_server6server8handlers16stream_websocket
FN:231,_RNvNtNtCsitBd8PkZ0O7_12synap_server6server8handlers16trigger_snapshot
FN:786,_RNvNtNtCsitBd8PkZ0O7_12synap_server6server8handlers17handle_kv_del_cmd
FN:752,_RNvNtNtCsitBd8PkZ0O7_12synap_server6server8handlers17handle_kv_get_cmd
FN:720,_RNvNtNtCsitBd8PkZ0O7_12synap_server6server8handlers17handle_kv_set_cmd
FN:1058,_RNvNtNtCsitBd8PkZ0O7_12synap_server6server8handlers17handle_kv_ttl_cmd
FN:1987,_RNvNtNtCsitBd8PkZ0O7_12synap_server6server8handlers17pubsub_topic_info
FN:389,_RNvNtNtCsitBd8PkZ0O7_12synap_server6server8handlers17stream_list_rooms
FN:369,_RNvNtNtCsitBd8PkZ0O7_12synap_server6server8handlers17stream_room_stats
FN:2802,_RNvNtNtCsitBd8PkZ0O7_12synap_server6server8handlers18consumer_heartbeat
FN:851,_RNvNtNtCsitBd8PkZ0O7_12synap_server6server8handlers18handle_kv_decr_cmd
FN:823,_RNvNtNtCsitBd8PkZ0O7_12synap_server6server8handlers18handle_kv_incr_cmd
FN:1006,_RNvNtNtCsitBd8PkZ0O7_12synap_server6server8handlers18handle_kv_keys_cmd
FN:943,_RNvNtNtCsitBd8PkZ0O7_12synap_server6server8handlers18handle_kv_mdel_cmd
FN:921,_RNvNtNtCsitBd8PkZ0O7_12synap_server6server8handlers18handle_kv_mget_cmd
FN:879,_RNvNtNtCsitBd8PkZ0O7_12synap_server6server8handlers18handle_kv_mset_cmd
FN:967,_RNvNtNtCsitBd8PkZ0O7_12synap_server6server8handlers18handle_kv_scan_cmd
FN:1968,_RNvNtNtCsitBd8PkZ0O7_12synap_server6server8handlers18pubsub_list_topics
FN:1923,_RNvNtNtCsitBd8PkZ0O7_12synap_server6server8handlers18pubsub_unsubscribe
FN:280,_RNvNtNtCsitBd8PkZ0O7_12synap_server6server8handlers18stream_create_room
FN:408,_RNvNtNtCsitBd8PkZ0O7_12synap_server6server8handlers18stream_delete_room
FN:986,_RNvNtNtCsitBd8PkZ0O7_12synap_server6server8handlers19handle_kv_stats_cmd
FN:1421,_RNvNtNtCsitBd8PkZ0O7_12synap_server6server8handlers19handle_queue_socket
FN:2641,_RNvNtNtCsitBd8PkZ0O7_12synap_server6server8handlers19join_consumer_group
FN:2743,_RNvNtNtCsitBd8PkZ0O7_12synap_server6server8handlers20get_committed_offset
FN:1014,_RNvNtNtCsitBd8PkZ0O7_12synap_server6server8handlers20handle_kv_dbsize_cmd
FN:808,_RNvNtNtCsitBd8PkZ0O7_12synap_server6server8handlers20handle_kv_exists_cmd
FN:1038,_RNvNtNtCsitBd8PkZ0O7_12synap_server6server8handlers20handle_kv_expire_cmd
FN:1722,_RNvNtNtCsitBd8PkZ0O7_12synap_server6server8handlers20handle_pubsub_socket
FN:1241,_RNvNtNtCsitBd8PkZ0O7_12synap_server6server8handlers20handle_queue_ack_cmd
FN:1577,_RNvNtNtCsitBd8PkZ0O7_12synap_server6server8handlers20handle_stream_socket
FN:2668,_RNvNtNtCsitBd8PkZ0O7_12synap_server6server8handlers20leave_consumer_group
FN:2785,_RNvNtNtCsitBd8PkZ0O7_12synap_server6server8handlers20list_consumer_groups
FN:2459,_RNvNtNtCsitBd8PkZ0O7_12synap_server6server8handlers20publish_to_partition
FN:2594,_RNvNtNtCsitBd8PkZ0O7_12synap_server6server8handlers21create_consumer_group
FN:1022,_RNvNtNtCsitBd8PkZ0O7_12synap_server6server8handlers21handle_kv_flushdb_cmd
FN:1072,_RNvNtNtCsitBd8PkZ0O7_12synap_server6server8handlers21handle_kv_persist_cmd
FN:1297,_RNvNtNtCsitBd8PkZ0O7_12synap_server6server8handlers21handle_queue_list_cmd
FN:1266,_RNvNtNtCsitBd8PkZ0O7_12synap_server6server8handlers21handle_queue_nack_cmd
FN:2493,_RNvNtNtCsitBd8PkZ0O7_12synap_server6server8handlers22consume_from_partition
FN:1030,_RNvNtNtCsitBd8PkZ0O7_12synap_server6server8handlers22handle_kv_flushall_cmd
FN:2148,_RNvNtNtCsitBd8PkZ0O7_12synap_server6server8handlers22handle_pubsub_info_cmd
FN:1329,_RNvNtNtCsitBd8PkZ0O7_12synap_server6server8handlers22handle_queue_purge_cmd
FN:1310,_RNvNtNtCsitBd8PkZ0O7_12synap_server6server8handlers22handle_queue_stats_cmd
FN:2312,_RNvNtNtCsitBd8PkZ0O7_12synap_server6server8handlers22handle_stream_list_cmd
FN:2119,_RNvNtNtCsitBd8PkZ0O7_12synap_server6server8handlers23handle_pubsub_stats_cmd
FN:1088,_RNvNtNtCsitBd8PkZ0O7_12synap_server6server8handlers23handle_queue_create_cmd
FN:1138,_RNvNtNtCsitBd8PkZ0O7_12synap_server6server8handlers23handle_queue_delete_cmd
FN:2289,_RNvNtNtCsitBd8PkZ0O7_12synap_server6server8handlers23handle_stream_stats_cmd
FN:2414,_RNvNtNtCsitBd8PkZ0O7_12synap_server6server8handlers24create_partitioned_topic
FN:2765,_RNvNtNtCsitBd8PkZ0O7_12synap_server6server8handlers24get_consumer_group_stats
FN:2692,_RNvNtNtCsitBd8PkZ0O7_12synap_server6server8handlers24get_partition_assignment
FN:2132,_RNvNtNtCsitBd8PkZ0O7_12synap_server6server8handlers24handle_pubsub_topics_cmd
FN:1203,_RNvNtNtCsitBd8PkZ0O7_12synap_server6server8handlers24handle_queue_consume_cmd
FN:1158,_RNvNtNtCsitBd8PkZ0O7_12synap_server6server8handlers24handle_queue_publish_cmd
FN:2177,_RNvNtNtCsitBd8PkZ0O7_12synap_server6server8handlers24handle_stream_create_cmd
FN:2329,_RNvNtNtCsitBd8PkZ0O7_12synap_server6server8handlers24handle_stream_delete_cmd
FN:2049,_RNvNtNtCsitBd8PkZ0O7_12synap_server6server8handlers25handle_pubsub_publish_cmd
FN:2243,_RNvNtNtCsitBd8PkZ0O7_12synap_server6server8handlers25handle_stream_consume_cmd
FN:2203,_RNvNtNtCsitBd8PkZ0O7_12synap_server6server8handlers25handle_stream_publish_cmd
FN:2011,_RNvNtNtCsitBd8PkZ0O7_12synap_server6server8handlers27handle_pubsub_subscribe_cmd
FN:2091,_RNvNtNtCsitBd8PkZ0O7_12synap_server6server8handlers29handle_pubsub_unsubscribe_cmd
FN:180,_RNvNtNtCsitBd8PkZ0O7_12synap_server6server8handlers6kv_get
FN:147,_RNvNtNtCsitBd8PkZ0O7_12synap_server6server8handlers6kv_set
FN:258,_RNvNtNtCsitBd8PkZ0O7_12synap_server6server8handlers8kv_stats
FN:210,_RNvNtNtCsitBd8PkZ0O7_12synap_server6server8handlers9kv_delete
FN:522,_RNvNtNtCsitBd8PkZ0O7_12synap_server6server8handlers9queue_ack
FN:2388,_RNvXNtNtCsitBd8PkZ0O7_12synap_server6server8handlersNtNtNtB6_4core9partition15RetentionPolicyINtNtCsluXpZPV6FGj_4core7convert4FromNtB2_22RetentionPolicyRequestE4from
FN:655,_RNvNtNtCsfrV5S290jXb_12synap_server6server8handlers14handle_command
FN:786,_RNvNtNtCsfrV5S290jXb_12synap_server6server8handlers17handle_kv_del_cmd
FN:752,_RNvNtNtCsfrV5S290jXb_12synap_server6server8handlers17handle_kv_get_cmd
FN:720,_RNvNtNtCsfrV5S290jXb_12synap_server6server8handlers17handle_kv_set_cmd
FN:1058,_RNvNtNtCsfrV5S290jXb_12synap_server6server8handlers17handle_kv_ttl_cmd
FN:851,_RNvNtNtCsfrV5S290jXb_12synap_server6server8handlers18handle_kv_decr_cmd
FN:823,_RNvNtNtCsfrV5S290jXb_12synap_server6server8handlers18handle_kv_incr_cmd
FN:1006,_RNvNtNtCsfrV5S290jXb_12synap_server6server8handlers18handle_kv_keys_cmd
FN:943,_RNvNtNtCsfrV5S290jXb_12synap_server6server8handlers18handle_kv_mdel_cmd
FN:921,_RNvNtNtCsfrV5S290jXb_12synap_server6server8handlers18handle_kv_mget_cmd
FN:879,_RNvNtNtCsfrV5S290jXb_12synap_server6server8handlers18handle_kv_mset_cmd
FN:967,_RNvNtNtCsfrV5S290jXb_12synap_server6server8handlers18handle_kv_scan_cmd
FN:986,_RNvNtNtCsfrV5S290jXb_12synap_server6server8handlers19handle_kv_stats_cmd
FN:1421,_RNvNtNtCsfrV5S290jXb_12synap_server6server8handlers19handle_queue_socket
FN:1014,_RNvNtNtCsfrV5S290jXb_12synap_server6server8handlers20handle_kv_dbsize_cmd
FN:808,_RNvNtNtCsfrV5S290jXb_12synap_server6server8handlers20handle_kv_exists_cmd
FN:1038,_RNvNtNtCsfrV5S290jXb_12synap_server6server8handlers20handle_kv_expire_cmd
FN:1722,_RNvNtNtCsfrV5S290jXb_12synap_server6server8handlers20handle_pubsub_socket
FN:1241,_RNvNtNtCsfrV5S290jXb_12synap_server6server8handlers20handle_queue_ack_cmd
FN:1577,_RNvNtNtCsfrV5S290jXb_12synap_server6server8handlers20handle_stream_socket
FN:1022,_RNvNtNtCsfrV5S290jXb_12synap_server6server8handlers21handle_kv_flushdb_cmd
FN:1072,_RNvNtNtCsfrV5S290jXb_12synap_server6server8handlers21handle_kv_persist_cmd
FN:1297,_RNvNtNtCsfrV5S290jXb_12synap_server6server8handlers21handle_queue_list_cmd
FN:1266,_RNvNtNtCsfrV5S290jXb_12synap_server6server8handlers21handle_queue_nack_cmd
FN:1030,_RNvNtNtCsfrV5S290jXb_12synap_server6server8handlers22handle_kv_flushall_cmd
FN:2148,_RNvNtNtCsfrV5S290jXb_12synap_server6server8handlers22handle_pubsub_info_cmd
FN:1329,_RNvNtNtCsfrV5S290jXb_12synap_server6server8handlers22handle_queue_purge_cmd
FN:1310,_RNvNtNtCsfrV5S290jXb_12synap_server6server8handlers22handle_queue_stats_cmd
FN:2312,_RNvNtNtCsfrV5S290jXb_12synap_server6server8handlers22handle_stream_list_cmd
FN:2119,_RNvNtNtCsfrV5S290jXb_12synap_server6server8handlers23handle_pubsub_stats_cmd
FN:1088,_RNvNtNtCsfrV5S290jXb_12synap_server6server8handlers23handle_queue_create_cmd
FN:1138,_RNvNtNtCsfrV5S290jXb_12synap_server6server8handlers23handle_queue_delete_cmd
FN:2289,_RNvNtNtCsfrV5S290jXb_12synap_server6server8handlers23handle_stream_stats_cmd
FN:2132,_RNvNtNtCsfrV5S290jXb_12synap_server6server8handlers24handle_pubsub_topics_cmd
FN:1203,_RNvNtNtCsfrV5S290jXb_12synap_server6server8handlers24handle_queue_consume_cmd
FN:1158,_RNvNtNtCsfrV5S290jXb_12synap_server6server8handlers24handle_queue_publish_cmd
FN:2177,_RNvNtNtCsfrV5S290jXb_12synap_server6server8handlers24handle_stream_create_cmd
FN:2329,_RNvNtNtCsfrV5S290jXb_12synap_server6server8handlers24handle_stream_delete_cmd
