SF:/mnt/f/Node/hivellm/synap/sdks/rust/src/client.rs
FN:179,_RNvNtNtCs7YQ4GFoAOc2_9synap_sdk6client5testss_19test_config_builder
FN:191,_RNvNtNtCs7YQ4GFoAOc2_9synap_sdk6client5testss_20test_client_creation
FN:170,_RNvNtNtCs7YQ4GFoAOc2_9synap_sdk6client5testss_20test_config_creation
FN:36,_RNvMNtCs7YQ4GFoAOc2_9synap_sdk6clientNtB2_11SynapConfig12with_timeout
FN:48,_RNvMNtCs7YQ4GFoAOc2_9synap_sdk6clientNtB2_11SynapConfig16with_max_retries
FN:89,_RNvMs_NtCs7YQ4GFoAOc2_9synap_sdk6clientNtB4_11SynapClient2kv
FN:65,_RNvMs_NtCs7YQ4GFoAOc2_9synap_sdk6clientNtB4_11SynapClient3new
FN:94,_RNvMs_NtCs7YQ4GFoAOc2_9synap_sdk6clientNtB4_11SynapClient5queue
FN:104,_RNvMs_NtCs7YQ4GFoAOc2_9synap_sdk6clientNtB4_11SynapClient6pubsub
FN:99,_RNvMs_NtCs7YQ4GFoAOc2_9synap_sdk6clientNtB4_11SynapClient6stream
FN:119,_RNCNvMs_NtCs7YQ4GFoAOc2_9synap_sdk6clientNtB6_11SynapClient12send_command0B8_
FN:160,_RNvMs_NtCs7YQ4GFoAOc2_9synap_sdk6clientNtB4_11SynapClient11http_client
FN:119,_RNvMs_NtCs7YQ4GFoAOc2_9synap_sdk6clientNtB4_11SynapClient12send_command
FN:154,_RNvMs_NtCs7YQ4GFoAOc2_9synap_sdk6clientNtB4_11SynapClient8base_url
FN:42,_RINvMNtCs7YQ4GFoAOc2_9synap_sdk6clientNtB3_11SynapConfig15with_auth_tokenReEB5_
FN:26,_RINvMNtCs7YQ4GFoAOc2_9synap_sdk6clientNtB3_11SynapConfig3newReEB5_
FNDA:1,_RNvNtNtCs7YQ4GFoAOc2_9synap_sdk6client5testss_19test_config_builder
FNDA:1,_RNvNtNtCs7YQ4GFoAOc2_9synap_sdk6client5testss_20test_client_creation
FNDA:1,_RNvNtNtCs7YQ4GFoAOc2_9synap_sdk6client5testss_20test_config_creation
FNDA:1,_RNvMNtCs7YQ4GFoAOc2_9synap_sdk6clientNtB2_11SynapConfig12with_timeout
FNDA:1,_RNvMNtCs7YQ4GFoAOc2_9synap_sdk6clientNtB2_11SynapConfig16with_max_retries
FNDA:2,_RNvMs_NtCs7YQ4GFoAOc2_9synap_sdk6clientNtB4_11SynapClient2kv
FNDA:9,_RNvMs_NtCs7YQ4GFoAOc2_9synap_sdk6clientNtB4_11SynapClient3new
FNDA:2,_RNvMs_NtCs7YQ4GFoAOc2_9synap_sdk6clientNtB4_11SynapClient5queue
FNDA:2,_RNvMs_NtCs7YQ4GFoAOc2_9synap_sdk6clientNtB4_11SynapClient6pubsub
FNDA:2,_RNvMs_NtCs7YQ4GFoAOc2_9synap_sdk6clientNtB4_11SynapClient6stream
FNDA:0,_RNCNvMs_NtCs7YQ4GFoAOc2_9synap_sdk6clientNtB6_11SynapClient12send_command0B8_
FNDA:0,_RNvMs_NtCs7YQ4GFoAOc2_9synap_sdk6clientNtB4_11SynapClient11http_client
FNDA:0,_RNvMs_NtCs7YQ4GFoAOc2_9synap_sdk6clientNtB4_11SynapClient12send_command
FNDA:0,_RNvMs_NtCs7YQ4GFoAOc2_9synap_sdk6clientNtB4_11SynapClient8base_url
FNDA:1,_RINvMNtCs7YQ4GFoAOc2_9synap_sdk6clientNtB3_11SynapConfig15with_auth_tokenReEB5_
FNDA:11,_RINvMNtCs7YQ4GFoAOc2_9synap_sdk6clientNtB3_11SynapConfig3newReEB5_
FNF:16
FNH:12
DA:26,11
DA:27,11
DA:28,11
DA:29,11
DA:30,11
DA:31,11
DA:32,11
DA:33,11
DA:36,1
DA:37,1
DA:38,1
DA:39,1
DA:42,1
DA:43,1
DA:44,1
DA:45,1
DA:48,1
DA:49,1
DA:50,1
DA:51,1
DA:65,9
DA:66,9
DA:68,9
DA:70,9
DA:71,0
DA:72,0
DA:73,0
DA:74,0
DA:75,0
DA:76,0
DA:77,9
DA:79,9
DA:81,9
DA:82,9
DA:83,9
DA:84,9
DA:85,9
DA:86,9
DA:89,2
DA:90,2
DA:91,2
DA:94,2
DA:95,2
DA:96,2
DA:99,2
DA:100,2
DA:101,2
DA:104,2
DA:105,2
DA:106,2
DA:119,0
DA:120,0
DA:122,0
DA:123,0
DA:124,0
DA:125,0
DA:128,0
DA:130,0
DA:132,0
DA:133,0
DA:134,0
DA:135,0
DA:137,0
DA:140,0
DA:141,0
DA:142,0
DA:143,0
DA:144,0
DA:145,0
DA:146,0
DA:149,0
DA:150,0
DA:154,0
DA:155,0
DA:156,0
DA:160,0
DA:161,0
DA:162,0
DA:170,1
DA:171,1
DA:172,1
DA:173,1
DA:174,1
DA:175,1
DA:176,1
DA:179,1
DA:180,1
DA:181,1
DA:182,1
DA:183,1
DA:185,1
DA:186,1
DA:187,1
DA:188,1
DA:191,1
DA:192,1
DA:193,1
DA:194,1
DA:195,1
BRF:0
BRH:0
LF:100
LH:65
end_of_record
SF:/mnt/f/Node/hivellm/synap/sdks/rust/src/kv.rs
FN:19,_RNvMNtCs7YQ4GFoAOc2_9synap_sdk2kvNtB2_7KVStore3new
FN:167,_RNCNvNtNtCs7YQ4GFoAOc2_9synap_sdk2kv5testss_18test_kv_operations0B7_
FN:177,_RNvNtNtCs7YQ4GFoAOc2_9synap_sdk2kv5testss_13test_kv_clone
FN:167,_RNvNtNtCs7YQ4GFoAOc2_9synap_sdk2kv5testss_18test_kv_operations
FN:70,_RINvMNtCs7YQ4GFoAOc2_9synap_sdk2kvNtB3_7KVStore3getppEB5_
FN:41,_RINvMNtCs7YQ4GFoAOc2_9synap_sdk2kvNtB3_7KVStore3setppEB5_
FN:133,_RINvMNtCs7YQ4GFoAOc2_9synap_sdk2kvNtB3_7KVStore4decrpEB5_
FN:122,_RINvMNtCs7YQ4GFoAOc2_9synap_sdk2kvNtB3_7KVStore4incrpEB5_
FN:150,_RINvMNtCs7YQ4GFoAOc2_9synap_sdk2kvNtB3_7KVStore4keyspEB5_
FN:100,_RINvMNtCs7YQ4GFoAOc2_9synap_sdk2kvNtB3_7KVStore6deletepEB5_
FN:111,_RINvMNtCs7YQ4GFoAOc2_9synap_sdk2kvNtB3_7KVStore6existspEB5_
FN:74,_RNCINvMNtCs7YQ4GFoAOc2_9synap_sdk2kvNtB5_7KVStore3getppE0B7_
FN:45,_RNCINvMNtCs7YQ4GFoAOc2_9synap_sdk2kvNtB5_7KVStore3setppE0B7_
FN:136,_RNCINvMNtCs7YQ4GFoAOc2_9synap_sdk2kvNtB5_7KVStore4decrpE0B7_
FN:125,_RNCINvMNtCs7YQ4GFoAOc2_9synap_sdk2kvNtB5_7KVStore4incrpE0B7_
FN:153,_RNCINvMNtCs7YQ4GFoAOc2_9synap_sdk2kvNtB5_7KVStore4keyspE0B7_
FN:103,_RNCINvMNtCs7YQ4GFoAOc2_9synap_sdk2kvNtB5_7KVStore6deletepE0B7_
FN:114,_RNCINvMNtCs7YQ4GFoAOc2_9synap_sdk2kvNtB5_7KVStore6existspE0B7_
FN:144,_RNCNvMNtCs7YQ4GFoAOc2_9synap_sdk2kvNtB4_7KVStore5stats0B6_
FN:144,_RNvMNtCs7YQ4GFoAOc2_9synap_sdk2kvNtB2_7KVStore5stats
FNDA:2,_RNvMNtCs7YQ4GFoAOc2_9synap_sdk2kvNtB2_7KVStore3new
FNDA:1,_RNCNvNtNtCs7YQ4GFoAOc2_9synap_sdk2kv5testss_18test_kv_operations0B7_
FNDA:1,_RNvNtNtCs7YQ4GFoAOc2_9synap_sdk2kv5testss_13test_kv_clone
FNDA:1,_RNvNtNtCs7YQ4GFoAOc2_9synap_sdk2kv5testss_18test_kv_operations
FNDA:0,_RINvMNtCs7YQ4GFoAOc2_9synap_sdk2kvNtB3_7KVStore3getppEB5_
FNDA:0,_RINvMNtCs7YQ4GFoAOc2_9synap_sdk2kvNtB3_7KVStore3setppEB5_
FNDA:0,_RINvMNtCs7YQ4GFoAOc2_9synap_sdk2kvNtB3_7KVStore4decrpEB5_
FNDA:0,_RINvMNtCs7YQ4GFoAOc2_9synap_sdk2kvNtB3_7KVStore4incrpEB5_
FNDA:0,_RINvMNtCs7YQ4GFoAOc2_9synap_sdk2kvNtB3_7KVStore4keyspEB5_
FNDA:0,_RINvMNtCs7YQ4GFoAOc2_9synap_sdk2kvNtB3_7KVStore6deletepEB5_
FNDA:0,_RINvMNtCs7YQ4GFoAOc2_9synap_sdk2kvNtB3_7KVStore6existspEB5_
FNDA:0,_RNCINvMNtCs7YQ4GFoAOc2_9synap_sdk2kvNtB5_7KVStore3getppE0B7_
FNDA:0,_RNCINvMNtCs7YQ4GFoAOc2_9synap_sdk2kvNtB5_7KVStore3setppE0B7_
FNDA:0,_RNCINvMNtCs7YQ4GFoAOc2_9synap_sdk2kvNtB5_7KVStore4decrpE0B7_
FNDA:0,_RNCINvMNtCs7YQ4GFoAOc2_9synap_sdk2kvNtB5_7KVStore4incrpE0B7_
FNDA:0,_RNCINvMNtCs7YQ4GFoAOc2_9synap_sdk2kvNtB5_7KVStore4keyspE0B7_
FNDA:0,_RNCINvMNtCs7YQ4GFoAOc2_9synap_sdk2kvNtB5_7KVStore6deletepE0B7_
FNDA:0,_RNCINvMNtCs7YQ4GFoAOc2_9synap_sdk2kvNtB5_7KVStore6existspE0B7_
FNDA:0,_RNCNvMNtCs7YQ4GFoAOc2_9synap_sdk2kvNtB4_7KVStore5stats0B6_
FNDA:0,_RNvMNtCs7YQ4GFoAOc2_9synap_sdk2kvNtB2_7KVStore5stats
FNF:20
FNH:4
DA:19,2
DA:20,2
DA:21,2
DA:41,0
DA:42,0
DA:43,0
DA:44,0
DA:45,0
DA:46,0
DA:47,0
DA:48,0
DA:49,0
DA:52,0
DA:53,0
DA:54,0
DA:70,0
DA:71,0
DA:72,0
DA:73,0
DA:74,0
DA:75,0
DA:76,0
DA:79,0
DA:80,0
DA:81,0
DA:84,0
DA:85,0
DA:86,0
DA:100,0
DA:101,0
DA:102,0
DA:103,0
DA:104,0
DA:105,0
DA:107,0
DA:108,0
DA:111,0
DA:112,0
DA:113,0
DA:114,0
DA:115,0
DA:116,0
DA:118,0
DA:119,0
DA:122,0
DA:123,0
DA:124,0
DA:125,0
DA:126,0
DA:127,0
DA:129,0
DA:130,0
DA:133,0
DA:134,0
DA:135,0
DA:136,0
DA:137,0
DA:138,0
DA:140,0
DA:141,0
DA:144,0
DA:145,0
DA:146,0
DA:147,0
DA:150,0
DA:151,0
DA:152,0
DA:153,0
DA:154,0
DA:155,0
DA:157,0
DA:158,0
DA:167,1
DA:168,1
DA:169,1
DA:170,1
DA:173,1
DA:174,1
DA:177,1
DA:178,1
DA:179,1
DA:180,1
DA:181,1
DA:184,1
DA:185,1
DA:186,1
BRF:0
BRH:0
LF:89
LH:19
end_of_record
SF:/mnt/f/Node/hivellm/synap/sdks/rust/src/pubsub.rs
FN:19,_RNvMNtCs7YQ4GFoAOc2_9synap_sdk6pubsubNtB2_13PubSubManager3new
FN:106,_RNCNvMNtCs7YQ4GFoAOc2_9synap_sdk6pubsubNtB4_13PubSubManager11list_topics0B6_
FN:93,_RNCNvMNtCs7YQ4GFoAOc2_9synap_sdk6pubsubNtB4_13PubSubManager11unsubscribe0B6_
FN:75,_RNCNvMNtCs7YQ4GFoAOc2_9synap_sdk6pubsubNtB4_13PubSubManager16subscribe_topics0B6_
FN:50,_RNCNvMNtCs7YQ4GFoAOc2_9synap_sdk6pubsubNtB4_13PubSubManager7publish0B6_
FN:106,_RNvMNtCs7YQ4GFoAOc2_9synap_sdk6pubsubNtB2_13PubSubManager11list_topics
FN:93,_RNvMNtCs7YQ4GFoAOc2_9synap_sdk6pubsubNtB2_13PubSubManager11unsubscribe
FN:71,_RNvMNtCs7YQ4GFoAOc2_9synap_sdk6pubsubNtB2_13PubSubManager16subscribe_topics
FN:44,_RNvMNtCs7YQ4GFoAOc2_9synap_sdk6pubsubNtB2_13PubSubManager7publish
FN:127,_RNvNtNtCs7YQ4GFoAOc2_9synap_sdk6pubsub5testss_25test_pubsub_manager_clone
FN:118,_RNvNtNtCs7YQ4GFoAOc2_9synap_sdk6pubsub5testss_28test_pubsub_manager_creation
FNDA:2,_RNvMNtCs7YQ4GFoAOc2_9synap_sdk6pubsubNtB2_13PubSubManager3new
FNDA:0,_RNCNvMNtCs7YQ4GFoAOc2_9synap_sdk6pubsubNtB4_13PubSubManager11list_topics0B6_
FNDA:0,_RNCNvMNtCs7YQ4GFoAOc2_9synap_sdk6pubsubNtB4_13PubSubManager11unsubscribe0B6_
FNDA:0,_RNCNvMNtCs7YQ4GFoAOc2_9synap_sdk6pubsubNtB4_13PubSubManager16subscribe_topics0B6_
FNDA:0,_RNCNvMNtCs7YQ4GFoAOc2_9synap_sdk6pubsubNtB4_13PubSubManager7publish0B6_
FNDA:0,_RNvMNtCs7YQ4GFoAOc2_9synap_sdk6pubsubNtB2_13PubSubManager11list_topics
FNDA:0,_RNvMNtCs7YQ4GFoAOc2_9synap_sdk6pubsubNtB2_13PubSubManager11unsubscribe
FNDA:0,_RNvMNtCs7YQ4GFoAOc2_9synap_sdk6pubsubNtB2_13PubSubManager16subscribe_topics
FNDA:0,_RNvMNtCs7YQ4GFoAOc2_9synap_sdk6pubsubNtB2_13PubSubManager7publish
FNDA:1,_RNvNtNtCs7YQ4GFoAOc2_9synap_sdk6pubsub5testss_25test_pubsub_manager_clone
FNDA:1,_RNvNtNtCs7YQ4GFoAOc2_9synap_sdk6pubsub5testss_28test_pubsub_manager_creation
FNF:11
FNH:3
DA:19,2
DA:20,2
DA:21,2
DA:44,0
DA:45,0
DA:46,0
DA:47,0
DA:48,0
DA:49,0
DA:50,0
DA:51,0
DA:52,0
DA:53,0
DA:54,0
DA:55,0
DA:58,0
DA:60,0
DA:61,0
DA:71,0
DA:72,0
DA:73,0
DA:74,0
DA:75,0
DA:76,0
DA:77,0
DA:78,0
DA:81,0
DA:82,0
DA:83,0
DA:84,0
DA:86,0
DA:87,0
DA:88,0
DA:89,0
DA:90,0
DA:93,0
DA:94,0
DA:95,0
DA:96,0
DA:99,0
DA:100,0
DA:101,0
DA:102,0
DA:103,0
DA:106,0
DA:107,0
DA:108,0
DA:109,0
DA:118,1
DA:119,1
DA:120,1
DA:121,1
DA:123,1
DA:124,1
DA:127,1
DA:128,1
DA:129,1
DA:130,1
DA:131,1
DA:133,1
DA:134,1
DA:135,1
BRF:0
BRH:0
LF:66
LH:17
end_of_record
SF:/mnt/f/Node/hivellm/synap/sdks/rust/src/queue.rs
FN:157,_RNvNtNtCs7YQ4GFoAOc2_9synap_sdk5queue5testss_24test_queue_manager_clone
FN:148,_RNvNtNtCs7YQ4GFoAOc2_9synap_sdk5queue5testss_27test_queue_manager_creation
FN:36,_RNCNvMNtCs7YQ4GFoAOc2_9synap_sdk5queueNtB4_12QueueManager12create_queue0B6_
FN:135,_RNCNvMNtCs7YQ4GFoAOc2_9synap_sdk5queueNtB4_12QueueManager12delete_queue0B6_
FN:100,_RNCNvMNtCs7YQ4GFoAOc2_9synap_sdk5queueNtB4_12QueueManager3ack0B6_
FN:129,_RNCNvMNtCs7YQ4GFoAOc2_9synap_sdk5queueNtB4_12QueueManager4list0B6_
FN:111,_RNCNvMNtCs7YQ4GFoAOc2_9synap_sdk5queueNtB4_12QueueManager4nack0B6_
FN:122,_RNCNvMNtCs7YQ4GFoAOc2_9synap_sdk5queueNtB4_12QueueManager5stats0B6_
FN:84,_RNCNvMNtCs7YQ4GFoAOc2_9synap_sdk5queueNtB4_12QueueManager7consume0B6_
FN:67,_RNCNvMNtCs7YQ4GFoAOc2_9synap_sdk5queueNtB4_12QueueManager7publish0B6_
FN:31,_RNvMNtCs7YQ4GFoAOc2_9synap_sdk5queueNtB2_12QueueManager12create_queue
FN:135,_RNvMNtCs7YQ4GFoAOc2_9synap_sdk5queueNtB2_12QueueManager12delete_queue
FN:100,_RNvMNtCs7YQ4GFoAOc2_9synap_sdk5queueNtB2_12QueueManager3ack
FN:129,_RNvMNtCs7YQ4GFoAOc2_9synap_sdk5queueNtB2_12QueueManager4list
FN:111,_RNvMNtCs7YQ4GFoAOc2_9synap_sdk5queueNtB2_12QueueManager4nack
FN:122,_RNvMNtCs7YQ4GFoAOc2_9synap_sdk5queueNtB2_12QueueManager5stats
FN:84,_RNvMNtCs7YQ4GFoAOc2_9synap_sdk5queueNtB2_12QueueManager7consume
FN:61,_RNvMNtCs7YQ4GFoAOc2_9synap_sdk5queueNtB2_12QueueManager7publish
FN:21,_RNvMNtCs7YQ4GFoAOc2_9synap_sdk5queueNtB2_12QueueManager3new
FNDA:1,_RNvNtNtCs7YQ4GFoAOc2_9synap_sdk5queue5testss_24test_queue_manager_clone
FNDA:1,_RNvNtNtCs7YQ4GFoAOc2_9synap_sdk5queue5testss_27test_queue_manager_creation
FNDA:0,_RNCNvMNtCs7YQ4GFoAOc2_9synap_sdk5queueNtB4_12QueueManager12create_queue0B6_
FNDA:0,_RNCNvMNtCs7YQ4GFoAOc2_9synap_sdk5queueNtB4_12QueueManager12delete_queue0B6_
FNDA:0,_RNCNvMNtCs7YQ4GFoAOc2_9synap_sdk5queueNtB4_12QueueManager3ack0B6_
FNDA:0,_RNCNvMNtCs7YQ4GFoAOc2_9synap_sdk5queueNtB4_12QueueManager4list0B6_
FNDA:0,_RNCNvMNtCs7YQ4GFoAOc2_9synap_sdk5queueNtB4_12QueueManager4nack0B6_
FNDA:0,_RNCNvMNtCs7YQ4GFoAOc2_9synap_sdk5queueNtB4_12QueueManager5stats0B6_
FNDA:0,_RNCNvMNtCs7YQ4GFoAOc2_9synap_sdk5queueNtB4_12QueueManager7consume0B6_
FNDA:0,_RNCNvMNtCs7YQ4GFoAOc2_9synap_sdk5queueNtB4_12QueueManager7publish0B6_
FNDA:0,_RNvMNtCs7YQ4GFoAOc2_9synap_sdk5queueNtB2_12QueueManager12create_queue
FNDA:0,_RNvMNtCs7YQ4GFoAOc2_9synap_sdk5queueNtB2_12QueueManager12delete_queue
FNDA:0,_RNvMNtCs7YQ4GFoAOc2_9synap_sdk5queueNtB2_12QueueManager3ack
FNDA:0,_RNvMNtCs7YQ4GFoAOc2_9synap_sdk5queueNtB2_12QueueManager4list
FNDA:0,_RNvMNtCs7YQ4GFoAOc2_9synap_sdk5queueNtB2_12QueueManager4nack
FNDA:0,_RNvMNtCs7YQ4GFoAOc2_9synap_sdk5queueNtB2_12QueueManager5stats
FNDA:0,_RNvMNtCs7YQ4GFoAOc2_9synap_sdk5queueNtB2_12QueueManager7consume
FNDA:0,_RNvMNtCs7YQ4GFoAOc2_9synap_sdk5queueNtB2_12QueueManager7publish
FNDA:2,_RNvMNtCs7YQ4GFoAOc2_9synap_sdk5queueNtB2_12QueueManager3new
FNF:19
FNH:3
DA:21,2
DA:22,2
DA:23,2
DA:31,0
DA:32,0
DA:33,0
DA:34,0
DA:35,0
DA:36,0
DA:37,0
DA:38,0
DA:39,0
DA:40,0
DA:41,0
DA:42,0
DA:43,0
DA:45,0
DA:46,0
DA:47,0
DA:61,0
DA:62,0
DA:63,0
DA:64,0
DA:65,0
DA:66,0
DA:67,0
DA:68,0
DA:69,0
DA:70,0
DA:71,0
DA:72,0
DA:75,0
DA:77,0
DA:78,0
DA:79,0
DA:80,0
DA:81,0
DA:84,0
DA:85,0
DA:86,0
DA:87,0
DA:90,0
DA:92,0
DA:93,0
DA:94,0
DA:96,0
DA:97,0
DA:100,0
DA:101,0
DA:102,0
DA:103,0
DA:106,0
DA:107,0
DA:108,0
DA:111,0
DA:112,0
DA:113,0
DA:114,0
DA:117,0
DA:118,0
DA:119,0
DA:122,0
DA:123,0
DA:124,0
DA:125,0
DA:126,0
DA:129,0
DA:130,0
DA:131,0
DA:132,0
DA:135,0
DA:136,0
DA:137,0
DA:138,0
DA:139,0
DA:148,1
DA:149,1
DA:150,1
DA:151,1
DA:153,1
DA:154,1
DA:157,1
DA:158,1
DA:159,1
DA:160,1
DA:161,1
DA:163,1
DA:164,1
DA:165,1
BRF:0
BRH:0
LF:97
LH:17
end_of_record
SF:/mnt/f/Node/hivellm/synap/sdks/rust/src/queue_reactive.rs
FN:47,_RINvMNtCs7YQ4GFoAOc2_9synap_sdk14queue_reactiveNtNtB5_5queue12QueueManager16observe_messagesppEB5_
FN:123,_RINvMNtCs7YQ4GFoAOc2_9synap_sdk14queue_reactiveNtNtB5_5queue12QueueManager16process_messagesppppEB5_
FN:60,_RNCINvMNtCs7YQ4GFoAOc2_9synap_sdk14queue_reactiveNtNtB7_5queue12QueueManager16observe_messagesppE0B7_
FN:140,_RNCINvMNtCs7YQ4GFoAOc2_9synap_sdk14queue_reactiveNtNtB7_5queue12QueueManager16process_messagesppppE0B7_
FNDA:0,_RINvMNtCs7YQ4GFoAOc2_9synap_sdk14queue_reactiveNtNtB5_5queue12QueueManager16observe_messagesppEB5_
FNDA:0,_RINvMNtCs7YQ4GFoAOc2_9synap_sdk14queue_reactiveNtNtB5_5queue12QueueManager16process_messagesppppEB5_
FNDA:0,_RNCINvMNtCs7YQ4GFoAOc2_9synap_sdk14queue_reactiveNtNtB7_5queue12QueueManager16observe_messagesppE0B7_
FNDA:0,_RNCINvMNtCs7YQ4GFoAOc2_9synap_sdk14queue_reactiveNtNtB7_5queue12QueueManager16process_messagesppppE0B7_
FNF:4
FNH:0
DA:47,0
DA:48,0
DA:49,0
DA:50,0
DA:51,0
DA:52,0
DA:53,0
DA:54,0
DA:55,0
DA:57,0
DA:58,0
DA:60,0
DA:62,0
DA:63,0
DA:64,0
DA:65,0
DA:67,0
DA:68,0
DA:69,0
DA:70,0
DA:71,0
DA:72,0
DA:74,0
DA:75,0
DA:76,0
DA:77,0
DA:78,0
DA:85,0
DA:87,0
DA:88,0
DA:89,0
DA:91,0
DA:92,0
DA:123,0
DA:124,0
DA:125,0
DA:126,0
DA:127,0
DA:128,0
DA:129,0
DA:130,0
DA:131,0
DA:132,0
DA:134,0
DA:135,0
DA:136,0
DA:138,0
DA:140,0
DA:142,0
DA:143,0
DA:144,0
DA:145,0
DA:147,0
DA:148,0
DA:149,0
DA:150,0
DA:153,0
DA:156,0
DA:157,0
DA:158,0
DA:160,0
DA:162,0
DA:163,0
DA:164,0
DA:165,0
DA:169,0
DA:170,0
DA:171,0
DA:172,0
DA:173,0
DA:179,0
DA:181,0
DA:182,0
BRF:0
BRH:0
LF:75
LH:0
end_of_record
SF:/mnt/f/Node/hivellm/synap/sdks/rust/src/reactive.rs
FN:39,_RNCNvNtNtCs7YQ4GFoAOc2_9synap_sdk8reactive5testss_24test_subscription_handle0B7_
FN:39,_RNvNtNtCs7YQ4GFoAOc2_9synap_sdk8reactive5testss_24test_subscription_handle
FN:24,_RNvMNtCs7YQ4GFoAOc2_9synap_sdk8reactiveNtB2_18SubscriptionHandle11unsubscribe
FN:19,_RNvMNtCs7YQ4GFoAOc2_9synap_sdk8reactiveNtB2_18SubscriptionHandle3new
FN:29,_RNvMNtCs7YQ4GFoAOc2_9synap_sdk8reactiveNtB2_18SubscriptionHandle9is_active
FNDA:1,_RNCNvNtNtCs7YQ4GFoAOc2_9synap_sdk8reactive5testss_24test_subscription_handle0B7_
FNDA:1,_RNvNtNtCs7YQ4GFoAOc2_9synap_sdk8reactive5testss_24test_subscription_handle
FNDA:1,_RNvMNtCs7YQ4GFoAOc2_9synap_sdk8reactiveNtB2_18SubscriptionHandle11unsubscribe
FNDA:1,_RNvMNtCs7YQ4GFoAOc2_9synap_sdk8reactiveNtB2_18SubscriptionHandle3new
FNDA:1,_RNvMNtCs7YQ4GFoAOc2_9synap_sdk8reactiveNtB2_18SubscriptionHandle9is_active
FNF:5
FNH:5
DA:19,1
DA:20,1
DA:21,1
DA:24,1
DA:25,1
DA:26,1
DA:29,1
DA:30,1
DA:31,1
DA:39,1
DA:40,1
DA:41,1
DA:43,1
DA:44,1
DA:45,1
DA:46,1
BRF:0
BRH:0
LF:18
LH:18
end_of_record
SF:/mnt/f/Node/hivellm/synap/sdks/rust/src/rx/observable.rs
FN:58,_RINvMs0_NtNtCs7YQ4GFoAOc2_9synap_sdk2rx10observableINtB6_10ObservableINtNtCsjftXE05v0h2_5alloc3vec3VeclEE11from_streamINtNtCsdQ7oPoEUhgB_12async_stream12async_stream11AsyncStreamB15_NCINvNtB8_9operators11buffer_timelE0EEBa_
FN:156,_RINvMs0_NtNtCs7YQ4GFoAOc2_9synap_sdk2rx10observableINtB6_10ObservablelE10take_whileNCNCNvNtB6_5testss_26test_observable_take_while00EBa_
FN:58,_RINvMs0_NtNtCs7YQ4GFoAOc2_9synap_sdk2rx10observableINtB6_10ObservablelE11from_streamINtNtCsdQ7oPoEUhgB_12async_stream12async_stream11AsyncStreamlNCINvNtB8_9operators5mergelE0EEBa_
FN:58,_RINvMs0_NtNtCs7YQ4GFoAOc2_9synap_sdk2rx10observableINtB6_10ObservablelE11from_streamINtNtCsdQ7oPoEUhgB_12async_stream12async_stream11AsyncStreamlNCINvNtB8_9operators8debouncelE0EEBa_
FN:58,_RINvMs0_NtNtCs7YQ4GFoAOc2_9synap_sdk2rx10observableINtB6_10ObservablelE11from_streamINtNtNtCsaKxP8GtxWb7_12futures_util6stream4iter4IterINtNtNtCsjftXE05v0h2_5alloc3vec9into_iter8IntoIterlEEEBa_
FN:58,_RINvMs0_NtNtCs7YQ4GFoAOc2_9synap_sdk2rx10observableINtB6_10ObservablelE11from_streamINtNtNtNtCsaKxP8GtxWb7_12futures_util6stream6stream10take_while9TakeWhileINtNtCsluXpZPV6FGj_4core3pin3PinINtNtCsjftXE05v0h2_5alloc5boxed3BoxDNtNtCsaIfLo1iO1jY_12futures_core6stream6Streamp4ItemlNtNtB2A_6marker4SendEL_EENCNCINvB2_10take_whileNCNCNvNtB6_5testss_26test_observable_take_while00E00NCB4V_0EEBa_
FN:58,_RINvMs0_NtNtCs7YQ4GFoAOc2_9synap_sdk2rx10observableINtB6_10ObservablelE11from_streamINtNtNtNtCsaKxP8GtxWb7_12futures_util6stream6stream3map3MapINtNtCsluXpZPV6FGj_4core3pin3PinINtNtCsjftXE05v0h2_5alloc5boxed3BoxDNtNtCsaIfLo1iO1jY_12futures_core6stream6Streamp4ItemlNtNtB2m_6marker4SendEL_EENCNCNvNtB6_5testss_19test_observable_map00EEBa_
FN:58,_RINvMs0_NtNtCs7YQ4GFoAOc2_9synap_sdk2rx10observableINtB6_10ObservablelE11from_streamINtNtNtNtCsaKxP8GtxWb7_12futures_util6stream6stream3map3MapINtNtCsluXpZPV6FGj_4core3pin3PinINtNtCsjftXE05v0h2_5alloc5boxed3BoxDNtNtCsaIfLo1iO1jY_12futures_core6stream6Streamp4ItemlNtNtB2m_6marker4SendEL_EENCNCNvNtB6_5testss_24test_observable_chaining0s_0EEBa_
FN:58,_RINvMs0_NtNtCs7YQ4GFoAOc2_9synap_sdk2rx10observableINtB6_10ObservablelE11from_streamINtNtNtNtCsaKxP8GtxWb7_12futures_util6stream6stream4skip4SkipINtNtCsluXpZPV6FGj_4core3pin3PinINtNtCsjftXE05v0h2_5alloc5boxed3BoxDNtNtCsaIfLo1iO1jY_12futures_core6stream6Streamp4ItemlNtNtB2o_6marker4SendEL_EEEEBa_
FN:58,_RINvMs0_NtNtCs7YQ4GFoAOc2_9synap_sdk2rx10observableINtB6_10ObservablelE11from_streamINtNtNtNtCsaKxP8GtxWb7_12futures_util6stream6stream4take4TakeINtNtCsluXpZPV6FGj_4core3pin3PinINtNtCsjftXE05v0h2_5alloc5boxed3BoxDNtNtCsaIfLo1iO1jY_12futures_core6stream6Streamp4ItemlNtNtB2o_6marker4SendEL_EEEEBa_
FN:58,_RINvMs0_NtNtCs7YQ4GFoAOc2_9synap_sdk2rx10observableINtB6_10ObservablelE11from_streamINtNtNtNtCsaKxP8GtxWb7_12futures_util6stream6stream6filter6FilterINtNtCsluXpZPV6FGj_4core3pin3PinINtNtCsjftXE05v0h2_5alloc5boxed3BoxDNtNtCsaIfLo1iO1jY_12futures_core6stream6Streamp4ItemlNtNtB2s_6marker4SendEL_EENCNCINvB2_6filterNCNCNvNtB6_5testss_22test_observable_filter00E00NCB4N_0EEBa_
FN:58,_RINvMs0_NtNtCs7YQ4GFoAOc2_9synap_sdk2rx10observableINtB6_10ObservablelE11from_streamINtNtNtNtCsaKxP8GtxWb7_12futures_util6stream6stream6filter6FilterINtNtCsluXpZPV6FGj_4core3pin3PinINtNtCsjftXE05v0h2_5alloc5boxed3BoxDNtNtCsaIfLo1iO1jY_12futures_core6stream6Streamp4ItemlNtNtB2s_6marker4SendEL_EENCNCINvB2_6filterNCNCNvNtB6_5testss_24test_observable_chaining00E00NCB4N_0EEBa_
FN:122,_RINvMs0_NtNtCs7YQ4GFoAOc2_9synap_sdk2rx10observableINtB6_10ObservablelE3mapNCNCNvNtB6_5testss_19test_observable_map00lEBa_
FN:122,_RINvMs0_NtNtCs7YQ4GFoAOc2_9synap_sdk2rx10observableINtB6_10ObservablelE3mapNCNCNvNtB6_5testss_24test_observable_chaining0s_0lEBa_
FN:132,_RINvMs0_NtNtCs7YQ4GFoAOc2_9synap_sdk2rx10observableINtB6_10ObservablelE6filterNCNCNvNtB6_5testss_22test_observable_filter00EBa_
FN:132,_RINvMs0_NtNtCs7YQ4GFoAOc2_9synap_sdk2rx10observableINtB6_10ObservablelE6filterNCNCNvNtB6_5testss_24test_observable_chaining00EBa_
FN:161,_RNCINvMs0_NtNtCs7YQ4GFoAOc2_9synap_sdk2rx10observableINtB8_10ObservablelE10take_whileNCNCNvNtB8_5testss_26test_observable_take_while00E0Bc_
FN:137,_RNCINvMs0_NtNtCs7YQ4GFoAOc2_9synap_sdk2rx10observableINtB8_10ObservablelE6filterNCNCNvNtB8_5testss_22test_observable_filter00E0Bc_
FN:137,_RNCINvMs0_NtNtCs7YQ4GFoAOc2_9synap_sdk2rx10observableINtB8_10ObservablelE6filterNCNCNvNtB8_5testss_24test_observable_chaining00E0Bc_
FN:163,_RNCNCINvMs0_NtNtCs7YQ4GFoAOc2_9synap_sdk2rx10observableINtBa_10ObservablelE10take_whileNCNCNvNtBa_5testss_26test_observable_take_while00E00Be_
FN:139,_RNCNCINvMs0_NtNtCs7YQ4GFoAOc2_9synap_sdk2rx10observableINtBa_10ObservablelE6filterNCNCNvNtBa_5testss_22test_observable_filter00E00Be_
FN:139,_RNCNCINvMs0_NtNtCs7YQ4GFoAOc2_9synap_sdk2rx10observableINtBa_10ObservablelE6filterNCNCNvNtBa_5testss_24test_observable_chaining00E00Be_
FN:37,_RNCNvMNtNtCs7YQ4GFoAOc2_9synap_sdk2rx10observableNtB4_12Subscription9is_active0B8_
FN:117,_RNvMs0_NtNtCs7YQ4GFoAOc2_9synap_sdk2rx10observableINtB5_10ObservableINtNtCsjftXE05v0h2_5alloc3vec3VeclEE11into_streamB9_
FN:117,_RNvMs0_NtNtCs7YQ4GFoAOc2_9synap_sdk2rx10observableINtB5_10ObservablelE11into_streamB9_
FN:150,_RNvMs0_NtNtCs7YQ4GFoAOc2_9synap_sdk2rx10observableINtB5_10ObservablelE4skipB9_
FN:144,_RNvMs0_NtNtCs7YQ4GFoAOc2_9synap_sdk2rx10observableINtB5_10ObservablelE4takeB9_
FN:222,_RNvNtNtNtCs7YQ4GFoAOc2_9synap_sdk2rx10observable5testss_19test_observable_map
FN:249,_RNvNtNtNtCs7YQ4GFoAOc2_9synap_sdk2rx10observable5testss_20test_observable_skip
FN:240,_RNvNtNtNtCs7YQ4GFoAOc2_9synap_sdk2rx10observable5testss_20test_observable_take
FN:231,_RNvNtNtNtCs7YQ4GFoAOc2_9synap_sdk2rx10observable5testss_22test_observable_filter
FN:202,_RNvNtNtNtCs7YQ4GFoAOc2_9synap_sdk2rx10observable5testss_23test_subscription_clone
FN:267,_RNvNtNtNtCs7YQ4GFoAOc2_9synap_sdk2rx10observable5testss_24test_observable_chaining
FN:196,_RNvNtNtNtCs7YQ4GFoAOc2_9synap_sdk2rx10observable5testss_25test_subscription_default
FN:258,_RNvNtNtNtCs7YQ4GFoAOc2_9synap_sdk2rx10observable5testss_26test_observable_take_while
FN:183,_RNvNtNtNtCs7YQ4GFoAOc2_9synap_sdk2rx10observable5testss_26test_subscription_creation
FN:213,_RNvNtNtNtCs7YQ4GFoAOc2_9synap_sdk2rx10observable5testss_27test_observable_from_stream
FN:189,_RNvNtNtNtCs7YQ4GFoAOc2_9synap_sdk2rx10observable5testss_29test_subscription_unsubscribe
FN:109,_RINvMs0_NtNtCs7YQ4GFoAOc2_9synap_sdk2rx10observableINtB6_10ObservablepE14subscribe_nextpEBa_
FN:81,_RINvMs0_NtNtCs7YQ4GFoAOc2_9synap_sdk2rx10observableINtB6_10ObservablepE9subscribepppEBa_
FN:113,_RNCINvMs0_NtNtCs7YQ4GFoAOc2_9synap_sdk2rx10observableINtB8_10ObservablepE14subscribe_nextpE0Bc_
FN:113,_RNCINvMs0_NtNtCs7YQ4GFoAOc2_9synap_sdk2rx10observableINtB8_10ObservablepE14subscribe_nextpEs_0Bc_
FN:90,_RNCINvMs0_NtNtCs7YQ4GFoAOc2_9synap_sdk2rx10observableINtB8_10ObservablepE9subscribepppE0Bc_
FN:94,_RNCNCINvMs0_NtNtCs7YQ4GFoAOc2_9synap_sdk2rx10observableINtBa_10ObservablepE9subscribepppE00Be_
FN:172,_RNvXININtNtCs7YQ4GFoAOc2_9synap_sdk2rx10observables1_0pEINtB5_10ObservablepENtNtCsaIfLo1iO1jY_12futures_core6stream6Stream9poll_nextB9_
FN:29,_RNvMNtNtCs7YQ4GFoAOc2_9synap_sdk2rx10observableNtB2_12Subscription11unsubscribe
FN:22,_RNvMNtNtCs7YQ4GFoAOc2_9synap_sdk2rx10observableNtB2_12Subscription3new
FN:40,_RNvMNtNtCs7YQ4GFoAOc2_9synap_sdk2rx10observableNtB2_12Subscription4flag
FN:36,_RNvMNtNtCs7YQ4GFoAOc2_9synap_sdk2rx10observableNtB2_12Subscription9is_active
FN:46,_RNvXs_NtNtCs7YQ4GFoAOc2_9synap_sdk2rx10observableNtB4_12SubscriptionNtNtCsluXpZPV6FGj_4core7default7Default7default
FN:224,_RNCNCNvNtNtNtCs7YQ4GFoAOc2_9synap_sdk2rx10observable5testss_19test_observable_map00Bb_
FN:233,_RNCNCNvNtNtNtCs7YQ4GFoAOc2_9synap_sdk2rx10observable5testss_22test_observable_filter00Bb_
FN:270,_RNCNCNvNtNtNtCs7YQ4GFoAOc2_9synap_sdk2rx10observable5testss_24test_observable_chaining00Bb_
FN:271,_RNCNCNvNtNtNtCs7YQ4GFoAOc2_9synap_sdk2rx10observable5testss_24test_observable_chaining0s_0Bb_
FN:260,_RNCNCNvNtNtNtCs7YQ4GFoAOc2_9synap_sdk2rx10observable5testss_26test_observable_take_while00Bb_
FN:222,_RNCNvNtNtNtCs7YQ4GFoAOc2_9synap_sdk2rx10observable5testss_19test_observable_map0B9_
FN:249,_RNCNvNtNtNtCs7YQ4GFoAOc2_9synap_sdk2rx10observable5testss_20test_observable_skip0B9_
FN:240,_RNCNvNtNtNtCs7YQ4GFoAOc2_9synap_sdk2rx10observable5testss_20test_observable_take0B9_
FN:231,_RNCNvNtNtNtCs7YQ4GFoAOc2_9synap_sdk2rx10observable5testss_22test_observable_filter0B9_
FN:267,_RNCNvNtNtNtCs7YQ4GFoAOc2_9synap_sdk2rx10observable5testss_24test_observable_chaining0B9_
FN:258,_RNCNvNtNtNtCs7YQ4GFoAOc2_9synap_sdk2rx10observable5testss_26test_observable_take_while0B9_
FN:213,_RNCNvNtNtNtCs7YQ4GFoAOc2_9synap_sdk2rx10observable5testss_27test_observable_from_stream0B9_
FNDA:1,_RINvMs0_NtNtCs7YQ4GFoAOc2_9synap_sdk2rx10observableINtB6_10ObservableINtNtCsjftXE05v0h2_5alloc3vec3VeclEE11from_streamINtNtCsdQ7oPoEUhgB_12async_stream12async_stream11AsyncStreamB15_NCINvNtB8_9operators11buffer_timelE0EEBa_
FNDA:1,_RINvMs0_NtNtCs7YQ4GFoAOc2_9synap_sdk2rx10observableINtB6_10ObservablelE10take_whileNCNCNvNtB6_5testss_26test_observable_take_while00EBa_
FNDA:1,_RINvMs0_NtNtCs7YQ4GFoAOc2_9synap_sdk2rx10observableINtB6_10ObservablelE11from_streamINtNtCsdQ7oPoEUhgB_12async_stream12async_stream11AsyncStreamlNCINvNtB8_9operators5mergelE0EEBa_
FNDA:1,_RINvMs0_NtNtCs7YQ4GFoAOc2_9synap_sdk2rx10observableINtB6_10ObservablelE11from_streamINtNtCsdQ7oPoEUhgB_12async_stream12async_stream11AsyncStreamlNCINvNtB8_9operators8debouncelE0EEBa_
FNDA:12,_RINvMs0_NtNtCs7YQ4GFoAOc2_9synap_sdk2rx10observableINtB6_10ObservablelE11from_streamINtNtNtCsaKxP8GtxWb7_12futures_util6stream4iter4IterINtNtNtCsjftXE05v0h2_5alloc3vec9into_iter8IntoIterlEEEBa_
FNDA:1,_RINvMs0_NtNtCs7YQ4GFoAOc2_9synap_sdk2rx10observableINtB6_10ObservablelE11from_streamINtNtNtNtCsaKxP8GtxWb7_12futures_util6stream6stream10take_while9TakeWhileINtNtCsluXpZPV6FGj_4core3pin3PinINtNtCsjftXE05v0h2_5alloc5boxed3BoxDNtNtCsaIfLo1iO1jY_12futures_core6stream6Streamp4ItemlNtNtB2A_6marker4SendEL_EENCNCINvB2_10take_whileNCNCNvNtB6_5testss_26test_observable_take_while00E00NCB4V_0EEBa_
FNDA:1,_RINvMs0_NtNtCs7YQ4GFoAOc2_9synap_sdk2rx10observableINtB6_10ObservablelE11from_streamINtNtNtNtCsaKxP8GtxWb7_12futures_util6stream6stream3map3MapINtNtCsluXpZPV6FGj_4core3pin3PinINtNtCsjftXE05v0h2_5alloc5boxed3BoxDNtNtCsaIfLo1iO1jY_12futures_core6stream6Streamp4ItemlNtNtB2m_6marker4SendEL_EENCNCNvNtB6_5testss_19test_observable_map00EEBa_
FNDA:1,_RINvMs0_NtNtCs7YQ4GFoAOc2_9synap_sdk2rx10observableINtB6_10ObservablelE11from_streamINtNtNtNtCsaKxP8GtxWb7_12futures_util6stream6stream3map3MapINtNtCsluXpZPV6FGj_4core3pin3PinINtNtCsjftXE05v0h2_5alloc5boxed3BoxDNtNtCsaIfLo1iO1jY_12futures_core6stream6Streamp4ItemlNtNtB2m_6marker4SendEL_EENCNCNvNtB6_5testss_24test_observable_chaining0s_0EEBa_
FNDA:1,_RINvMs0_NtNtCs7YQ4GFoAOc2_9synap_sdk2rx10observableINtB6_10ObservablelE11from_streamINtNtNtNtCsaKxP8GtxWb7_12futures_util6stream6stream4skip4SkipINtNtCsluXpZPV6FGj_4core3pin3PinINtNtCsjftXE05v0h2_5alloc5boxed3BoxDNtNtCsaIfLo1iO1jY_12futures_core6stream6Streamp4ItemlNtNtB2o_6marker4SendEL_EEEEBa_
FNDA:2,_RINvMs0_NtNtCs7YQ4GFoAOc2_9synap_sdk2rx10observableINtB6_10ObservablelE11from_streamINtNtNtNtCsaKxP8GtxWb7_12futures_util6stream6stream4take4TakeINtNtCsluXpZPV6FGj_4core3pin3PinINtNtCsjftXE05v0h2_5alloc5boxed3BoxDNtNtCsaIfLo1iO1jY_12futures_core6stream6Streamp4ItemlNtNtB2o_6marker4SendEL_EEEEBa_
FNDA:1,_RINvMs0_NtNtCs7YQ4GFoAOc2_9synap_sdk2rx10observableINtB6_10ObservablelE11from_streamINtNtNtNtCsaKxP8GtxWb7_12futures_util6stream6stream6filter6FilterINtNtCsluXpZPV6FGj_4core3pin3PinINtNtCsjftXE05v0h2_5alloc5boxed3BoxDNtNtCsaIfLo1iO1jY_12futures_core6stream6Streamp4ItemlNtNtB2s_6marker4SendEL_EENCNCINvB2_6filterNCNCNvNtB6_5testss_22test_observable_filter00E00NCB4N_0EEBa_
FNDA:1,_RINvMs0_NtNtCs7YQ4GFoAOc2_9synap_sdk2rx10observableINtB6_10ObservablelE11from_streamINtNtNtNtCsaKxP8GtxWb7_12futures_util6stream6stream6filter6FilterINtNtCsluXpZPV6FGj_4core3pin3PinINtNtCsjftXE05v0h2_5alloc5boxed3BoxDNtNtCsaIfLo1iO1jY_12futures_core6stream6Streamp4ItemlNtNtB2s_6marker4SendEL_EENCNCINvB2_6filterNCNCNvNtB6_5testss_24test_observable_chaining00E00NCB4N_0EEBa_
FNDA:1,_RINvMs0_NtNtCs7YQ4GFoAOc2_9synap_sdk2rx10observableINtB6_10ObservablelE3mapNCNCNvNtB6_5testss_19test_observable_map00lEBa_
FNDA:1,_RINvMs0_NtNtCs7YQ4GFoAOc2_9synap_sdk2rx10observableINtB6_10ObservablelE3mapNCNCNvNtB6_5testss_24test_observable_chaining0s_0lEBa_
FNDA:1,_RINvMs0_NtNtCs7YQ4GFoAOc2_9synap_sdk2rx10observableINtB6_10ObservablelE6filterNCNCNvNtB6_5testss_22test_observable_filter00EBa_
FNDA:1,_RINvMs0_NtNtCs7YQ4GFoAOc2_9synap_sdk2rx10observableINtB6_10ObservablelE6filterNCNCNvNtB6_5testss_24test_observable_chaining00EBa_
FNDA:4,_RNCINvMs0_NtNtCs7YQ4GFoAOc2_9synap_sdk2rx10observableINtB8_10ObservablelE10take_whileNCNCNvNtB8_5testss_26test_observable_take_while00E0Bc_
FNDA:5,_RNCINvMs0_NtNtCs7YQ4GFoAOc2_9synap_sdk2rx10observableINtB8_10ObservablelE6filterNCNCNvNtB8_5testss_22test_observable_filter00E0Bc_
FNDA:6,_RNCINvMs0_NtNtCs7YQ4GFoAOc2_9synap_sdk2rx10observableINtB8_10ObservablelE6filterNCNCNvNtB8_5testss_24test_observable_chaining00E0Bc_
FNDA:4,_RNCNCINvMs0_NtNtCs7YQ4GFoAOc2_9synap_sdk2rx10observableINtBa_10ObservablelE10take_whileNCNCNvNtBa_5testss_26test_observable_take_while00E00Be_
FNDA:5,_RNCNCINvMs0_NtNtCs7YQ4GFoAOc2_9synap_sdk2rx10observableINtBa_10ObservablelE6filterNCNCNvNtBa_5testss_22test_observable_filter00E00Be_
FNDA:6,_RNCNCINvMs0_NtNtCs7YQ4GFoAOc2_9synap_sdk2rx10observableINtBa_10ObservablelE6filterNCNCNvNtBa_5testss_24test_observable_chaining00E00Be_
FNDA:7,_RNCNvMNtNtCs7YQ4GFoAOc2_9synap_sdk2rx10observableNtB4_12Subscription9is_active0B8_
FNDA:1,_RNvMs0_NtNtCs7YQ4GFoAOc2_9synap_sdk2rx10observableINtB5_10ObservableINtNtCsjftXE05v0h2_5alloc3vec3VeclEE11into_streamB9_
FNDA:14,_RNvMs0_NtNtCs7YQ4GFoAOc2_9synap_sdk2rx10observableINtB5_10ObservablelE11into_streamB9_
FNDA:1,_RNvMs0_NtNtCs7YQ4GFoAOc2_9synap_sdk2rx10observableINtB5_10ObservablelE4skipB9_
FNDA:2,_RNvMs0_NtNtCs7YQ4GFoAOc2_9synap_sdk2rx10observableINtB5_10ObservablelE4takeB9_
FNDA:1,_RNvNtNtNtCs7YQ4GFoAOc2_9synap_sdk2rx10observable5testss_19test_observable_map
FNDA:1,_RNvNtNtNtCs7YQ4GFoAOc2_9synap_sdk2rx10observable5testss_20test_observable_skip
FNDA:1,_RNvNtNtNtCs7YQ4GFoAOc2_9synap_sdk2rx10observable5testss_20test_observable_take
FNDA:1,_RNvNtNtNtCs7YQ4GFoAOc2_9synap_sdk2rx10observable5testss_22test_observable_filter
FNDA:1,_RNvNtNtNtCs7YQ4GFoAOc2_9synap_sdk2rx10observable5testss_23test_subscription_clone
FNDA:1,_RNvNtNtNtCs7YQ4GFoAOc2_9synap_sdk2rx10observable5testss_24test_observable_chaining
FNDA:1,_RNvNtNtNtCs7YQ4GFoAOc2_9synap_sdk2rx10observable5testss_25test_subscription_default
FNDA:1,_RNvNtNtNtCs7YQ4GFoAOc2_9synap_sdk2rx10observable5testss_26test_observable_take_while
FNDA:1,_RNvNtNtNtCs7YQ4GFoAOc2_9synap_sdk2rx10observable5testss_26test_subscription_creation
FNDA:1,_RNvNtNtNtCs7YQ4GFoAOc2_9synap_sdk2rx10observable5testss_27test_observable_from_stream
FNDA:1,_RNvNtNtNtCs7YQ4GFoAOc2_9synap_sdk2rx10observable5testss_29test_subscription_unsubscribe
FNDA:0,_RINvMs0_NtNtCs7YQ4GFoAOc2_9synap_sdk2rx10observableINtB6_10ObservablepE14subscribe_nextpEBa_
FNDA:0,_RINvMs0_NtNtCs7YQ4GFoAOc2_9synap_sdk2rx10observableINtB6_10ObservablepE9subscribepppEBa_
FNDA:0,_RNCINvMs0_NtNtCs7YQ4GFoAOc2_9synap_sdk2rx10observableINtB8_10ObservablepE14subscribe_nextpE0Bc_
FNDA:0,_RNCINvMs0_NtNtCs7YQ4GFoAOc2_9synap_sdk2rx10observableINtB8_10ObservablepE14subscribe_nextpEs_0Bc_
FNDA:0,_RNCINvMs0_NtNtCs7YQ4GFoAOc2_9synap_sdk2rx10observableINtB8_10ObservablepE9subscribepppE0Bc_
FNDA:0,_RNCNCINvMs0_NtNtCs7YQ4GFoAOc2_9synap_sdk2rx10observableINtBa_10ObservablepE9subscribepppE00Be_
FNDA:0,_RNvXININtNtCs7YQ4GFoAOc2_9synap_sdk2rx10observables1_0pEINtB5_10ObservablepENtNtCsaIfLo1iO1jY_12futures_core6stream6Stream9poll_nextB9_
FNDA:4,_RNvMNtNtCs7YQ4GFoAOc2_9synap_sdk2rx10observableNtB2_12Subscription11unsubscribe
FNDA:8,_RNvMNtNtCs7YQ4GFoAOc2_9synap_sdk2rx10observableNtB2_12Subscription3new
FNDA:4,_RNvMNtNtCs7YQ4GFoAOc2_9synap_sdk2rx10observableNtB2_12Subscription4flag
FNDA:7,_RNvMNtNtCs7YQ4GFoAOc2_9synap_sdk2rx10observableNtB2_12Subscription9is_active
FNDA:1,_RNvXs_NtNtCs7YQ4GFoAOc2_9synap_sdk2rx10observableNtB4_12SubscriptionNtNtCsluXpZPV6FGj_4core7default7Default7default
FNDA:3,_RNCNCNvNtNtNtCs7YQ4GFoAOc2_9synap_sdk2rx10observable5testss_19test_observable_map00Bb_
FNDA:5,_RNCNCNvNtNtNtCs7YQ4GFoAOc2_9synap_sdk2rx10observable5testss_22test_observable_filter00Bb_
FNDA:6,_RNCNCNvNtNtNtCs7YQ4GFoAOc2_9synap_sdk2rx10observable5testss_24test_observable_chaining00Bb_
FNDA:3,_RNCNCNvNtNtNtCs7YQ4GFoAOc2_9synap_sdk2rx10observable5testss_24test_observable_chaining0s_0Bb_
FNDA:4,_RNCNCNvNtNtNtCs7YQ4GFoAOc2_9synap_sdk2rx10observable5testss_26test_observable_take_while00Bb_
FNDA:1,_RNCNvNtNtNtCs7YQ4GFoAOc2_9synap_sdk2rx10observable5testss_19test_observable_map0B9_
FNDA:1,_RNCNvNtNtNtCs7YQ4GFoAOc2_9synap_sdk2rx10observable5testss_20test_observable_skip0B9_
FNDA:1,_RNCNvNtNtNtCs7YQ4GFoAOc2_9synap_sdk2rx10observable5testss_20test_observable_take0B9_
FNDA:1,_RNCNvNtNtNtCs7YQ4GFoAOc2_9synap_sdk2rx10observable5testss_22test_observable_filter0B9_
FNDA:1,_RNCNvNtNtNtCs7YQ4GFoAOc2_9synap_sdk2rx10observable5testss_24test_observable_chaining0B9_
FNDA:1,_RNCNvNtNtNtCs7YQ4GFoAOc2_9synap_sdk2rx10observable5testss_26test_observable_take_while0B9_
FNDA:1,_RNCNvNtNtNtCs7YQ4GFoAOc2_9synap_sdk2rx10observable5testss_27test_observable_from_stream0B9_
FNF:47
FNH:40
DA:22,8
DA:23,8
DA:24,8
DA:25,8
DA:26,8
DA:29,4
DA:30,4
DA:31,4
DA:32,4
DA:33,4
DA:36,7
DA:37,7
DA:38,7
DA:40,4
DA:41,4
DA:42,4
DA:46,1
DA:47,1
DA:48,1
DA:58,23
DA:59,23
DA:60,23
DA:62,23
DA:63,23
DA:64,23
DA:65,23
DA:81,0
DA:82,0
DA:83,0
DA:84,0
DA:85,0
DA:87,0
DA:88,0
DA:90,0
DA:92,0
DA:94,0
DA:95,0
DA:96,0
DA:98,0
DA:99,0
DA:103,0
DA:105,0
DA:106,0
DA:109,0
DA:110,0
DA:111,0
DA:113,0
DA:114,0
DA:117,15
DA:118,15
DA:119,15
DA:122,2
DA:123,2
DA:124,2
DA:125,2
DA:128,2
DA:129,2
DA:132,2
DA:133,2
DA:134,2
DA:137,11
DA:138,11
DA:139,11
DA:140,11
DA:141,2
DA:144,2
DA:146,2
DA:147,2
DA:150,1
DA:152,1
DA:153,1
DA:156,1
DA:157,1
DA:158,1
DA:161,4
DA:162,4
DA:163,4
DA:164,4
DA:165,1
DA:172,0
DA:173,0
DA:174,0
DA:183,1
DA:184,1
DA:185,1
DA:186,1
DA:189,1
DA:190,1
DA:191,1
DA:192,1
DA:193,1
DA:196,1
DA:197,1
DA:198,1
DA:199,1
DA:202,1
DA:203,1
DA:204,1
DA:205,1
DA:206,1
DA:207,1
DA:208,1
DA:209,1
DA:210,1
DA:213,1
DA:214,1
DA:215,1
DA:217,1
DA:218,1
DA:219,1
DA:222,1
DA:223,1
DA:224,3
DA:226,1
DA:227,1
DA:228,1
DA:231,1
DA:232,1
DA:233,5
DA:235,1
DA:236,1
DA:237,1
DA:240,1
DA:241,1
DA:242,1
DA:244,1
DA:245,1
DA:246,1
DA:249,1
DA:250,1
DA:251,1
DA:253,1
DA:254,1
DA:255,1
DA:258,1
DA:259,1
DA:260,4
DA:262,1
DA:263,1
DA:264,1
DA:267,1
DA:268,1
DA:269,1
DA:270,6
DA:271,3
DA:272,1
DA:275,1
DA:276,1
DA:277,1
BRF:0
BRH:0
LF:175
LH:146
end_of_record
SF:/mnt/f/Node/hivellm/synap/sdks/rust/src/rx/operators.rs
FN:140,_RNCNvNtNtNtCs7YQ4GFoAOc2_9synap_sdk2rx9operators5testss_10test_merge0B9_
FN:112,_RNCNvNtNtNtCs7YQ4GFoAOc2_9synap_sdk2rx9operators5testss_10test_retry0B9_
FN:121,_RNCNvNtNtNtCs7YQ4GFoAOc2_9synap_sdk2rx9operators5testss_13test_debounce0B9_
FN:130,_RNCNvNtNtNtCs7YQ4GFoAOc2_9synap_sdk2rx9operators5testss_16test_buffer_time0B9_
FN:56,_RINvNtNtCs7YQ4GFoAOc2_9synap_sdk2rx9operators11buffer_timelEB6_
FN:88,_RINvNtNtCs7YQ4GFoAOc2_9synap_sdk2rx9operators5mergelEB6_
FN:16,_RINvNtNtCs7YQ4GFoAOc2_9synap_sdk2rx9operators5retrylEB6_
FN:31,_RINvNtNtCs7YQ4GFoAOc2_9synap_sdk2rx9operators8debouncelEB6_
FN:92,_RNCNCINvNtNtCs7YQ4GFoAOc2_9synap_sdk2rx9operators5mergelE00Ba_
FN:140,_RNvNtNtNtCs7YQ4GFoAOc2_9synap_sdk2rx9operators5testss_10test_merge
FN:112,_RNvNtNtNtCs7YQ4GFoAOc2_9synap_sdk2rx9operators5testss_10test_retry
FN:121,_RNvNtNtNtCs7YQ4GFoAOc2_9synap_sdk2rx9operators5testss_13test_debounce
FN:130,_RNvNtNtNtCs7YQ4GFoAOc2_9synap_sdk2rx9operators5testss_16test_buffer_time
FNDA:1,_RNCNvNtNtNtCs7YQ4GFoAOc2_9synap_sdk2rx9operators5testss_10test_merge0B9_
FNDA:1,_RNCNvNtNtNtCs7YQ4GFoAOc2_9synap_sdk2rx9operators5testss_10test_retry0B9_
FNDA:1,_RNCNvNtNtNtCs7YQ4GFoAOc2_9synap_sdk2rx9operators5testss_13test_debounce0B9_
FNDA:1,_RNCNvNtNtNtCs7YQ4GFoAOc2_9synap_sdk2rx9operators5testss_16test_buffer_time0B9_
FNDA:1,_RINvNtNtCs7YQ4GFoAOc2_9synap_sdk2rx9operators11buffer_timelEB6_
FNDA:1,_RINvNtNtCs7YQ4GFoAOc2_9synap_sdk2rx9operators5mergelEB6_
FNDA:1,_RINvNtNtCs7YQ4GFoAOc2_9synap_sdk2rx9operators5retrylEB6_
FNDA:1,_RINvNtNtCs7YQ4GFoAOc2_9synap_sdk2rx9operators8debouncelEB6_
FNDA:2,_RNCNCINvNtNtCs7YQ4GFoAOc2_9synap_sdk2rx9operators5mergelE00Ba_
FNDA:1,_RNvNtNtNtCs7YQ4GFoAOc2_9synap_sdk2rx9operators5testss_10test_merge
FNDA:1,_RNvNtNtNtCs7YQ4GFoAOc2_9synap_sdk2rx9operators5testss_10test_retry
FNDA:1,_RNvNtNtNtCs7YQ4GFoAOc2_9synap_sdk2rx9operators5testss_13test_debounce
FNDA:1,_RNvNtNtNtCs7YQ4GFoAOc2_9synap_sdk2rx9operators5testss_16test_buffer_time
FNF:13
FNH:13
DA:16,1
DA:18,1
DA:19,1
DA:31,1
DA:32,1
DA:43,1
DA:44,1
DA:56,1
DA:57,1
DA:58,1
DA:59,1
DA:60,1
DA:84,1
DA:85,1
DA:88,1
DA:89,1
DA:92,2
DA:103,1
DA:104,1
DA:112,1
DA:113,1
DA:114,1
DA:116,1
DA:117,1
DA:118,1
DA:121,1
DA:122,1
DA:123,1
DA:125,1
DA:126,1
DA:127,1
DA:130,1
DA:131,1
DA:132,1
DA:134,1
DA:135,1
DA:136,1
DA:137,1
DA:140,1
DA:141,1
DA:142,1
DA:143,1
DA:145,1
DA:146,1
DA:147,1
BRF:0
BRH:0
LF:53
LH:53
end_of_record
SF:/mnt/f/Node/hivellm/synap/sdks/rust/src/rx/subject.rs
FN:96,_RNvMNtNtCs7YQ4GFoAOc2_9synap_sdk2rx7subjectINtB2_7SubjectpE13as_observableB6_
FN:73,_RINvMNtNtCs7YQ4GFoAOc2_9synap_sdk2rx7subjectINtB3_7SubjectlE9subscribeNCNCNvNtB3_5testss_18test_subject_error00EB7_
FN:73,_RINvMNtNtCs7YQ4GFoAOc2_9synap_sdk2rx7subjectINtB3_7SubjectlE9subscribeNCNCNvNtB3_5testss_21test_subject_complete00EB7_
FN:73,_RINvMNtNtCs7YQ4GFoAOc2_9synap_sdk2rx7subjectINtB3_7SubjectlE9subscribeNCNCNvNtB3_5testss_22test_subject_multicast00EB7_
FN:73,_RINvMNtNtCs7YQ4GFoAOc2_9synap_sdk2rx7subjectINtB3_7SubjectlE9subscribeNCNCNvNtB3_5testss_22test_subject_multicast0s_0EB7_
FN:81,_RNCINvMNtNtCs7YQ4GFoAOc2_9synap_sdk2rx7subjectINtB5_7SubjectlE9subscribeNCNCNvNtB5_5testss_18test_subject_error00E0B9_
FN:81,_RNCINvMNtNtCs7YQ4GFoAOc2_9synap_sdk2rx7subjectINtB5_7SubjectlE9subscribeNCNCNvNtB5_5testss_21test_subject_complete00E0B9_
FN:81,_RNCINvMNtNtCs7YQ4GFoAOc2_9synap_sdk2rx7subjectINtB5_7SubjectlE9subscribeNCNCNvNtB5_5testss_22test_subject_multicast00E0B9_
FN:81,_RNCINvMNtNtCs7YQ4GFoAOc2_9synap_sdk2rx7subjectINtB5_7SubjectlE9subscribeNCNCNvNtB5_5testss_22test_subject_multicast0s_0E0B9_
FN:82,_RNCNCINvMNtNtCs7YQ4GFoAOc2_9synap_sdk2rx7subjectINtB7_7SubjectlE9subscribeNCNCNvNtB7_5testss_18test_subject_error00E00Bb_
FN:82,_RNCNCINvMNtNtCs7YQ4GFoAOc2_9synap_sdk2rx7subjectINtB7_7SubjectlE9subscribeNCNCNvNtB7_5testss_21test_subject_complete00E00Bb_
FN:82,_RNCNCINvMNtNtCs7YQ4GFoAOc2_9synap_sdk2rx7subjectINtB7_7SubjectlE9subscribeNCNCNvNtB7_5testss_22test_subject_multicast00E00Bb_
FN:82,_RNCNCINvMNtNtCs7YQ4GFoAOc2_9synap_sdk2rx7subjectINtB7_7SubjectlE9subscribeNCNCNvNtB7_5testss_22test_subject_multicast0s_0E00Bb_
FN:50,_RNvMNtNtCs7YQ4GFoAOc2_9synap_sdk2rx7subjectINtB2_7SubjectlE13with_capacityB6_
FN:44,_RNvMNtNtCs7YQ4GFoAOc2_9synap_sdk2rx7subjectINtB2_7SubjectlE3newB6_
FN:56,_RNvMNtNtCs7YQ4GFoAOc2_9synap_sdk2rx7subjectINtB2_7SubjectlE4nextB6_
FN:61,_RNvMNtNtCs7YQ4GFoAOc2_9synap_sdk2rx7subjectINtB2_7SubjectlE5errorB6_
FN:66,_RNvMNtNtCs7YQ4GFoAOc2_9synap_sdk2rx7subjectINtB2_7SubjectlE8completeB6_
FN:120,_RNvXs0_NtNtCs7YQ4GFoAOc2_9synap_sdk2rx7subjectINtB5_7SubjectlENtNtCsluXpZPV6FGj_4core5clone5Clone5cloneB9_
FN:114,_RNvXs_NtNtCs7YQ4GFoAOc2_9synap_sdk2rx7subjectINtB4_7SubjectlENtNtCsluXpZPV6FGj_4core7default7Default7defaultB8_
FN:212,_RNCNCNvNtNtNtCs7YQ4GFoAOc2_9synap_sdk2rx7subject5testss_18test_subject_error00Bb_
FN:193,_RNCNCNvNtNtNtCs7YQ4GFoAOc2_9synap_sdk2rx7subject5testss_21test_subject_complete00Bb_
FN:166,_RNCNCNvNtNtNtCs7YQ4GFoAOc2_9synap_sdk2rx7subject5testss_22test_subject_multicast00Bb_
FN:171,_RNCNCNvNtNtNtCs7YQ4GFoAOc2_9synap_sdk2rx7subject5testss_22test_subject_multicast0s_0Bb_
FN:207,_RNCNvNtNtNtCs7YQ4GFoAOc2_9synap_sdk2rx7subject5testss_18test_subject_error0B9_
FN:188,_RNCNvNtNtNtCs7YQ4GFoAOc2_9synap_sdk2rx7subject5testss_21test_subject_complete0B9_
FN:161,_RNCNvNtNtNtCs7YQ4GFoAOc2_9synap_sdk2rx7subject5testss_22test_subject_multicast0B9_
FN:153,_RNvNtNtNtCs7YQ4GFoAOc2_9synap_sdk2rx7subject5testss_18test_subject_clone
FN:207,_RNvNtNtNtCs7YQ4GFoAOc2_9synap_sdk2rx7subject5testss_18test_subject_error
FN:147,_RNvNtNtNtCs7YQ4GFoAOc2_9synap_sdk2rx7subject5testss_20test_subject_default
FN:188,_RNvNtNtNtCs7YQ4GFoAOc2_9synap_sdk2rx7subject5testss_21test_subject_complete
FN:135,_RNvNtNtNtCs7YQ4GFoAOc2_9synap_sdk2rx7subject5testss_21test_subject_creation
FN:161,_RNvNtNtNtCs7YQ4GFoAOc2_9synap_sdk2rx7subject5testss_22test_subject_multicast
FN:141,_RNvNtNtNtCs7YQ4GFoAOc2_9synap_sdk2rx7subject5testss_26test_subject_with_capacity
FNDA:0,_RNvMNtNtCs7YQ4GFoAOc2_9synap_sdk2rx7subjectINtB2_7SubjectpE13as_observableB6_
FNDA:1,_RINvMNtNtCs7YQ4GFoAOc2_9synap_sdk2rx7subjectINtB3_7SubjectlE9subscribeNCNCNvNtB3_5testss_18test_subject_error00EB7_
FNDA:1,_RINvMNtNtCs7YQ4GFoAOc2_9synap_sdk2rx7subjectINtB3_7SubjectlE9subscribeNCNCNvNtB3_5testss_21test_subject_complete00EB7_
FNDA:1,_RINvMNtNtCs7YQ4GFoAOc2_9synap_sdk2rx7subjectINtB3_7SubjectlE9subscribeNCNCNvNtB3_5testss_22test_subject_multicast00EB7_
FNDA:1,_RINvMNtNtCs7YQ4GFoAOc2_9synap_sdk2rx7subjectINtB3_7SubjectlE9subscribeNCNCNvNtB3_5testss_22test_subject_multicast0s_0EB7_
FNDA:1,_RNCINvMNtNtCs7YQ4GFoAOc2_9synap_sdk2rx7subjectINtB5_7SubjectlE9subscribeNCNCNvNtB5_5testss_18test_subject_error00E0B9_
FNDA:1,_RNCINvMNtNtCs7YQ4GFoAOc2_9synap_sdk2rx7subjectINtB5_7SubjectlE9subscribeNCNCNvNtB5_5testss_21test_subject_complete00E0B9_
FNDA:1,_RNCINvMNtNtCs7YQ4GFoAOc2_9synap_sdk2rx7subjectINtB5_7SubjectlE9subscribeNCNCNvNtB5_5testss_22test_subject_multicast00E0B9_
FNDA:1,_RNCINvMNtNtCs7YQ4GFoAOc2_9synap_sdk2rx7subjectINtB5_7SubjectlE9subscribeNCNCNvNtB5_5testss_22test_subject_multicast0s_0E0B9_
FNDA:2,_RNCNCINvMNtNtCs7YQ4GFoAOc2_9synap_sdk2rx7subjectINtB7_7SubjectlE9subscribeNCNCNvNtB7_5testss_18test_subject_error00E00Bb_
FNDA:2,_RNCNCINvMNtNtCs7YQ4GFoAOc2_9synap_sdk2rx7subjectINtB7_7SubjectlE9subscribeNCNCNvNtB7_5testss_21test_subject_complete00E00Bb_
FNDA:3,_RNCNCINvMNtNtCs7YQ4GFoAOc2_9synap_sdk2rx7subjectINtB7_7SubjectlE9subscribeNCNCNvNtB7_5testss_22test_subject_multicast00E00Bb_
FNDA:3,_RNCNCINvMNtNtCs7YQ4GFoAOc2_9synap_sdk2rx7subjectINtB7_7SubjectlE9subscribeNCNCNvNtB7_5testss_22test_subject_multicast0s_0E00Bb_
FNDA:1,_RNvMNtNtCs7YQ4GFoAOc2_9synap_sdk2rx7subjectINtB2_7SubjectlE13with_capacityB6_
FNDA:6,_RNvMNtNtCs7YQ4GFoAOc2_9synap_sdk2rx7subjectINtB2_7SubjectlE3newB6_
FNDA:6,_RNvMNtNtCs7YQ4GFoAOc2_9synap_sdk2rx7subjectINtB2_7SubjectlE4nextB6_
FNDA:1,_RNvMNtNtCs7YQ4GFoAOc2_9synap_sdk2rx7subjectINtB2_7SubjectlE5errorB6_
FNDA:1,_RNvMNtNtCs7YQ4GFoAOc2_9synap_sdk2rx7subjectINtB2_7SubjectlE8completeB6_
FNDA:1,_RNvXs0_NtNtCs7YQ4GFoAOc2_9synap_sdk2rx7subjectINtB5_7SubjectlENtNtCsluXpZPV6FGj_4core5clone5Clone5cloneB9_
FNDA:1,_RNvXs_NtNtCs7YQ4GFoAOc2_9synap_sdk2rx7subjectINtB4_7SubjectlENtNtCsluXpZPV6FGj_4core7default7Default7defaultB8_
FNDA:1,_RNCNCNvNtNtNtCs7YQ4GFoAOc2_9synap_sdk2rx7subject5testss_18test_subject_error00Bb_
FNDA:1,_RNCNCNvNtNtNtCs7YQ4GFoAOc2_9synap_sdk2rx7subject5testss_21test_subject_complete00Bb_
FNDA:2,_RNCNCNvNtNtNtCs7YQ4GFoAOc2_9synap_sdk2rx7subject5testss_22test_subject_multicast00Bb_
FNDA:2,_RNCNCNvNtNtNtCs7YQ4GFoAOc2_9synap_sdk2rx7subject5testss_22test_subject_multicast0s_0Bb_
FNDA:1,_RNCNvNtNtNtCs7YQ4GFoAOc2_9synap_sdk2rx7subject5testss_18test_subject_error0B9_
FNDA:1,_RNCNvNtNtNtCs7YQ4GFoAOc2_9synap_sdk2rx7subject5testss_21test_subject_complete0B9_
FNDA:1,_RNCNvNtNtNtCs7YQ4GFoAOc2_9synap_sdk2rx7subject5testss_22test_subject_multicast0B9_
FNDA:1,_RNvNtNtNtCs7YQ4GFoAOc2_9synap_sdk2rx7subject5testss_18test_subject_clone
FNDA:1,_RNvNtNtNtCs7YQ4GFoAOc2_9synap_sdk2rx7subject5testss_18test_subject_error
FNDA:1,_RNvNtNtNtCs7YQ4GFoAOc2_9synap_sdk2rx7subject5testss_20test_subject_default
FNDA:1,_RNvNtNtNtCs7YQ4GFoAOc2_9synap_sdk2rx7subject5testss_21test_subject_complete
FNDA:1,_RNvNtNtNtCs7YQ4GFoAOc2_9synap_sdk2rx7subject5testss_21test_subject_creation
FNDA:1,_RNvNtNtNtCs7YQ4GFoAOc2_9synap_sdk2rx7subject5testss_22test_subject_multicast
FNDA:1,_RNvNtNtNtCs7YQ4GFoAOc2_9synap_sdk2rx7subject5testss_26test_subject_with_capacity
FNF:25
FNH:24
DA:44,6
DA:45,6
DA:46,6
DA:47,6
DA:50,1
DA:51,1
DA:52,1
DA:53,1
DA:56,6
DA:57,6
DA:58,6
DA:61,1
DA:62,1
DA:63,1
DA:66,1
DA:67,1
DA:68,1
DA:73,4
DA:74,4
DA:75,4
DA:77,4
DA:78,4
DA:79,4
DA:81,4
DA:82,10
DA:83,10
DA:84,6
DA:85,1
DA:86,1
DA:87,0
DA:90,2
DA:92,4
DA:93,4
DA:96,0
DA:97,0
DA:98,0
DA:99,0
DA:109,0
DA:110,0
DA:114,1
DA:115,1
DA:116,1
DA:120,1
DA:121,1
DA:122,1
DA:123,1
DA:124,1
DA:135,1
DA:136,1
DA:137,1
DA:138,1
DA:141,1
DA:142,1
DA:143,1
DA:144,1
DA:147,1
DA:148,1
DA:149,1
DA:150,1
DA:153,1
DA:154,1
DA:155,1
DA:156,1
DA:157,1
DA:158,1
DA:161,1
DA:162,1
DA:163,1
DA:165,1
DA:166,2
DA:167,2
DA:168,2
DA:170,1
DA:171,2
DA:172,2
DA:173,2
DA:175,1
DA:176,1
DA:178,1
DA:181,1
DA:183,1
DA:184,1
DA:185,1
DA:188,1
DA:189,1
DA:190,1
DA:192,1
DA:193,1
DA:194,1
DA:195,1
DA:197,1
DA:198,1
DA:199,1
DA:201,1
DA:203,1
DA:204,1
DA:207,1
DA:208,1
DA:209,1
DA:211,1
DA:212,1
DA:213,1
DA:214,1
DA:216,1
DA:217,1
DA:218,1
DA:220,1
DA:222,1
DA:223,1
BRF:0
BRH:0
LF:121
LH:113
end_of_record
SF:/mnt/f/Node/hivellm/synap/sdks/rust/src/stream.rs
FN:124,_RNvNtNtCs7YQ4GFoAOc2_9synap_sdk6stream5testss_25test_stream_manager_clone
FN:115,_RNvNtNtCs7YQ4GFoAOc2_9synap_sdk6stream5testss_28test_stream_manager_creation
FN:24,_RNCNvMNtCs7YQ4GFoAOc2_9synap_sdk6streamNtB4_13StreamManager11create_room0B6_
FN:102,_RNCNvMNtCs7YQ4GFoAOc2_9synap_sdk6streamNtB4_13StreamManager11delete_room0B6_
FN:96,_RNCNvMNtCs7YQ4GFoAOc2_9synap_sdk6streamNtB4_13StreamManager4list0B6_
FN:89,_RNCNvMNtCs7YQ4GFoAOc2_9synap_sdk6streamNtB4_13StreamManager5stats0B6_
FN:77,_RNCNvMNtCs7YQ4GFoAOc2_9synap_sdk6streamNtB4_13StreamManager7consume0B6_
FN:54,_RNCNvMNtCs7YQ4GFoAOc2_9synap_sdk6streamNtB4_13StreamManager7publish0B6_
FN:24,_RNvMNtCs7YQ4GFoAOc2_9synap_sdk6streamNtB2_13StreamManager11create_room
FN:102,_RNvMNtCs7YQ4GFoAOc2_9synap_sdk6streamNtB2_13StreamManager11delete_room
FN:96,_RNvMNtCs7YQ4GFoAOc2_9synap_sdk6streamNtB2_13StreamManager4list
FN:89,_RNvMNtCs7YQ4GFoAOc2_9synap_sdk6streamNtB2_13StreamManager5stats
FN:72,_RNvMNtCs7YQ4GFoAOc2_9synap_sdk6streamNtB2_13StreamManager7consume
FN:54,_RNvMNtCs7YQ4GFoAOc2_9synap_sdk6streamNtB2_13StreamManager7publish
FN:19,_RNvMNtCs7YQ4GFoAOc2_9synap_sdk6streamNtB2_13StreamManager3new
FNDA:1,_RNvNtNtCs7YQ4GFoAOc2_9synap_sdk6stream5testss_25test_stream_manager_clone
FNDA:1,_RNvNtNtCs7YQ4GFoAOc2_9synap_sdk6stream5testss_28test_stream_manager_creation
FNDA:0,_RNCNvMNtCs7YQ4GFoAOc2_9synap_sdk6streamNtB4_13StreamManager11create_room0B6_
FNDA:0,_RNCNvMNtCs7YQ4GFoAOc2_9synap_sdk6streamNtB4_13StreamManager11delete_room0B6_
FNDA:0,_RNCNvMNtCs7YQ4GFoAOc2_9synap_sdk6streamNtB4_13StreamManager4list0B6_
FNDA:0,_RNCNvMNtCs7YQ4GFoAOc2_9synap_sdk6streamNtB4_13StreamManager5stats0B6_
FNDA:0,_RNCNvMNtCs7YQ4GFoAOc2_9synap_sdk6streamNtB4_13StreamManager7consume0B6_
FNDA:0,_RNCNvMNtCs7YQ4GFoAOc2_9synap_sdk6streamNtB4_13StreamManager7publish0B6_
FNDA:0,_RNvMNtCs7YQ4GFoAOc2_9synap_sdk6streamNtB2_13StreamManager11create_room
FNDA:0,_RNvMNtCs7YQ4GFoAOc2_9synap_sdk6streamNtB2_13StreamManager11delete_room
FNDA:0,_RNvMNtCs7YQ4GFoAOc2_9synap_sdk6streamNtB2_13StreamManager4list
FNDA:0,_RNvMNtCs7YQ4GFoAOc2_9synap_sdk6streamNtB2_13StreamManager5stats
FNDA:0,_RNvMNtCs7YQ4GFoAOc2_9synap_sdk6streamNtB2_13StreamManager7consume
FNDA:0,_RNvMNtCs7YQ4GFoAOc2_9synap_sdk6streamNtB2_13StreamManager7publish
FNDA:2,_RNvMNtCs7YQ4GFoAOc2_9synap_sdk6streamNtB2_13StreamManager3new
FNF:15
FNH:3
DA:19,2
DA:20,2
DA:21,2
DA:24,0
DA:25,0
DA:26,0
DA:27,0
DA:28,0
DA:30,0
DA:31,0
DA:32,0
DA:54,0
DA:55,0
DA:56,0
DA:57,0
DA:58,0
DA:61,0
DA:63,0
DA:64,0
DA:72,0
DA:73,0
DA:74,0
DA:75,0
DA:76,0
DA:77,0
DA:78,0
DA:79,0
DA:80,0
DA:81,0
DA:84,0
DA:85,0
DA:86,0
DA:89,0
DA:90,0
DA:91,0
DA:92,0
DA:93,0
DA:96,0
DA:97,0
DA:98,0
DA:99,0
DA:102,0
DA:103,0
DA:104,0
DA:105,0
DA:106,0
DA:115,1
DA:116,1
DA:117,1
DA:118,1
DA:120,1
DA:121,1
DA:124,1
DA:125,1
DA:126,1
DA:127,1
DA:128,1
DA:130,1
DA:131,1
DA:132,1
BRF:0
BRH:0
LF:66
LH:17
end_of_record
SF:/mnt/f/Node/hivellm/synap/sdks/rust/src/stream_reactive.rs
FN:89,_RINvMNtCs7YQ4GFoAOc2_9synap_sdk15stream_reactiveNtNtB5_6stream13StreamManager13observe_eventppEB5_
FN:40,_RINvMNtCs7YQ4GFoAOc2_9synap_sdk15stream_reactiveNtNtB5_6stream13StreamManager14observe_eventspEB5_
FN:104,_RNCINvMNtCs7YQ4GFoAOc2_9synap_sdk15stream_reactiveNtNtB7_6stream13StreamManager13observe_eventppE0B7_
FN:53,_RNCINvMNtCs7YQ4GFoAOc2_9synap_sdk15stream_reactiveNtNtB7_6stream13StreamManager14observe_eventspE0B7_
FNDA:0,_RINvMNtCs7YQ4GFoAOc2_9synap_sdk15stream_reactiveNtNtB5_6stream13StreamManager13observe_eventppEB5_
FNDA:0,_RINvMNtCs7YQ4GFoAOc2_9synap_sdk15stream_reactiveNtNtB5_6stream13StreamManager14observe_eventspEB5_
FNDA:0,_RNCINvMNtCs7YQ4GFoAOc2_9synap_sdk15stream_reactiveNtNtB7_6stream13StreamManager13observe_eventppE0B7_
FNDA:0,_RNCINvMNtCs7YQ4GFoAOc2_9synap_sdk15stream_reactiveNtNtB7_6stream13StreamManager14observe_eventspE0B7_
FNF:4
FNH:0
DA:40,0
DA:41,0
DA:42,0
DA:43,0
DA:44,0
DA:45,0
DA:46,0
DA:47,0
DA:48,0
DA:50,0
DA:51,0
DA:53,0
DA:55,0
DA:56,0
DA:57,0
DA:58,0
DA:60,0
DA:61,0
DA:62,0
DA:63,0
DA:64,0
DA:65,0
DA:66,0
DA:67,0
DA:70,0
DA:71,0
DA:77,0
DA:79,0
DA:80,0
DA:81,0
DA:83,0
DA:84,0
DA:89,0
DA:90,0
DA:91,0
DA:92,0
DA:93,0
DA:94,0
DA:95,0
DA:96,0
DA:97,0
DA:98,0
DA:99,0
DA:101,0
DA:102,0
DA:104,0
DA:106,0
DA:107,0
DA:108,0
DA:110,0
DA:111,0
DA:112,0
DA:113,0
DA:114,0
DA:117,0
DA:118,0
DA:119,0
DA:122,0
DA:123,0
DA:129,0
DA:131,0
DA:132,0
DA:133,0
DA:135,0
DA:136,0
BRF:0
BRH:0
LF:67
LH:0
end_of_record